

Microchip MPLAB XC8 Assembler V2.10 build 88905656 
                                                                                               Tue Oct 15 12:27:47 2019

Microchip MPLAB XC8 C Compiler v2.10 (Free license) build 20190730164152 Og1 
     1                           	processor	18F4550
     2                           	fnconf	rparam,??,?,0
     3                           	opt	pw 120
     4                           	opt	flic
     5                           	psect	cinit,global,reloc=2,class=CODE,delta=1
     6                           	psect	cstackCOMRAM,global,class=COMRAM,space=1,delta=1,noexec
     7                           	psect	text0,global,reloc=2,class=CODE,delta=1
     8                           	psect	text1,global,reloc=2,class=CODE,delta=1
     9                           	psect	intsave_regs,global,class=BIGRAM,space=1,delta=1,noexec
    10                           	psect	rparam,global,class=COMRAM,space=1,delta=1,noexec
    11  0000                     
    12                           ; Version 2.10
    13                           ; Generated 31/07/2019 GMT
    14                           ; 
    15                           ; Copyright © 2019, Microchip Technology Inc. and its subsidiaries ("Microchip")
    16                           ; All rights reserved.
    17                           ; 
    18                           ; This software is developed by Microchip Technology Inc. and its subsidiaries ("Microch
      +                          ip").
    19                           ; 
    20                           ; Redistribution and use in source and binary forms, with or without modification, are
    21                           ; permitted provided that the following conditions are met:
    22                           ; 
    23                           ;     1. Redistributions of source code must retain the above copyright notice, this lis
      +                          t of
    24                           ;        conditions and the following disclaimer.
    25                           ; 
    26                           ;     2. Redistributions in binary form must reproduce the above copyright notice, this 
      +                          list
    27                           ;        of conditions and the following disclaimer in the documentation and/or other
    28                           ;        materials provided with the distribution.
    29                           ; 
    30                           ;     3. Microchip's name may not be used to endorse or promote products derived from th
      +                          is
    31                           ;        software without specific prior written permission.
    32                           ; 
    33                           ; THIS SOFTWARE IS PROVIDED BY MICROCHIP "AS IS" AND ANY EXPRESS OR IMPLIED WARRANTIES,
    34                           ; INCLUDING, BUT NOT LIMITED TO, THE IMPLIED WARRANTIES OF MERCHANTABILITY AND FITNESS F
      +                          OR
    35                           ; PURPOSE ARE DISCLAIMED.  IN NO EVENT SHALL MICROCHIP BE LIABLE FOR ANY DIRECT, INDIREC
      +                          T,
    36                           ; INCIDENTAL, SPECIAL, EXEMPLARY, OR CONSEQUENTIAL DAMAGES (INCLUDING BUT NOT LIMITED TO
    37                           ; PROCUREMENT OF SUBSTITUTE GOODS OR SERVICES; LOSS OF USE, DATA OR PROFITS; OR BUSINESS
    38                           ; INTERRUPTION) HOWSOEVER CAUSED AND ON ANY THEORY OF LIABILITY, WHETHER IN CONTRACT, ST
      +                          RICT
    39                           ; LIABILITY, OR TORT (INCLUDING NEGLIGENCE OR OTHERWISE) ARISING IN ANY WAY OUT OF THE U
      +                          SE OF
    40                           ; THIS SOFTWARE, EVEN IF ADVISED OF THE POSSIBILITY OF SUCH DAMAGE.
    41                           ; 
    42                           ; 
    43                           ; Code-generator required, PIC18F4550 Definitions
    44                           ; 
    45                           ; SFR Addresses
    46  0000                     _LATDbits	set	3980
    47  0000                     _PORTBbits	set	3969
    48  0000                     _TRISDbits	set	3989
    49                           
    50                           ; #config settings
    51  0000                     
    52                           	psect	cinit
    53  007EF0                     __pcinit:
    54                           	opt callstack 0
    55  007EF0                     start_initialization:
    56                           	opt callstack 0
    57  007EF0                     __initialization:
    58                           	opt callstack 0
    59  007EF0                     end_of_initialization:
    60                           	opt callstack 0
    61  007EF0                     __end_of__initialization:
    62                           	opt callstack 0
    63  007EF0  0100               	movlb	0
    64  007EF2  EF92  F03F         	goto	_main	;jump to C main() function
    65                           
    66                           	psect	cstackCOMRAM
    67  000001                     __pcstackCOMRAM:
    68                           	opt callstack 0
    69  000001                     Periodon@tiempo:
    70                           	opt callstack 0
    71                           
    72                           ; 2 bytes @ 0x0
    73  000001                     	ds	2
    74  000003                     Periodon@papa:
    75                           	opt callstack 0
    76                           
    77                           ; 2 bytes @ 0x2
    78  000003                     	ds	2
    79  000005                     ??_main:
    80                           
    81                           ; 1 bytes @ 0x4
    82  000005                     	ds	2
    83                           
    84 ;;
    85 ;;Main: autosize = 0, tempsize = 2, incstack = 0, save=0
    86 ;;
    87 ;; *************** function _main *****************
    88 ;; Defined at:
    89 ;;		line 28 in file "maincodemon3pos.c"
    90 ;; Parameters:    Size  Location     Type
    91 ;;		None
    92 ;; Auto vars:     Size  Location     Type
    93 ;;		None
    94 ;; Return value:  Size  Location     Type
    95 ;;                  1    wreg      void 
    96 ;; Registers used:
    97 ;;		wreg, status,2, status,0, cstack
    98 ;; Tracked objects:
    99 ;;		On entry : 0/0
   100 ;;		On exit  : 0/0
   101 ;;		Unchanged: 0/0
   102 ;; Data sizes:     COMRAM   BANK0   BANK1   BANK2   BANK3   BANK4   BANK5   BANK6   BANK7
   103 ;;      Params:         0       0       0       0       0       0       0       0       0
   104 ;;      Locals:         0       0       0       0       0       0       0       0       0
   105 ;;      Temps:          2       0       0       0       0       0       0       0       0
   106 ;;      Totals:         2       0       0       0       0       0       0       0       0
   107 ;;Total ram usage:        2 bytes
   108 ;; Hardware stack levels required when called:    1
   109 ;; This function calls:
   110 ;;		_Periodon
   111 ;; This function is called by:
   112 ;;		Startup code after reset
   113 ;; This function uses a non-reentrant model
   114 ;;
   115                           
   116                           	psect	text0
   117  007F24                     __ptext0:
   118                           	opt callstack 0
   119  007F24                     _main:
   120                           	opt callstack 30
   121  007F24                     
   122                           ;maincodemon3pos.c: 29:     TRISDbits.RD0 = 0;
   123  007F24  9095               	bcf	149,0,c	;volatile
   124  007F26                     l19:
   125                           
   126                           ;maincodemon3pos.c: 31:         if(PORTBbits.RB1 == 0 && PORTBbits.RB0 == 0){
   127  007F26  B281               	btfsc	129,1,c	;volatile
   128  007F28  EF98  F03F         	goto	u91
   129  007F2C  EF9A  F03F         	goto	u90
   130  007F30                     u91:
   131  007F30  EFB1  F03F         	goto	l20
   132  007F34                     u90:
   133  007F34  B081               	btfsc	129,0,c	;volatile
   134  007F36  EF9F  F03F         	goto	u101
   135  007F3A  EFA1  F03F         	goto	u100
   136  007F3E                     u101:
   137  007F3E  EFB1  F03F         	goto	l20
   138  007F42                     u100:
   139  007F42                     
   140                           ;maincodemon3pos.c: 32:             LATDbits.LD0 = 1;
   141  007F42  808C               	bsf	140,0,c	;volatile
   142  007F44                     
   143                           ;maincodemon3pos.c: 33:             Periodon(800);
   144  007F44  0E03               	movlw	3
   145  007F46  6E02               	movwf	(Periodon@tiempo+1)^0,c
   146  007F48  0E20               	movlw	32
   147  007F4A  6E01               	movwf	Periodon@tiempo^0,c
   148  007F4C  EC7B  F03F         	call	_Periodon	;wreg free
   149  007F50                     
   150                           ;maincodemon3pos.c: 35:             LATDbits.LD0 = 0;
   151  007F50  908C               	bcf	140,0,c	;volatile
   152                           
   153                           ;maincodemon3pos.c: 36:             Periodon(10000);
   154  007F52  0E27               	movlw	39
   155  007F54  6E02               	movwf	(Periodon@tiempo+1)^0,c
   156  007F56  0E10               	movlw	16
   157  007F58  6E01               	movwf	Periodon@tiempo^0,c
   158  007F5A  EC7B  F03F         	call	_Periodon	;wreg free
   159                           
   160                           ;maincodemon3pos.c: 39:         }
   161  007F5E  EF93  F03F         	goto	l19
   162  007F62                     l20:
   163  007F62  B281               	btfsc	129,1,c	;volatile
   164  007F64  EFB6  F03F         	goto	u111
   165  007F68  EFB8  F03F         	goto	u110
   166  007F6C                     u111:
   167  007F6C  EFD7  F03F         	goto	l22
   168  007F70                     u110:
   169  007F70  A081               	btfss	129,0,c	;volatile
   170  007F72  EFBD  F03F         	goto	u121
   171  007F76  EFBF  F03F         	goto	u120
   172  007F7A                     u121:
   173  007F7A  EFD7  F03F         	goto	l22
   174  007F7E                     u120:
   175  007F7E                     
   176                           ;maincodemon3pos.c: 41:             LATDbits.LD0 = 1;
   177  007F7E  808C               	bsf	140,0,c	;volatile
   178  007F80                     
   179                           ;maincodemon3pos.c: 42:             _delay((unsigned long)((1000)*(48000000UL/4000000.0)
      +                          ));
   180  007F80  0E10               	movlw	16
   181  007F82  6E05               	movwf	??_main^0,c
   182  007F84  0E94               	movlw	148
   183  007F86                     u157:
   184  007F86  2EE8               	decfsz	wreg,f,c
   185  007F88  D7FE               	bra	u157
   186  007F8A  2E05               	decfsz	??_main^0,f,c
   187  007F8C  D7FC               	bra	u157
   188  007F8E  D000               	nop2	
   189  007F90                     
   190                           ;maincodemon3pos.c: 43:             LATDbits.LD0 = 0;
   191  007F90  908C               	bcf	140,0,c	;volatile
   192                           
   193                           ;maincodemon3pos.c: 44:             _delay((unsigned long)((19)*(48000000UL/4000.0)));
   194  007F92  0E02               	movlw	2
   195  007F94  6E06               	movwf	(??_main+1)^0,c
   196  007F96  0E29               	movlw	41
   197  007F98  6E05               	movwf	??_main^0,c
   198  007F9A  0E17               	movlw	23
   199  007F9C                     u167:
   200  007F9C  2EE8               	decfsz	wreg,f,c
   201  007F9E  D7FE               	bra	u167
   202  007FA0  2E05               	decfsz	??_main^0,f,c
   203  007FA2  D7FC               	bra	u167
   204  007FA4  2E06               	decfsz	(??_main+1)^0,f,c
   205  007FA6  D7FA               	bra	u167
   206  007FA8  F000               	nop	
   207                           
   208                           ;maincodemon3pos.c: 45:         }
   209  007FAA  EF93  F03F         	goto	l19
   210  007FAE                     l22:
   211  007FAE  A281               	btfss	129,1,c	;volatile
   212  007FB0  EFDC  F03F         	goto	u131
   213  007FB4  EFDE  F03F         	goto	u130
   214  007FB8                     u131:
   215  007FB8  EFFB  F03F         	goto	l24
   216  007FBC                     u130:
   217  007FBC  B081               	btfsc	129,0,c	;volatile
   218  007FBE  EFE3  F03F         	goto	u141
   219  007FC2  EFE5  F03F         	goto	u140
   220  007FC6                     u141:
   221  007FC6  EFFB  F03F         	goto	l24
   222  007FCA                     u140:
   223  007FCA                     
   224                           ;maincodemon3pos.c: 47:             LATDbits.LD0 = 1;
   225  007FCA  808C               	bsf	140,0,c	;volatile
   226  007FCC                     
   227                           ;maincodemon3pos.c: 48:             _delay((unsigned long)((2000)*(48000000UL/4000000.0)
      +                          ));
   228  007FCC  0E20               	movlw	32
   229  007FCE  6E05               	movwf	??_main^0,c
   230  007FD0  0E2A               	movlw	42
   231  007FD2                     u177:
   232  007FD2  2EE8               	decfsz	wreg,f,c
   233  007FD4  D7FE               	bra	u177
   234  007FD6  2E05               	decfsz	??_main^0,f,c
   235  007FD8  D7FC               	bra	u177
   236  007FDA                     
   237                           ;maincodemon3pos.c: 49:             LATDbits.LD0 = 0;
   238  007FDA  908C               	bcf	140,0,c	;volatile
   239                           
   240                           ;maincodemon3pos.c: 50:             _delay((unsigned long)((18)*(48000000UL/4000.0)));
   241  007FDC  0E02               	movlw	2
   242  007FDE  6E06               	movwf	(??_main+1)^0,c
   243  007FE0  0E19               	movlw	25
   244  007FE2  6E05               	movwf	??_main^0,c
   245  007FE4  0E82               	movlw	130
   246  007FE6                     u187:
   247  007FE6  2EE8               	decfsz	wreg,f,c
   248  007FE8  D7FE               	bra	u187
   249  007FEA  2E05               	decfsz	??_main^0,f,c
   250  007FEC  D7FC               	bra	u187
   251  007FEE  2E06               	decfsz	(??_main+1)^0,f,c
   252  007FF0  D7FA               	bra	u187
   253                           
   254                           ;maincodemon3pos.c: 51:         }
   255  007FF2  EF93  F03F         	goto	l19
   256  007FF6                     l24:
   257                           
   258                           ;maincodemon3pos.c: 53:             LATDbits.LD0 = 0;
   259  007FF6  908C               	bcf	140,0,c	;volatile
   260  007FF8  EF93  F03F         	goto	l19
   261  007FFC  EF00  F000         	goto	start
   262  008000                     __end_of_main:
   263                           	opt callstack 0
   264                           
   265 ;; *************** function _Periodon *****************
   266 ;; Defined at:
   267 ;;		line 23 in file "maincodemon3pos.c"
   268 ;; Parameters:    Size  Location     Type
   269 ;;  tiempo          2    0[COMRAM] int 
   270 ;; Auto vars:     Size  Location     Type
   271 ;;  papa            2    2[COMRAM] unsigned int 
   272 ;; Return value:  Size  Location     Type
   273 ;;                  2    0[COMRAM] unsigned int 
   274 ;; Registers used:
   275 ;;		wreg, status,2, status,0
   276 ;; Tracked objects:
   277 ;;		On entry : 0/0
   278 ;;		On exit  : 0/0
   279 ;;		Unchanged: 0/0
   280 ;; Data sizes:     COMRAM   BANK0   BANK1   BANK2   BANK3   BANK4   BANK5   BANK6   BANK7
   281 ;;      Params:         2       0       0       0       0       0       0       0       0
   282 ;;      Locals:         2       0       0       0       0       0       0       0       0
   283 ;;      Temps:          0       0       0       0       0       0       0       0       0
   284 ;;      Totals:         4       0       0       0       0       0       0       0       0
   285 ;;Total ram usage:        4 bytes
   286 ;; Hardware stack levels used:    1
   287 ;; This function calls:
   288 ;;		Nothing
   289 ;; This function is called by:
   290 ;;		_main
   291 ;; This function uses a non-reentrant model
   292 ;;
   293                           
   294                           	psect	text1
   295  007EF6                     __ptext1:
   296                           	opt callstack 0
   297  007EF6                     _Periodon:
   298                           	opt callstack 30
   299  007EF6                     
   300                           ;maincodemon3pos.c: 24:     for(unsigned int papa=0; papa<tiempo; papa++){
   301  007EF6  0E00               	movlw	0
   302  007EF8  6E04               	movwf	(Periodon@papa+1)^0,c
   303  007EFA  0E00               	movlw	0
   304  007EFC  6E03               	movwf	Periodon@papa^0,c
   305  007EFE  EF86  F03F         	goto	l11
   306  007F02                     l738:
   307                           
   308                           ;maincodemon3pos.c: 25:         _delay((unsigned long)((1)*(48000000UL/4000000.0)));
   309  007F02  0E04               	movlw	4
   310  007F04                     u197:
   311  007F04  2EE8               	decfsz	wreg,f,c
   312  007F06  D7FE               	bra	u197
   313  007F08                     
   314                           ;maincodemon3pos.c: 26:     }
   315  007F08  4A03               	infsnz	Periodon@papa^0,f,c
   316  007F0A  2A04               	incf	(Periodon@papa+1)^0,f,c
   317  007F0C                     l11:
   318  007F0C  5001               	movf	Periodon@tiempo^0,w,c
   319  007F0E  5C03               	subwf	Periodon@papa^0,w,c
   320  007F10  5002               	movf	(Periodon@tiempo+1)^0,w,c
   321  007F12  5804               	subwfb	(Periodon@papa+1)^0,w,c
   322  007F14  A0D8               	btfss	status,0,c
   323  007F16  EF8F  F03F         	goto	u81
   324  007F1A  EF91  F03F         	goto	u80
   325  007F1E                     u81:
   326  007F1E  EF81  F03F         	goto	l738
   327  007F22                     u80:
   328  007F22  0012               	return		;funcret
   329  007F24                     __end_of_Periodon:
   330                           	opt callstack 0
   331  0000                     
   332                           	psect	rparam
   333  0000                     tosu	equ	0xFFF
   334                           tosh	equ	0xFFE
   335                           tosl	equ	0xFFD
   336                           stkptr	equ	0xFFC
   337                           pclatu	equ	0xFFB
   338                           pclath	equ	0xFFA
   339                           pcl	equ	0xFF9
   340                           tblptru	equ	0xFF8
   341                           tblptrh	equ	0xFF7
   342                           tblptrl	equ	0xFF6
   343                           tablat	equ	0xFF5
   344                           prodh	equ	0xFF4
   345                           prodl	equ	0xFF3
   346                           indf0	equ	0xFEF
   347                           postinc0	equ	0xFEE
   348                           postdec0	equ	0xFED
   349                           preinc0	equ	0xFEC
   350                           plusw0	equ	0xFEB
   351                           fsr0h	equ	0xFEA
   352                           fsr0l	equ	0xFE9
   353                           wreg	equ	0xFE8
   354                           indf1	equ	0xFE7
   355                           postinc1	equ	0xFE6
   356                           postdec1	equ	0xFE5
   357                           preinc1	equ	0xFE4
   358                           plusw1	equ	0xFE3
   359                           fsr1h	equ	0xFE2
   360                           fsr1l	equ	0xFE1
   361                           bsr	equ	0xFE0
   362                           indf2	equ	0xFDF
   363                           postinc2	equ	0xFDE
   364                           postdec2	equ	0xFDD
   365                           preinc2	equ	0xFDC
   366                           plusw2	equ	0xFDB
   367                           fsr2h	equ	0xFDA
   368                           fsr2l	equ	0xFD9
   369                           status	equ	0xFD8


Data Sizes:
    Strings     0
    Constant    0
    Data        0
    BSS         0
    Persistent  0
    Stack       0

Auto Spaces:
    Space          Size  Autos    Used
    COMRAM           95      6       6
    BANK0           160      0       0
    BANK1           256      0       0
    BANK2           256      0       0
    BANK3           256      0       0
    BANK4           256      0       0
    BANK5           256      0       0
    BANK6           256      0       0
    BANK7           256      0       0

Pointer List with Targets:

    None.

Critical Paths under _main in COMRAM

    _main->_Periodon

Critical Paths under _main in BANK0

    None.

Critical Paths under _main in BANK1

    None.

Critical Paths under _main in BANK2

    None.

Critical Paths under _main in BANK3

    None.

Critical Paths under _main in BANK4

    None.

Critical Paths under _main in BANK5

    None.

Critical Paths under _main in BANK6

    None.

Critical Paths under _main in BANK7

    None.

Call Graph Tables:

 ---------------------------------------------------------------------------------
 (Depth) Function   	        Calls       Base Space   Used Autos Params    Refs
 ---------------------------------------------------------------------------------
 (0) _main                                                 2     2      0     198
                                              4 COMRAM     2     2      0
                           _Periodon
 ---------------------------------------------------------------------------------
 (1) _Periodon                                             4     2      2     198
                                              0 COMRAM     4     2      2
 ---------------------------------------------------------------------------------
 Estimated maximum stack depth 1
 ---------------------------------------------------------------------------------

 Call Graph Graphs:

 _main (ROOT)
   _Periodon

 Address spaces:
Name               Size   Autos  Total    Cost      Usage
BITCOMRAM           5F      0       0       0        0.0%
EEDATA             100      0       0       0        0.0%
NULL                 0      0       0       0        0.0%
CODE                 0      0       0       0        0.0%
COMRAM              5F      6       6       1        6.3%
STACK                0      0       0       2        0.0%
DATA                 0      0       0       3        0.0%
BITBANK0            A0      0       0       4        0.0%
BANK0               A0      0       0       5        0.0%
BITBANK1           100      0       0       6        0.0%
BANK1              100      0       0       7        0.0%
BITBANK2           100      0       0       8        0.0%
BANK2              100      0       0       9        0.0%
BITBANK3           100      0       0      10        0.0%
BANK3              100      0       0      11        0.0%
BITBANK4           100      0       0      12        0.0%
BANK4              100      0       0      13        0.0%
BITBANK5           100      0       0      14        0.0%
BANK5              100      0       0      15        0.0%
BITBANK6           100      0       0      16        0.0%
BANK6              100      0       0      17        0.0%
BITBANK7           100      0       0      18        0.0%
BANK7              100      0       0      19        0.0%
ABS                  0      0       0      20        0.0%
BIGRAM             7FF      0       0      21        0.0%
BITSFR               0      0       0     200        0.0%
SFR                  0      0       0     200        0.0%


Microchip Technology PIC18 Macro Assembler V2.10 build 88905656 
Symbol Table                                                                                   Tue Oct 15 12:27:47 2019

                     l11 7F0C                       l20 7F62                       l14 7F22  
                     l22 7FAE                       l24 7FF6                       l19 7F26  
                     u80 7F22                       u81 7F1E                       u90 7F34  
                     u91 7F30              __CFG_BORV$3 000000       __CFG_FOSC$XTPLL_XT 000000  
                    l740 7F08                      l750 7F50                      l742 7F24  
                    l736 7EF6                      l760 7FBC                      l752 7F70  
                    l744 7F34                      l738 7F02                      l762 7FCA  
                    l754 7F7E                      l746 7F42                      l764 7FCC  
                    l756 7F80                      l748 7F44                      l766 7FDA  
                    l758 7F90                      u100 7F42                      u101 7F3E  
                    u110 7F70                      u111 7F6C                      u120 7F7E  
                    u121 7F7A                      u130 7FBC                      u131 7FB8  
                    u140 7FCA                      u141 7FC6                      u157 7F86  
                    u167 7F9C                      u177 7FD2                      u187 7FE6  
                    u197 7F04             __CFG_BOR$OFF 000000                      wreg 000FE8  
           __CFG_LVP$OFF 000000             __CFG_WDT$OFF 000000             __CFG_PWRT$ON 000000  
                   _main 7F24                     start 0000            __CFG_MCLRE$ON 000000  
           ___param_bank 000000            __CFG_PLLDIV$1 000000           __CFG_CCP2MX$ON 000000  
                  ?_main 0001                    status 000FD8          __initialization 7EF0  
           __end_of_main 8000                   ??_main 0005         __end_of_Periodon 7F24  
          __activetblptr 000000           Periodon@tiempo 0001               __accesstop 0060  
__end_of__initialization 7EF0          __CFG_PBADEN$OFF 000000            ___rparam_used 000001  
         __pcstackCOMRAM 0001                ?_Periodon 0001               ??_Periodon 0003  
                __Hparam 0000                  __Lparam 0000                  __pcinit 7EF0  
                __ramtop 0800                  __ptext0 7F24                  __ptext1 7EF6  
   end_of_initialization 7EF0                _PORTBbits 000F81                _TRISDbits 000F95  
           Periodon@papa 0003      start_initialization 7EF0        __size_of_Periodon 002E  
       __CFG_LPT1OSC$OFF 000000                 _LATDbits 000F8C         __CFG_WDTPS$32768 000000  
               _Periodon 7EF6                 __Hrparam 0000                 __Lrparam 0000  
          __size_of_main 00DC    __CFG_CPUDIV$OSC1_PLL2 000000  
