

Microchip MPLAB XC8 Assembler V2.05 build -831301201 
                                                                                               Wed Nov 06 09:34:02 2019

Microchip MPLAB XC8 C Compiler v2.05 (Free license) build 20181220022703 Og1 
     1                           	processor	18F4550
     2                           	fnconf	rparam,??,?,0
     3                           	opt	pw 120
     4                           	opt	flic
     5                           	psect	idataCOMRAM,global,class=CODE,delta=1,noexec
     6                           	psect	idataBANK0,global,class=CODE,delta=1,noexec
     7                           	psect	idataBANK1,global,class=CODE,delta=1,noexec
     8                           	psect	cinit,global,reloc=2,class=CODE,delta=1
     9                           	psect	dataCOMRAM,global,class=COMRAM,space=1,delta=1,noexec
    10                           	psect	dataBANK0,global,class=BANK0,space=1,delta=1,lowdata,noexec
    11                           	psect	dataBANK1,global,class=BANK1,space=1,delta=1,lowdata,noexec
    12                           	psect	cstackCOMRAM,global,class=COMRAM,space=1,delta=1,noexec
    13                           	psect	text0,global,reloc=2,class=CODE,delta=1
    14                           	psect	text1,global,reloc=2,class=CODE,delta=1
    15                           	psect	text2,global,reloc=2,class=CODE,delta=1
    16                           	psect	text3,global,reloc=2,class=CODE,delta=1
    17                           	psect	text4,global,reloc=2,class=CODE,delta=1
    18                           	psect	intcode,global,reloc=2,class=CODE,delta=1
    19                           	psect	intcode_body,global,reloc=2,class=CODE,delta=1
    20                           	psect	text6,global,reloc=2,class=CODE,delta=1
    21                           	psect	text7,global,reloc=2,class=CODE,delta=1
    22                           	psect	text8,global,reloc=2,class=CODE,delta=1
    23                           	psect	text9,global,reloc=2,class=CODE,delta=1
    24                           	psect	intsave_regs,global,class=BIGRAM,space=1,delta=1,noexec
    25                           	psect	rparam,global,class=COMRAM,space=1,delta=1,noexec
    26                           	psect	temp,global,ovrld,common,class=COMRAM,space=1,delta=1
    27  0000                     
    28                           ; Version 2.05
    29                           ; Generated 20/12/2018 GMT
    30                           ; 
    31                           ; Copyright © 2018, Microchip Technology Inc. and its subsidiaries ("Microchip")
    32                           ; All rights reserved.
    33                           ; 
    34                           ; This software is developed by Microchip Technology Inc. and its subsidiaries ("Microch
      +                          ip").
    35                           ; 
    36                           ; Redistribution and use in source and binary forms, with or without modification, are
    37                           ; permitted provided that the following conditions are met:
    38                           ; 
    39                           ;     1. Redistributions of source code must retain the above copyright notice, this lis
      +                          t of
    40                           ;        conditions and the following disclaimer.
    41                           ; 
    42                           ;     2. Redistributions in binary form must reproduce the above copyright notice, this 
      +                          list
    43                           ;        of conditions and the following disclaimer in the documentation and/or other
    44                           ;        materials provided with the distribution.
    45                           ; 
    46                           ;     3. Microchip's name may not be used to endorse or promote products derived from th
      +                          is
    47                           ;        software without specific prior written permission.
    48                           ; 
    49                           ; THIS SOFTWARE IS PROVIDED BY MICROCHIP "AS IS" AND ANY EXPRESS OR IMPLIED WARRANTIES,
    50                           ; INCLUDING, BUT NOT LIMITED TO, THE IMPLIED WARRANTIES OF MERCHANTABILITY AND FITNESS F
      +                          OR
    51                           ; PURPOSE ARE DISCLAIMED.  IN NO EVENT SHALL MICROCHIP BE LIABLE FOR ANY DIRECT, INDIREC
      +                          T,
    52                           ; INCIDENTAL, SPECIAL, EXEMPLARY, OR CONSEQUENTIAL DAMAGES (INCLUDING BUT NOT LIMITED TO
    53                           ; PROCUREMENT OF SUBSTITUTE GOODS OR SERVICES; LOSS OF USE, DATA OR PROFITS; OR BUSINESS
    54                           ; INTERRUPTION) HOWSOEVER CAUSED AND ON ANY THEORY OF LIABILITY, WHETHER IN CONTRACT, ST
      +                          RICT
    55                           ; LIABILITY, OR TORT (INCLUDING NEGLIGENCE OR OTHERWISE) ARISING IN ANY WAY OUT OF THE U
      +                          SE OF
    56                           ; THIS SOFTWARE, EVEN IF ADVISED OF THE POSSIBILITY OF SUCH DAMAGE.
    57                           ; 
    58                           ; 
    59                           ; Code-generator required, PIC18F4550 Definitions
    60                           ; 
    61                           ; SFR Addresses
    62  0000                     
    63                           	psect	idataCOMRAM
    64  000364                     __pidataCOMRAM:
    65                           	opt callstack 0
    66                           
    67                           ;initializer for _menu3
    68  000364  28                 	db	40
    69  000365  31                 	db	49
    70  000366  29                 	db	41
    71  000367  20                 	db	32
    72  000368  45                 	db	69
    73  000369  6E                 	db	110
    74  00036A  63                 	db	99
    75  00036B  69                 	db	105
    76  00036C  65                 	db	101
    77  00036D  6E                 	db	110
    78  00036E  64                 	db	100
    79  00036F  65                 	db	101
    80  000370  73                 	db	115
    81  000371  20                 	db	32
    82  000372  4C                 	db	76
    83  000373  45                 	db	69
    84  000374  44                 	db	68
    85  000375  20                 	db	32
    86  000376  20                 	db	32
    87  000377  20                 	db	32
    88  000378  00                 	db	0
    89                           
    90                           ;initializer for _menu2
    91  000379  45                 	db	69
    92  00037A  73                 	db	115
    93  00037B  63                 	db	99
    94  00037C  6F                 	db	111
    95  00037D  6A                 	db	106
    96  00037E  61                 	db	97
    97  00037F  20                 	db	32
    98  000380  6F                 	db	111
    99  000381  70                 	db	112
   100  000382  63                 	db	99
   101  000383  69                 	db	105
   102  000384  6F                 	db	111
   103  000385  6E                 	db	110
   104  000386  3A                 	db	58
   105  000387  20                 	db	32
   106  000388  20                 	db	32
   107  000389  20                 	db	32
   108  00038A  20                 	db	32
   109  00038B  20                 	db	32
   110  00038C  20                 	db	32
   111  00038D  00                 	db	0
   112                           
   113                           ;initializer for _menu1
   114  00038E  42                 	db	66
   115  00038F  69                 	db	105
   116  000390  65                 	db	101
   117  000391  6E                 	db	110
   118  000392  76                 	db	118
   119  000393  65                 	db	101
   120  000394  6E                 	db	110
   121  000395  69                 	db	105
   122  000396  64                 	db	100
   123  000397  6F                 	db	111
   124  000398  73                 	db	115
   125  000399  20                 	db	32
   126  00039A  61                 	db	97
   127  00039B  6C                 	db	108
   128  00039C  20                 	db	32
   129  00039D  6D                 	db	109
   130  00039E  65                 	db	101
   131  00039F  6E                 	db	110
   132  0003A0  75                 	db	117
   133  0003A1  20                 	db	32
   134  0003A2  00                 	db	0
   135                           
   136                           	psect	idataBANK0
   137  0001E0                     __pidataBANK0:
   138                           	opt callstack 0
   139                           
   140                           ;initializer for _led_on
   141  0001E0  4C                 	db	76
   142  0001E1  45                 	db	69
   143  0001E2  44                 	db	68
   144  0001E3  20                 	db	32
   145  0001E4  65                 	db	101
   146  0001E5  6E                 	db	110
   147  0001E6  63                 	db	99
   148  0001E7  65                 	db	101
   149  0001E8  6E                 	db	110
   150  0001E9  64                 	db	100
   151  0001EA  69                 	db	105
   152  0001EB  64                 	db	100
   153  0001EC  6F                 	db	111
   154  0001ED  20                 	db	32
   155  0001EE  20                 	db	32
   156  0001EF  20                 	db	32
   157  0001F0  20                 	db	32
   158  0001F1  20                 	db	32
   159  0001F2  20                 	db	32
   160  0001F3  20                 	db	32
   161  0001F4  00                 	db	0
   162                           
   163                           ;initializer for _autor
   164  0001F5  4B                 	db	75
   165  0001F6  61                 	db	97
   166  0001F7  6C                 	db	108
   167  0001F8  75                 	db	117
   168  0001F9  6E                 	db	110
   169  0001FA  20                 	db	32
   170  0001FB  4A                 	db	74
   171  0001FC  6F                 	db	111
   172  0001FD  73                 	db	115
   173  0001FE  65                 	db	101
   174  0001FF  20                 	db	32
   175  000200  4C                 	db	76
   176  000201  61                 	db	97
   177  000202  75                 	db	117
   178  000203  20                 	db	32
   179  000204  47                 	db	71
   180  000205  61                 	db	97
   181  000206  6E                 	db	110
   182  000207  20                 	db	32
   183  000208  20                 	db	32
   184  000209  00                 	db	0
   185                           
   186                           ;initializer for _menu8
   187  00020A  28                 	db	40
   188  00020B  6D                 	db	109
   189  00020C  29                 	db	41
   190  00020D  20                 	db	32
   191  00020E  56                 	db	86
   192  00020F  69                 	db	105
   193  000210  73                 	db	115
   194  000211  75                 	db	117
   195  000212  61                 	db	97
   196  000213  6C                 	db	108
   197  000214  69                 	db	105
   198  000215  7A                 	db	122
   199  000216  61                 	db	97
   200  000217  72                 	db	114
   201  000218  20                 	db	32
   202  000219  6D                 	db	109
   203  00021A  65                 	db	101
   204  00021B  6E                 	db	110
   205  00021C  75                 	db	117
   206  00021D  20                 	db	32
   207  00021E  00                 	db	0
   208                           
   209                           ;initializer for _menu7
   210  00021F  28                 	db	40
   211  000220  35                 	db	53
   212  000221  29                 	db	41
   213  000222  20                 	db	32
   214  000223  41                 	db	65
   215  000224  75                 	db	117
   216  000225  74                 	db	116
   217  000226  6F                 	db	111
   218  000227  72                 	db	114
   219  000228  20                 	db	32
   220  000229  20                 	db	32
   221  00022A  20                 	db	32
   222  00022B  20                 	db	32
   223  00022C  20                 	db	32
   224  00022D  20                 	db	32
   225  00022E  20                 	db	32
   226  00022F  20                 	db	32
   227  000230  20                 	db	32
   228  000231  20                 	db	32
   229  000232  20                 	db	32
   230  000233  00                 	db	0
   231                           
   232                           ;initializer for _menu6
   233  000234  28                 	db	40
   234  000235  34                 	db	52
   235  000236  29                 	db	41
   236  000237  20                 	db	32
   237  000238  45                 	db	69
   238  000239  73                 	db	115
   239  00023A  74                 	db	116
   240  00023B  61                 	db	97
   241  00023C  64                 	db	100
   242  00023D  6F                 	db	111
   243  00023E  20                 	db	32
   244  00023F  64                 	db	100
   245  000240  65                 	db	101
   246  000241  6C                 	db	108
   247  000242  20                 	db	32
   248  000243  62                 	db	98
   249  000244  6F                 	db	111
   250  000245  74                 	db	116
   251  000246  6F                 	db	111
   252  000247  6E                 	db	110
   253  000248  00                 	db	0
   254                           
   255                           ;initializer for _menu5
   256  000249  28                 	db	40
   257  00024A  33                 	db	51
   258  00024B  29                 	db	41
   259  00024C  20                 	db	32
   260  00024D  50                 	db	80
   261  00024E  61                 	db	97
   262  00024F  72                 	db	114
   263  000250  70                 	db	112
   264  000251  61                 	db	97
   265  000252  64                 	db	100
   266  000253  65                 	db	101
   267  000254  61                 	db	97
   268  000255  73                 	db	115
   269  000256  20                 	db	32
   270  000257  4C                 	db	76
   271  000258  45                 	db	69
   272  000259  44                 	db	68
   273  00025A  20                 	db	32
   274  00025B  20                 	db	32
   275  00025C  20                 	db	32
   276  00025D  00                 	db	0
   277                           
   278                           ;initializer for _menu4
   279  00025E  28                 	db	40
   280  00025F  32                 	db	50
   281  000260  29                 	db	41
   282  000261  20                 	db	32
   283  000262  41                 	db	65
   284  000263  70                 	db	112
   285  000264  61                 	db	97
   286  000265  67                 	db	103
   287  000266  61                 	db	97
   288  000267  73                 	db	115
   289  000268  20                 	db	32
   290  000269  4C                 	db	76
   291  00026A  45                 	db	69
   292  00026B  44                 	db	68
   293  00026C  20                 	db	32
   294  00026D  20                 	db	32
   295  00026E  20                 	db	32
   296  00026F  20                 	db	32
   297  000270  20                 	db	32
   298  000271  20                 	db	32
   299  000272  00                 	db	0
   300                           
   301                           	psect	idataBANK1
   302  000273                     __pidataBANK1:
   303                           	opt callstack 0
   304                           
   305                           ;initializer for _cadena
   306  000273  45                 	db	69
   307  000274  6C                 	db	108
   308  000275  65                 	db	101
   309  000276  63                 	db	99
   310  000277  74                 	db	116
   311  000278  72                 	db	114
   312  000279  6F                 	db	111
   313  00027A  6E                 	db	110
   314  00027B  69                 	db	105
   315  00027C  63                 	db	99
   316  00027D  61                 	db	97
   317  00027E  20                 	db	32
   318  00027F  2D                 	db	45
   319  000280  20                 	db	32
   320  000281  4D                 	db	77
   321  000282  65                 	db	101
   322  000283  63                 	db	99
   323  000284  61                 	db	97
   324  000285  74                 	db	116
   325  000286  72                 	db	114
   326  000287  6F                 	db	111
   327  000288  6E                 	db	110
   328  000289  69                 	db	105
   329  00028A  63                 	db	99
   330  00028B  61                 	db	97
   331  00028C  00                 	db	0
   332                           
   333                           ;initializer for _error
   334  00028D  54                 	db	84
   335  00028E  65                 	db	101
   336  00028F  63                 	db	99
   337  000290  6C                 	db	108
   338  000291  61                 	db	97
   339  000292  20                 	db	32
   340  000293  65                 	db	101
   341  000294  72                 	db	114
   342  000295  72                 	db	114
   343  000296  6F                 	db	111
   344  000297  6E                 	db	110
   345  000298  65                 	db	101
   346  000299  61                 	db	97
   347  00029A  20                 	db	32
   348  00029B  20                 	db	32
   349  00029C  20                 	db	32
   350  00029D  20                 	db	32
   351  00029E  20                 	db	32
   352  00029F  20                 	db	32
   353  0002A0  20                 	db	32
   354  0002A1  00                 	db	0
   355                           
   356                           ;initializer for _boton_off
   357  0002A2  42                 	db	66
   358  0002A3  6F                 	db	111
   359  0002A4  74                 	db	116
   360  0002A5  6F                 	db	111
   361  0002A6  6E                 	db	110
   362  0002A7  20                 	db	32
   363  0002A8  73                 	db	115
   364  0002A9  69                 	db	105
   365  0002AA  6E                 	db	110
   366  0002AB  20                 	db	32
   367  0002AC  70                 	db	112
   368  0002AD  72                 	db	114
   369  0002AE  65                 	db	101
   370  0002AF  73                 	db	115
   371  0002B0  69                 	db	105
   372  0002B1  6F                 	db	111
   373  0002B2  6E                 	db	110
   374  0002B3  61                 	db	97
   375  0002B4  72                 	db	114
   376  0002B5  20                 	db	32
   377  0002B6  00                 	db	0
   378                           
   379                           ;initializer for _boton_on
   380  0002B7  42                 	db	66
   381  0002B8  6F                 	db	111
   382  0002B9  74                 	db	116
   383  0002BA  6F                 	db	111
   384  0002BB  6E                 	db	110
   385  0002BC  20                 	db	32
   386  0002BD  70                 	db	112
   387  0002BE  72                 	db	114
   388  0002BF  65                 	db	101
   389  0002C0  73                 	db	115
   390  0002C1  69                 	db	105
   391  0002C2  6F                 	db	111
   392  0002C3  6E                 	db	110
   393  0002C4  61                 	db	97
   394  0002C5  64                 	db	100
   395  0002C6  6F                 	db	111
   396  0002C7  20                 	db	32
   397  0002C8  20                 	db	32
   398  0002C9  20                 	db	32
   399  0002CA  20                 	db	32
   400  0002CB  00                 	db	0
   401                           
   402                           ;initializer for _led_parpadeo
   403  0002CC  4C                 	db	76
   404  0002CD  45                 	db	69
   405  0002CE  44                 	db	68
   406  0002CF  20                 	db	32
   407  0002D0  70                 	db	112
   408  0002D1  61                 	db	97
   409  0002D2  72                 	db	114
   410  0002D3  70                 	db	112
   411  0002D4  61                 	db	97
   412  0002D5  64                 	db	100
   413  0002D6  65                 	db	101
   414  0002D7  61                 	db	97
   415  0002D8  6E                 	db	110
   416  0002D9  64                 	db	100
   417  0002DA  6F                 	db	111
   418  0002DB  20                 	db	32
   419  0002DC  20                 	db	32
   420  0002DD  20                 	db	32
   421  0002DE  20                 	db	32
   422  0002DF  20                 	db	32
   423  0002E0  00                 	db	0
   424                           
   425                           ;initializer for _led_off
   426  0002E1  4C                 	db	76
   427  0002E2  45                 	db	69
   428  0002E3  44                 	db	68
   429  0002E4  20                 	db	32
   430  0002E5  61                 	db	97
   431  0002E6  70                 	db	112
   432  0002E7  61                 	db	97
   433  0002E8  67                 	db	103
   434  0002E9  61                 	db	97
   435  0002EA  64                 	db	100
   436  0002EB  6F                 	db	111
   437  0002EC  20                 	db	32
   438  0002ED  20                 	db	32
   439  0002EE  20                 	db	32
   440  0002EF  20                 	db	32
   441  0002F0  20                 	db	32
   442  0002F1  20                 	db	32
   443  0002F2  20                 	db	32
   444  0002F3  20                 	db	32
   445  0002F4  20                 	db	32
   446  0002F5  00                 	db	0
   447  0000                     _RCREG	set	4014
   448  0000                     _PORTBbits	set	3969
   449  0000                     _PIR1bits	set	3998
   450  0000                     _LATEbits	set	3981
   451  0000                     _TRISEbits	set	3990
   452  0000                     _ADCON1	set	4033
   453  0000                     _PIE1bits	set	3997
   454  0000                     _INTCONbits	set	4082
   455  0000                     _TRISCbits	set	3988
   456  0000                     _RCSTAbits	set	4011
   457  0000                     _SPBRG	set	4015
   458  0000                     _SPBRGH	set	4016
   459  0000                     _BAUDCONbits	set	4024
   460  0000                     _TXSTAbits	set	4012
   461  0000                     _TXREG	set	4013
   462                           
   463                           ; #config settings
   464  0000                     
   465                           	psect	cinit
   466  0002F6                     __pcinit:
   467                           	opt callstack 0
   468  0002F6                     start_initialization:
   469                           	opt callstack 0
   470  0002F6                     __initialization:
   471                           	opt callstack 0
   472                           
   473                           ; Initialize objects allocated to BANK1 (131 bytes)
   474                           ; load TBLPTR registers with __pidataBANK1
   475  0002F6  0E73               	movlw	low __pidataBANK1
   476  0002F8  6EF6               	movwf	tblptrl,c
   477  0002FA  0E02               	movlw	high __pidataBANK1
   478  0002FC  6EF7               	movwf	tblptrh,c
   479  0002FE  0E00               	movlw	low (__pidataBANK1 shr (0+16))
   480  000300  6EF8               	movwf	tblptru,c
   481  000302  EE01  F000         	lfsr	0,__pdataBANK1
   482  000306  EE10 F083          	lfsr	1,131
   483  00030A                     copy_data0:
   484  00030A  0009               	tblrd		*+
   485  00030C  CFF5 FFEE          	movff	tablat,postinc0
   486  000310  50E5               	movf	postdec1,w,c
   487  000312  50E1               	movf	fsr1l,w,c
   488  000314  E1FA               	bnz	copy_data0
   489                           
   490                           ; Initialize objects allocated to BANK0 (147 bytes)
   491                           ; load TBLPTR registers with __pidataBANK0
   492  000316  0EE0               	movlw	low __pidataBANK0
   493  000318  6EF6               	movwf	tblptrl,c
   494  00031A  0E01               	movlw	high __pidataBANK0
   495  00031C  6EF7               	movwf	tblptrh,c
   496  00031E  0E00               	movlw	low (__pidataBANK0 shr (0+16))
   497  000320  6EF8               	movwf	tblptru,c
   498  000322  EE00  F060         	lfsr	0,__pdataBANK0
   499  000326  EE10 F093          	lfsr	1,147
   500  00032A                     copy_data1:
   501  00032A  0009               	tblrd		*+
   502  00032C  CFF5 FFEE          	movff	tablat,postinc0
   503  000330  50E5               	movf	postdec1,w,c
   504  000332  50E1               	movf	fsr1l,w,c
   505  000334  E1FA               	bnz	copy_data1
   506                           
   507                           ; Initialize objects allocated to COMRAM (63 bytes)
   508                           ; load TBLPTR registers with __pidataCOMRAM
   509  000336  0E64               	movlw	low __pidataCOMRAM
   510  000338  6EF6               	movwf	tblptrl,c
   511  00033A  0E03               	movlw	high __pidataCOMRAM
   512  00033C  6EF7               	movwf	tblptrh,c
   513  00033E  0E00               	movlw	low (__pidataCOMRAM shr (0+16))
   514  000340  6EF8               	movwf	tblptru,c
   515  000342  EE00  F001         	lfsr	0,__pdataCOMRAM
   516  000346  EE10 F03F          	lfsr	1,63
   517  00034A                     copy_data2:
   518  00034A  0009               	tblrd		*+
   519  00034C  CFF5 FFEE          	movff	tablat,postinc0
   520  000350  50E5               	movf	postdec1,w,c
   521  000352  50E1               	movf	fsr1l,w,c
   522  000354  E1FA               	bnz	copy_data2
   523  000356                     end_of_initialization:
   524                           	opt callstack 0
   525  000356                     __end_of__initialization:
   526                           	opt callstack 0
   527  000356  9052               	bcf	int$flags,0,c	;clear compiler interrupt flag (level 1)
   528  000358  9252               	bcf	int$flags,1,c	;clear compiler interrupt flag (level 2)
   529  00035A  0E00               	movlw	low (__Lmediumconst shr (0+16))
   530  00035C  6EF8               	movwf	tblptru,c
   531  00035E  0100               	movlb	0
   532  000360  EFF0  F001         	goto	_main	;jump to C main() function
   533                           
   534                           	psect	dataCOMRAM
   535  000001                     __pdataCOMRAM:
   536                           	opt callstack 0
   537  000001                     _menu3:
   538                           	opt callstack 0
   539  000001                     	ds	21
   540  000016                     _menu2:
   541                           	opt callstack 0
   542  000016                     	ds	21
   543  00002B                     _menu1:
   544                           	opt callstack 0
   545  00002B                     	ds	21
   546                           
   547                           	psect	dataBANK0
   548  000060                     __pdataBANK0:
   549                           	opt callstack 0
   550  000060                     _led_on:
   551                           	opt callstack 0
   552  000060                     	ds	21
   553  000075                     _autor:
   554                           	opt callstack 0
   555  000075                     	ds	21
   556  00008A                     _menu8:
   557                           	opt callstack 0
   558  00008A                     	ds	21
   559  00009F                     _menu7:
   560                           	opt callstack 0
   561  00009F                     	ds	21
   562  0000B4                     _menu6:
   563                           	opt callstack 0
   564  0000B4                     	ds	21
   565  0000C9                     _menu5:
   566                           	opt callstack 0
   567  0000C9                     	ds	21
   568  0000DE                     _menu4:
   569                           	opt callstack 0
   570  0000DE                     	ds	21
   571                           
   572                           	psect	dataBANK1
   573  000100                     __pdataBANK1:
   574                           	opt callstack 0
   575  000100                     _cadena:
   576                           	opt callstack 0
   577  000100                     	ds	26
   578  00011A                     _error:
   579                           	opt callstack 0
   580  00011A                     	ds	21
   581  00012F                     _boton_off:
   582                           	opt callstack 0
   583  00012F                     	ds	21
   584  000144                     _boton_on:
   585                           	opt callstack 0
   586  000144                     	ds	21
   587  000159                     _led_parpadeo:
   588                           	opt callstack 0
   589  000159                     	ds	21
   590  00016E                     _led_off:
   591                           	opt callstack 0
   592  00016E                     	ds	21
   593                           
   594                           	psect	cstackCOMRAM
   595  000040                     __pcstackCOMRAM:
   596                           	opt callstack 0
   597  000040                     ??_parpadeo:
   598  000040                     i2send_string@vector:
   599                           	opt callstack 0
   600                           
   601                           ; 2 bytes @ 0x0
   602  000040                     	ds	2
   603  000042                     i2send_string@numero:
   604                           	opt callstack 0
   605                           
   606                           ; 2 bytes @ 0x2
   607  000042                     	ds	2
   608  000044                     ??i2_send_string:
   609                           
   610                           ; 1 bytes @ 0x4
   611  000044                     	ds	2
   612  000046                     i2send_string@i:
   613                           	opt callstack 0
   614                           
   615                           ; 1 bytes @ 0x6
   616  000046                     	ds	1
   617  000047                     ??_RCIsr:
   618                           
   619                           ; 1 bytes @ 0x7
   620  000047                     	ds	4
   621  00004B                     send_char@letrita:
   622                           	opt callstack 0
   623  00004B                     send_string@vector:
   624                           	opt callstack 0
   625                           
   626                           ; 2 bytes @ 0xB
   627  00004B                     	ds	2
   628  00004D                     send_string@numero:
   629                           	opt callstack 0
   630                           
   631                           ; 2 bytes @ 0xD
   632  00004D                     	ds	2
   633  00004F                     ??_send_string:
   634                           
   635                           ; 1 bytes @ 0xF
   636  00004F                     	ds	2
   637  000051                     send_string@i:
   638                           	opt callstack 0
   639                           
   640                           ; 1 bytes @ 0x11
   641  000051                     	ds	1
   642  000052                     
   643                           ; 1 bytes @ 0x12
   644 ;;
   645 ;;Main: autosize = 0, tempsize = 0, incstack = 0, save=0
   646 ;;
   647 ;; *************** function _main *****************
   648 ;; Defined at:
   649 ;;		line 102 in file "maincode.c"
   650 ;; Parameters:    Size  Location     Type
   651 ;;		None
   652 ;; Auto vars:     Size  Location     Type
   653 ;;		None
   654 ;; Return value:  Size  Location     Type
   655 ;;                  1    wreg      void 
   656 ;; Registers used:
   657 ;;		wreg, fsr2l, fsr2h, status,2, status,0, cstack
   658 ;; Tracked objects:
   659 ;;		On entry : 0/0
   660 ;;		On exit  : 0/0
   661 ;;		Unchanged: 0/0
   662 ;; Data sizes:     COMRAM   BANK0   BANK1   BANK2   BANK3   BANK4   BANK5   BANK6   BANK7
   663 ;;      Params:         0       0       0       0       0       0       0       0       0
   664 ;;      Locals:         0       0       0       0       0       0       0       0       0
   665 ;;      Temps:          0       0       0       0       0       0       0       0       0
   666 ;;      Totals:         0       0       0       0       0       0       0       0       0
   667 ;;Total ram usage:        0 bytes
   668 ;; Hardware stack levels required when called:    4
   669 ;; This function calls:
   670 ;;		_send_char
   671 ;;		_send_newline
   672 ;;		_send_string
   673 ;;		_uc_config
   674 ;; This function is called by:
   675 ;;		Startup code after reset
   676 ;; This function uses a non-reentrant model
   677 ;;
   678                           
   679                           	psect	text0
   680  0003E0                     __ptext0:
   681                           	opt callstack 0
   682  0003E0                     _main:
   683                           	opt callstack 27
   684                           
   685                           ;maincode.c: 103:     uc_config();
   686                           
   687                           ;incstack = 0
   688  0003E0  EC3A  F002         	call	_uc_config	;wreg free
   689                           
   690                           ;maincode.c: 104:     send_char('U');
   691  0003E4  0E55               	movlw	85
   692  0003E6  EC5E  F002         	call	_send_char
   693                           
   694                           ;maincode.c: 105:     send_char('P');
   695  0003EA  0E50               	movlw	80
   696  0003EC  EC5E  F002         	call	_send_char
   697                           
   698                           ;maincode.c: 106:     send_char('C');
   699  0003F0  0E43               	movlw	67
   700  0003F2  EC5E  F002         	call	_send_char
   701                           
   702                           ;maincode.c: 107:     send_newline();
   703  0003F6  EC4C  F002         	call	_send_newline	;wreg free
   704                           
   705                           ;maincode.c: 108:     send_string(cadena,25);
   706  0003FA  0E00               	movlw	low _cadena
   707  0003FC  6E4B               	movwf	send_string@vector,c
   708  0003FE  0E01               	movlw	high _cadena
   709  000400  6E4C               	movwf	send_string@vector+1,c
   710  000402  0E00               	movlw	0
   711  000404  6E4E               	movwf	send_string@numero+1,c
   712  000406  0E19               	movlw	25
   713  000408  6E4D               	movwf	send_string@numero,c
   714  00040A  EC0A  F002         	call	_send_string	;wreg free
   715                           
   716                           ;maincode.c: 109:     send_newline();
   717  00040E  EC4C  F002         	call	_send_newline	;wreg free
   718  000412                     l105:
   719  000412  D7FF               	goto	l105
   720  000414                     __end_of_main:
   721                           	opt callstack 0
   722                           
   723 ;; *************** function _uc_config *****************
   724 ;; Defined at:
   725 ;;		line 56 in file "maincode.c"
   726 ;; Parameters:    Size  Location     Type
   727 ;;		None
   728 ;; Auto vars:     Size  Location     Type
   729 ;;		None
   730 ;; Return value:  Size  Location     Type
   731 ;;                  1    wreg      void 
   732 ;; Registers used:
   733 ;;		wreg, status,2
   734 ;; Tracked objects:
   735 ;;		On entry : 0/0
   736 ;;		On exit  : 0/0
   737 ;;		Unchanged: 0/0
   738 ;; Data sizes:     COMRAM   BANK0   BANK1   BANK2   BANK3   BANK4   BANK5   BANK6   BANK7
   739 ;;      Params:         0       0       0       0       0       0       0       0       0
   740 ;;      Locals:         0       0       0       0       0       0       0       0       0
   741 ;;      Temps:          0       0       0       0       0       0       0       0       0
   742 ;;      Totals:         0       0       0       0       0       0       0       0       0
   743 ;;Total ram usage:        0 bytes
   744 ;; Hardware stack levels used:    1
   745 ;; Hardware stack levels required when called:    3
   746 ;; This function calls:
   747 ;;		Nothing
   748 ;; This function is called by:
   749 ;;		_main
   750 ;; This function uses a non-reentrant model
   751 ;;
   752                           
   753                           	psect	text1
   754  000474                     __ptext1:
   755                           	opt callstack 0
   756  000474                     _uc_config:
   757                           	opt callstack 27
   758                           
   759                           ;maincode.c: 58:     BAUDCONbits.BRG16 = 0;
   760                           
   761                           ;incstack = 0
   762  000474  96B8               	bcf	4024,3,c	;volatile
   763                           
   764                           ;maincode.c: 59:     TXSTAbits.SYNC = 0;
   765  000476  98AC               	bcf	4012,4,c	;volatile
   766                           
   767                           ;maincode.c: 60:     TXSTAbits.BRGH = 0;
   768  000478  94AC               	bcf	4012,2,c	;volatile
   769                           
   770                           ;maincode.c: 61:     SPBRGH = 0;
   771  00047A  0E00               	movlw	0
   772  00047C  6EB0               	movwf	4016,c	;volatile
   773                           
   774                           ;maincode.c: 62:     SPBRG = 51;
   775  00047E  0E33               	movlw	51
   776  000480  6EAF               	movwf	4015,c	;volatile
   777                           
   778                           ;maincode.c: 63:     TXSTAbits.TXEN = 1;
   779  000482  8AAC               	bsf	4012,5,c	;volatile
   780                           
   781                           ;maincode.c: 64:     RCSTAbits.CREN = 1;
   782  000484  88AB               	bsf	4011,4,c	;volatile
   783                           
   784                           ;maincode.c: 65:     RCSTAbits.SPEN = 1;
   785  000486  8EAB               	bsf	4011,7,c	;volatile
   786                           
   787                           ;maincode.c: 66:     TRISCbits.RC6 = 0;
   788  000488  9C94               	bcf	3988,6,c	;volatile
   789                           
   790                           ;maincode.c: 67:     INTCONbits.GIE = 1;
   791  00048A  8EF2               	bsf	4082,7,c	;volatile
   792                           
   793                           ;maincode.c: 68:     INTCONbits.PEIE = 1;
   794  00048C  8CF2               	bsf	4082,6,c	;volatile
   795                           
   796                           ;maincode.c: 69:     PIE1bits.RC1IE = 1;
   797  00048E  8A9D               	bsf	3997,5,c	;volatile
   798                           
   799                           ;maincode.c: 70:     ADCON1 = 0x0F;
   800  000490  0E0F               	movlw	15
   801  000492  6EC1               	movwf	4033,c	;volatile
   802                           
   803                           ;maincode.c: 71:     TRISEbits.RE0 = 0;
   804  000494  9096               	bcf	3990,0,c	;volatile
   805  000496  0012               	return		;funcret
   806  000498                     __end_of_uc_config:
   807                           	opt callstack 0
   808                           
   809 ;; *************** function _send_string *****************
   810 ;; Defined at:
   811 ;;		line 37 in file "maincode.c"
   812 ;; Parameters:    Size  Location     Type
   813 ;;  vector          2   11[COMRAM] PTR const unsigned char 
   814 ;;		 -> error(21), autor(21), boton_off(21), boton_on(21), 
   815 ;;		 -> led_parpadeo(21), led_off(21), led_on(21), cadena(26), 
   816 ;;		 -> menu8(21), menu7(21), menu6(21), menu5(21), 
   817 ;;		 -> menu4(21), menu3(21), menu2(21), menu1(21), 
   818 ;;  numero          2   13[COMRAM] unsigned int 
   819 ;; Auto vars:     Size  Location     Type
   820 ;;  i               1   17[COMRAM] unsigned char 
   821 ;; Return value:  Size  Location     Type
   822 ;;                  1    wreg      void 
   823 ;; Registers used:
   824 ;;		wreg, fsr2l, fsr2h, status,2, status,0
   825 ;; Tracked objects:
   826 ;;		On entry : 0/0
   827 ;;		On exit  : 0/0
   828 ;;		Unchanged: 0/0
   829 ;; Data sizes:     COMRAM   BANK0   BANK1   BANK2   BANK3   BANK4   BANK5   BANK6   BANK7
   830 ;;      Params:         4       0       0       0       0       0       0       0       0
   831 ;;      Locals:         1       0       0       0       0       0       0       0       0
   832 ;;      Temps:          2       0       0       0       0       0       0       0       0
   833 ;;      Totals:         7       0       0       0       0       0       0       0       0
   834 ;;Total ram usage:        7 bytes
   835 ;; Hardware stack levels used:    1
   836 ;; Hardware stack levels required when called:    3
   837 ;; This function calls:
   838 ;;		Nothing
   839 ;; This function is called by:
   840 ;;		_main
   841 ;; This function uses a non-reentrant model
   842 ;;
   843                           
   844                           	psect	text2
   845  000414                     __ptext2:
   846                           	opt callstack 0
   847  000414                     _send_string:
   848                           	opt callstack 27
   849                           
   850                           ;maincode.c: 38:     for(unsigned char i=0;i<numero;i++){
   851                           
   852                           ;incstack = 0
   853  000414  0E00               	movlw	0
   854  000416  6E51               	movwf	send_string@i,c
   855  000418  D00B               	goto	l958
   856  00041A                     l954:
   857                           
   858                           ;maincode.c: 39:         TXREG = vector[i];
   859  00041A  5051               	movf	send_string@i,w,c
   860  00041C  244B               	addwf	send_string@vector,w,c
   861  00041E  6ED9               	movwf	fsr2l,c
   862  000420  0E00               	movlw	0
   863  000422  204C               	addwfc	send_string@vector+1,w,c
   864  000424  6EDA               	movwf	fsr2h,c
   865  000426  50DF               	movf	indf2,w,c
   866  000428  6EAD               	movwf	4013,c	;volatile
   867  00042A                     l69:
   868  00042A  A2AC               	btfss	4012,1,c	;volatile
   869  00042C  D7FE               	goto	l69
   870                           
   871                           ;maincode.c: 41:     }
   872  00042E  2A51               	incf	send_string@i,f,c
   873  000430                     l958:
   874  000430  5051               	movf	send_string@i,w,c
   875  000432  6E4F               	movwf	??_send_string& (0+255),c
   876  000434  6A50               	clrf	(??_send_string+1)& (0+255),c
   877  000436  504D               	movf	send_string@numero,w,c
   878  000438  5C4F               	subwf	??_send_string,w,c
   879  00043A  504E               	movf	send_string@numero+1,w,c
   880  00043C  5850               	subwfb	??_send_string+1,w,c
   881  00043E  B0D8               	btfsc	status,0,c
   882  000440  0012               	return	
   883  000442  D7EB               	goto	l954
   884  000444                     __end_of_send_string:
   885                           	opt callstack 0
   886                           
   887 ;; *************** function _send_newline *****************
   888 ;; Defined at:
   889 ;;		line 49 in file "maincode.c"
   890 ;; Parameters:    Size  Location     Type
   891 ;;		None
   892 ;; Auto vars:     Size  Location     Type
   893 ;;		None
   894 ;; Return value:  Size  Location     Type
   895 ;;                  1    wreg      void 
   896 ;; Registers used:
   897 ;;		wreg, status,2
   898 ;; Tracked objects:
   899 ;;		On entry : 0/0
   900 ;;		On exit  : 0/0
   901 ;;		Unchanged: 0/0
   902 ;; Data sizes:     COMRAM   BANK0   BANK1   BANK2   BANK3   BANK4   BANK5   BANK6   BANK7
   903 ;;      Params:         0       0       0       0       0       0       0       0       0
   904 ;;      Locals:         0       0       0       0       0       0       0       0       0
   905 ;;      Temps:          0       0       0       0       0       0       0       0       0
   906 ;;      Totals:         0       0       0       0       0       0       0       0       0
   907 ;;Total ram usage:        0 bytes
   908 ;; Hardware stack levels used:    1
   909 ;; Hardware stack levels required when called:    3
   910 ;; This function calls:
   911 ;;		Nothing
   912 ;; This function is called by:
   913 ;;		_main
   914 ;; This function uses a non-reentrant model
   915 ;;
   916                           
   917                           	psect	text3
   918  000498                     __ptext3:
   919                           	opt callstack 0
   920  000498                     _send_newline:
   921                           	opt callstack 27
   922                           
   923                           ;maincode.c: 50:     TXREG = 0x0A;
   924                           
   925                           ;incstack = 0
   926  000498  0E0A               	movlw	10
   927  00049A  6EAD               	movwf	4013,c	;volatile
   928  00049C                     l82:
   929  00049C  A2AC               	btfss	4012,1,c	;volatile
   930  00049E  D7FE               	goto	l82
   931                           
   932                           ;maincode.c: 52:     TXREG = 0x0D;
   933  0004A0  0E0D               	movlw	13
   934  0004A2  6EAD               	movwf	4013,c	;volatile
   935  0004A4                     l85:
   936  0004A4  B2AC               	btfsc	4012,1,c	;volatile
   937  0004A6  0012               	return	
   938  0004A8  D7FD               	goto	l85
   939  0004AA                     __end_of_send_newline:
   940                           	opt callstack 0
   941                           
   942 ;; *************** function _send_char *****************
   943 ;; Defined at:
   944 ;;		line 44 in file "maincode.c"
   945 ;; Parameters:    Size  Location     Type
   946 ;;  letrita         1    wreg     unsigned char 
   947 ;; Auto vars:     Size  Location     Type
   948 ;;  letrita         1   11[COMRAM] unsigned char 
   949 ;; Return value:  Size  Location     Type
   950 ;;                  1    wreg      void 
   951 ;; Registers used:
   952 ;;		wreg
   953 ;; Tracked objects:
   954 ;;		On entry : 0/0
   955 ;;		On exit  : 0/0
   956 ;;		Unchanged: 0/0
   957 ;; Data sizes:     COMRAM   BANK0   BANK1   BANK2   BANK3   BANK4   BANK5   BANK6   BANK7
   958 ;;      Params:         0       0       0       0       0       0       0       0       0
   959 ;;      Locals:         1       0       0       0       0       0       0       0       0
   960 ;;      Temps:          0       0       0       0       0       0       0       0       0
   961 ;;      Totals:         1       0       0       0       0       0       0       0       0
   962 ;;Total ram usage:        1 bytes
   963 ;; Hardware stack levels used:    1
   964 ;; Hardware stack levels required when called:    3
   965 ;; This function calls:
   966 ;;		Nothing
   967 ;; This function is called by:
   968 ;;		_main
   969 ;; This function uses a non-reentrant model
   970 ;;
   971                           
   972                           	psect	text4
   973  0004BC                     __ptext4:
   974                           	opt callstack 0
   975  0004BC                     _send_char:
   976                           	opt callstack 27
   977                           
   978                           ;incstack = 0
   979                           ;send_char@letrita stored from wreg
   980  0004BC  6E4B               	movwf	send_char@letrita,c
   981                           
   982                           ;maincode.c: 45:     TXREG = letrita;
   983  0004BE  C04B  FFAD         	movff	send_char@letrita,4013	;volatile
   984  0004C2                     l76:
   985  0004C2  B2AC               	btfsc	4012,1,c	;volatile
   986  0004C4  0012               	return	
   987  0004C6  D7FD               	goto	l76
   988  0004C8                     __end_of_send_char:
   989                           	opt callstack 0
   990                           
   991 ;; *************** function _RCIsr *****************
   992 ;; Defined at:
   993 ;;		line 113 in file "maincode.c"
   994 ;; Parameters:    Size  Location     Type
   995 ;;		None
   996 ;; Auto vars:     Size  Location     Type
   997 ;;		None
   998 ;; Return value:  Size  Location     Type
   999 ;;                  1    wreg      void 
  1000 ;; Registers used:
  1001 ;;		wreg, fsr2l, fsr2h, status,2, status,0, cstack
  1002 ;; Tracked objects:
  1003 ;;		On entry : 0/0
  1004 ;;		On exit  : 0/0
  1005 ;;		Unchanged: 0/0
  1006 ;; Data sizes:     COMRAM   BANK0   BANK1   BANK2   BANK3   BANK4   BANK5   BANK6   BANK7
  1007 ;;      Params:         0       0       0       0       0       0       0       0       0
  1008 ;;      Locals:         0       0       0       0       0       0       0       0       0
  1009 ;;      Temps:          4       0       0       0       0       0       0       0       0
  1010 ;;      Totals:         4       0       0       0       0       0       0       0       0
  1011 ;;Total ram usage:        4 bytes
  1012 ;; Hardware stack levels used:    1
  1013 ;; Hardware stack levels required when called:    2
  1014 ;; This function calls:
  1015 ;;		_parpadeo
  1016 ;;		_show_menu
  1017 ;;		i2_send_newline
  1018 ;;		i2_send_string
  1019 ;; This function is called by:
  1020 ;;		Interrupt level 2
  1021 ;; This function uses a non-reentrant model
  1022 ;;
  1023                           
  1024                           	psect	intcode
  1025  000008                     __pintcode:
  1026                           	opt callstack 0
  1027  000008                     _RCIsr:
  1028                           	opt callstack 27
  1029                           
  1030                           ;incstack = 0
  1031  000008  8252               	bsf	btemp,1,c	;set compiler interrupt flag (level 2)
  1032  00000A  ED09  F000         	call	int_func,f	;refresh shadow registers
  1033                           
  1034                           	psect	intcode_body
  1035  000012                     __pintcode_body:
  1036                           	opt callstack 27
  1037  000012                     int_func:
  1038                           	opt callstack 27
  1039  000012  0006               	pop		; remove dummy address from shadow register refresh
  1040  000014  CFD9 F049          	movff	fsr2l,??_RCIsr+2
  1041  000018  CFDA F04A          	movff	fsr2h,??_RCIsr+3
  1042                           
  1043                           ;maincode.c: 114:     PIR1bits.RC1IF = 0;
  1044  00001C  9A9E               	bcf	3998,5,c	;volatile
  1045                           
  1046                           ;maincode.c: 115:     switch(RCREG){
  1047  00001E  D05E               	goto	i2l1070
  1048  000020                     i2l1032:
  1049                           
  1050                           ;maincode.c: 117:             send_string(led_on,20);
  1051  000020  0E60               	movlw	low _led_on
  1052  000022  6E40               	movwf	i2send_string@vector,c
  1053  000024  0E00               	movlw	high _led_on
  1054  000026  6E41               	movwf	i2send_string@vector+1,c
  1055  000028  0E00               	movlw	0
  1056  00002A  6E43               	movwf	i2send_string@numero+1,c
  1057  00002C  0E14               	movlw	20
  1058  00002E  6E42               	movwf	i2send_string@numero,c
  1059  000030  EC22  F002         	call	i2_send_string	;wreg free
  1060                           
  1061                           ;maincode.c: 118:             send_newline();
  1062  000034  EC55  F002         	call	i2_send_newline	;wreg free
  1063                           
  1064                           ;maincode.c: 119:             LATEbits.LE0 = 1;
  1065  000038  808D               	bsf	3981,0,c	;volatile
  1066                           
  1067                           ;maincode.c: 120:             break;
  1068  00003A  D06B               	goto	i2l124
  1069  00003C                     i2l1038:
  1070                           
  1071                           ;maincode.c: 122:             send_string(led_off,20);
  1072  00003C  0E6E               	movlw	low _led_off
  1073  00003E  6E40               	movwf	i2send_string@vector,c
  1074  000040  0E01               	movlw	high _led_off
  1075  000042  6E41               	movwf	i2send_string@vector+1,c
  1076  000044  0E00               	movlw	0
  1077  000046  6E43               	movwf	i2send_string@numero+1,c
  1078  000048  0E14               	movlw	20
  1079  00004A  6E42               	movwf	i2send_string@numero,c
  1080  00004C  EC22  F002         	call	i2_send_string	;wreg free
  1081                           
  1082                           ;maincode.c: 123:             send_newline();
  1083  000050  EC55  F002         	call	i2_send_newline	;wreg free
  1084                           
  1085                           ;maincode.c: 124:             LATEbits.LE0 = 0;
  1086  000054  908D               	bcf	3981,0,c	;volatile
  1087                           
  1088                           ;maincode.c: 125:             break;
  1089  000056  D05D               	goto	i2l124
  1090  000058                     i2l1044:
  1091                           
  1092                           ;maincode.c: 127:             send_string(led_parpadeo,20);
  1093  000058  0E59               	movlw	low _led_parpadeo
  1094  00005A  6E40               	movwf	i2send_string@vector,c
  1095  00005C  0E01               	movlw	high _led_parpadeo
  1096  00005E  6E41               	movwf	i2send_string@vector+1,c
  1097  000060  0E00               	movlw	0
  1098  000062  6E43               	movwf	i2send_string@numero+1,c
  1099  000064  0E14               	movlw	20
  1100  000066  6E42               	movwf	i2send_string@numero,c
  1101  000068  EC22  F002         	call	i2_send_string	;wreg free
  1102                           
  1103                           ;maincode.c: 128:             send_newline();
  1104  00006C  EC55  F002         	call	i2_send_newline	;wreg free
  1105                           
  1106                           ;maincode.c: 129:             parpadeo();
  1107  000070  ECD2  F001         	call	_parpadeo	;wreg free
  1108                           
  1109                           ;maincode.c: 130:             break;
  1110  000074  D04E               	goto	i2l124
  1111  000076                     i2l118:
  1112                           
  1113                           ;maincode.c: 132:             if(PORTBbits.RB0 == 1){
  1114  000076  A081               	btfss	3969,0,c	;volatile
  1115  000078  D00D               	goto	i2l1054
  1116                           
  1117                           ;maincode.c: 133:                 send_string(boton_on,20);
  1118  00007A  0E44               	movlw	low _boton_on
  1119  00007C  6E40               	movwf	i2send_string@vector,c
  1120  00007E  0E01               	movlw	high _boton_on
  1121  000080  6E41               	movwf	i2send_string@vector+1,c
  1122  000082  0E00               	movlw	0
  1123  000084  6E43               	movwf	i2send_string@numero+1,c
  1124  000086  0E14               	movlw	20
  1125  000088  6E42               	movwf	i2send_string@numero,c
  1126  00008A  EC22  F002         	call	i2_send_string	;wreg free
  1127  00008E                     i2l1052:
  1128                           
  1129                           ;maincode.c: 134:                 send_newline();
  1130  00008E  EC55  F002         	call	i2_send_newline	;wreg free
  1131                           
  1132                           ;maincode.c: 135:             }
  1133  000092  D03F               	goto	i2l124
  1134  000094                     i2l1054:
  1135                           
  1136                           ;maincode.c: 137:                 send_string(boton_off,20);
  1137  000094  0E2F               	movlw	low _boton_off
  1138  000096  6E40               	movwf	i2send_string@vector,c
  1139  000098  0E01               	movlw	high _boton_off
  1140  00009A  6E41               	movwf	i2send_string@vector+1,c
  1141  00009C  0E00               	movlw	0
  1142  00009E  6E43               	movwf	i2send_string@numero+1,c
  1143  0000A0  0E14               	movlw	20
  1144  0000A2  6E42               	movwf	i2send_string@numero,c
  1145  0000A4  EC22  F002         	call	i2_send_string	;wreg free
  1146  0000A8  D7F2               	goto	i2l1052
  1147  0000AA                     i2l1058:
  1148                           
  1149                           ;maincode.c: 142:             send_string(autor,20);
  1150  0000AA  0E75               	movlw	low _autor
  1151  0000AC  6E40               	movwf	i2send_string@vector,c
  1152  0000AE  0E00               	movlw	high _autor
  1153  0000B0  6E41               	movwf	i2send_string@vector+1,c
  1154  0000B2  0E00               	movlw	0
  1155  0000B4  6E43               	movwf	i2send_string@numero+1,c
  1156  0000B6  0E14               	movlw	20
  1157  0000B8  6E42               	movwf	i2send_string@numero,c
  1158  0000BA  EC22  F002         	call	i2_send_string	;wreg free
  1159  0000BE  D7E7               	goto	i2l1052
  1160  0000C0                     i2l1062:
  1161                           
  1162                           ;maincode.c: 146:             show_menu();
  1163  0000C0  EC8F  F000         	call	_show_menu	;wreg free
  1164  0000C4  D7E4               	goto	i2l1052
  1165  0000C6                     i2l1066:
  1166                           
  1167                           ;maincode.c: 150:             send_string(error,20);
  1168  0000C6  0E1A               	movlw	low _error
  1169  0000C8  6E40               	movwf	i2send_string@vector,c
  1170  0000CA  0E01               	movlw	high _error
  1171  0000CC  6E41               	movwf	i2send_string@vector+1,c
  1172  0000CE  0E00               	movlw	0
  1173  0000D0  6E43               	movwf	i2send_string@numero+1,c
  1174  0000D2  0E14               	movlw	20
  1175  0000D4  6E42               	movwf	i2send_string@numero,c
  1176  0000D6  EC22  F002         	call	i2_send_string	;wreg free
  1177  0000DA  D7D9               	goto	i2l1052
  1178  0000DC                     i2l1070:
  1179  0000DC  50AE               	movf	4014,w,c	;volatile
  1180  0000DE  6E47               	movwf	??_RCIsr& (0+255),c
  1181  0000E0  6A48               	clrf	(??_RCIsr+1)& (0+255),c
  1182                           
  1183                           ; Switch on 2 bytes has been partitioned into a top level switch of size 1, and 1 sub-sw
      +                          itches
  1184                           ; Switch size 1, requested type "simple"
  1185                           ; Number of cases is 1, Range of values is 0 to 0
  1186                           ; switch strategies available:
  1187                           ; Name         Instructions Cycles
  1188                           ; simple_byte            4     3 (average)
  1189                           ;	Chosen strategy is simple_byte
  1190  0000E2  5048               	movf	??_RCIsr+1,w,c
  1191  0000E4  0A00               	xorlw	0	; case 0
  1192  0000E6  A4D8               	btfss	status,2,c
  1193  0000E8  D7EE               	goto	i2l1066
  1194                           
  1195                           ; Switch size 1, requested type "simple"
  1196                           ; Number of cases is 6, Range of values is 49 to 109
  1197                           ; switch strategies available:
  1198                           ; Name         Instructions Cycles
  1199                           ; simple_byte           19    10 (average)
  1200                           ;	Chosen strategy is simple_byte
  1201  0000EA  5047               	movf	??_RCIsr,w,c
  1202  0000EC  0A31               	xorlw	49	; case 49
  1203  0000EE  B4D8               	btfsc	status,2,c
  1204  0000F0  D797               	goto	i2l1032
  1205  0000F2  0A03               	xorlw	3	; case 50
  1206  0000F4  B4D8               	btfsc	status,2,c
  1207  0000F6  D7A2               	goto	i2l1038
  1208  0000F8  0A01               	xorlw	1	; case 51
  1209  0000FA  B4D8               	btfsc	status,2,c
  1210  0000FC  D7AD               	goto	i2l1044
  1211  0000FE  0A07               	xorlw	7	; case 52
  1212  000100  B4D8               	btfsc	status,2,c
  1213  000102  D7B9               	goto	i2l118
  1214  000104  0A01               	xorlw	1	; case 53
  1215  000106  B4D8               	btfsc	status,2,c
  1216  000108  D7D0               	goto	i2l1058
  1217  00010A  0A58               	xorlw	88	; case 109
  1218  00010C  B4D8               	btfsc	status,2,c
  1219  00010E  D7D8               	goto	i2l1062
  1220  000110  D7DA               	goto	i2l1066
  1221  000112                     i2l124:
  1222  000112  C04A  FFDA         	movff	??_RCIsr+3,fsr2h
  1223  000116  C049  FFD9         	movff	??_RCIsr+2,fsr2l
  1224  00011A  9252               	bcf	btemp,1,c	;clear compiler interrupt flag (level 2)
  1225  00011C  0011               	retfie		f
  1226  00011E                     __end_of_RCIsr:
  1227                           	opt callstack 0
  1228                           
  1229 ;; *************** function _show_menu *****************
  1230 ;; Defined at:
  1231 ;;		line 74 in file "maincode.c"
  1232 ;; Parameters:    Size  Location     Type
  1233 ;;		None
  1234 ;; Auto vars:     Size  Location     Type
  1235 ;;		None
  1236 ;; Return value:  Size  Location     Type
  1237 ;;                  1    wreg      void 
  1238 ;; Registers used:
  1239 ;;		wreg, fsr2l, fsr2h, status,2, status,0, cstack
  1240 ;; Tracked objects:
  1241 ;;		On entry : 0/0
  1242 ;;		On exit  : 0/0
  1243 ;;		Unchanged: 0/0
  1244 ;; Data sizes:     COMRAM   BANK0   BANK1   BANK2   BANK3   BANK4   BANK5   BANK6   BANK7
  1245 ;;      Params:         0       0       0       0       0       0       0       0       0
  1246 ;;      Locals:         0       0       0       0       0       0       0       0       0
  1247 ;;      Temps:          0       0       0       0       0       0       0       0       0
  1248 ;;      Totals:         0       0       0       0       0       0       0       0       0
  1249 ;;Total ram usage:        0 bytes
  1250 ;; Hardware stack levels used:    1
  1251 ;; Hardware stack levels required when called:    1
  1252 ;; This function calls:
  1253 ;;		i2_send_newline
  1254 ;;		i2_send_string
  1255 ;; This function is called by:
  1256 ;;		_RCIsr
  1257 ;; This function uses a non-reentrant model
  1258 ;;
  1259                           
  1260                           	psect	text6
  1261  00011E                     __ptext6:
  1262                           	opt callstack 0
  1263  00011E                     _show_menu:
  1264                           	opt callstack 27
  1265                           
  1266                           ;maincode.c: 75:     send_string(menu1,20);
  1267                           
  1268                           ;incstack = 0
  1269  00011E  0E2B               	movlw	low _menu1
  1270  000120  6E40               	movwf	i2send_string@vector,c
  1271  000122  0E00               	movlw	high _menu1
  1272  000124  6E41               	movwf	i2send_string@vector+1,c
  1273  000126  0E00               	movlw	0
  1274  000128  6E43               	movwf	i2send_string@numero+1,c
  1275  00012A  0E14               	movlw	20
  1276  00012C  6E42               	movwf	i2send_string@numero,c
  1277  00012E  EC22  F002         	call	i2_send_string	;wreg free
  1278                           
  1279                           ;maincode.c: 76:     send_newline();
  1280  000132  EC55  F002         	call	i2_send_newline	;wreg free
  1281                           
  1282                           ;maincode.c: 77:     send_string(menu2,20);
  1283  000136  0E16               	movlw	low _menu2
  1284  000138  6E40               	movwf	i2send_string@vector,c
  1285  00013A  0E00               	movlw	high _menu2
  1286  00013C  6E41               	movwf	i2send_string@vector+1,c
  1287  00013E  0E00               	movlw	0
  1288  000140  6E43               	movwf	i2send_string@numero+1,c
  1289  000142  0E14               	movlw	20
  1290  000144  6E42               	movwf	i2send_string@numero,c
  1291  000146  EC22  F002         	call	i2_send_string	;wreg free
  1292                           
  1293                           ;maincode.c: 78:     send_newline();
  1294  00014A  EC55  F002         	call	i2_send_newline	;wreg free
  1295                           
  1296                           ;maincode.c: 79:     send_string(menu3,20);
  1297  00014E  0E01               	movlw	low _menu3
  1298  000150  6E40               	movwf	i2send_string@vector,c
  1299  000152  0E00               	movlw	high _menu3
  1300  000154  6E41               	movwf	i2send_string@vector+1,c
  1301  000156  0E00               	movlw	0
  1302  000158  6E43               	movwf	i2send_string@numero+1,c
  1303  00015A  0E14               	movlw	20
  1304  00015C  6E42               	movwf	i2send_string@numero,c
  1305  00015E  EC22  F002         	call	i2_send_string	;wreg free
  1306                           
  1307                           ;maincode.c: 80:     send_newline();
  1308  000162  EC55  F002         	call	i2_send_newline	;wreg free
  1309                           
  1310                           ;maincode.c: 81:     send_string(menu4,20);
  1311  000166  0EDE               	movlw	low _menu4
  1312  000168  6E40               	movwf	i2send_string@vector,c
  1313  00016A  0E00               	movlw	high _menu4
  1314  00016C  6E41               	movwf	i2send_string@vector+1,c
  1315  00016E  0E00               	movlw	0
  1316  000170  6E43               	movwf	i2send_string@numero+1,c
  1317  000172  0E14               	movlw	20
  1318  000174  6E42               	movwf	i2send_string@numero,c
  1319  000176  EC22  F002         	call	i2_send_string	;wreg free
  1320                           
  1321                           ;maincode.c: 82:     send_newline();
  1322  00017A  EC55  F002         	call	i2_send_newline	;wreg free
  1323                           
  1324                           ;maincode.c: 83:     send_string(menu5,20);
  1325  00017E  0EC9               	movlw	low _menu5
  1326  000180  6E40               	movwf	i2send_string@vector,c
  1327  000182  0E00               	movlw	high _menu5
  1328  000184  6E41               	movwf	i2send_string@vector+1,c
  1329  000186  0E00               	movlw	0
  1330  000188  6E43               	movwf	i2send_string@numero+1,c
  1331  00018A  0E14               	movlw	20
  1332  00018C  6E42               	movwf	i2send_string@numero,c
  1333  00018E  EC22  F002         	call	i2_send_string	;wreg free
  1334                           
  1335                           ;maincode.c: 84:     send_newline();
  1336  000192  EC55  F002         	call	i2_send_newline	;wreg free
  1337                           
  1338                           ;maincode.c: 85:     send_string(menu6,20);
  1339  000196  0EB4               	movlw	low _menu6
  1340  000198  6E40               	movwf	i2send_string@vector,c
  1341  00019A  0E00               	movlw	high _menu6
  1342  00019C  6E41               	movwf	i2send_string@vector+1,c
  1343  00019E  0E00               	movlw	0
  1344  0001A0  6E43               	movwf	i2send_string@numero+1,c
  1345  0001A2  0E14               	movlw	20
  1346  0001A4  6E42               	movwf	i2send_string@numero,c
  1347  0001A6  EC22  F002         	call	i2_send_string	;wreg free
  1348                           
  1349                           ;maincode.c: 86:     send_newline();
  1350  0001AA  EC55  F002         	call	i2_send_newline	;wreg free
  1351                           
  1352                           ;maincode.c: 87:     send_string(menu7,20);
  1353  0001AE  0E9F               	movlw	low _menu7
  1354  0001B0  6E40               	movwf	i2send_string@vector,c
  1355  0001B2  0E00               	movlw	high _menu7
  1356  0001B4  6E41               	movwf	i2send_string@vector+1,c
  1357  0001B6  0E00               	movlw	0
  1358  0001B8  6E43               	movwf	i2send_string@numero+1,c
  1359  0001BA  0E14               	movlw	20
  1360  0001BC  6E42               	movwf	i2send_string@numero,c
  1361  0001BE  EC22  F002         	call	i2_send_string	;wreg free
  1362                           
  1363                           ;maincode.c: 88:     send_newline();
  1364  0001C2  EC55  F002         	call	i2_send_newline	;wreg free
  1365                           
  1366                           ;maincode.c: 89:     send_string(menu8,20);
  1367  0001C6  0E8A               	movlw	low _menu8
  1368  0001C8  6E40               	movwf	i2send_string@vector,c
  1369  0001CA  0E00               	movlw	high _menu8
  1370  0001CC  6E41               	movwf	i2send_string@vector+1,c
  1371  0001CE  0E00               	movlw	0
  1372  0001D0  6E43               	movwf	i2send_string@numero+1,c
  1373  0001D2  0E14               	movlw	20
  1374  0001D4  6E42               	movwf	i2send_string@numero,c
  1375  0001D6  EC22  F002         	call	i2_send_string	;wreg free
  1376                           
  1377                           ;maincode.c: 90:     send_newline();
  1378  0001DA  EC55  F002         	call	i2_send_newline	;wreg free
  1379  0001DE  0012               	return		;funcret
  1380  0001E0                     __end_of_show_menu:
  1381                           	opt callstack 0
  1382                           
  1383 ;; *************** function i2_send_string *****************
  1384 ;; Defined at:
  1385 ;;		line 37 in file "maincode.c"
  1386 ;; Parameters:    Size  Location     Type
  1387 ;;  vector          2    0[COMRAM] PTR const unsigned char 
  1388 ;;		 -> error(21), autor(21), boton_off(21), boton_on(21), 
  1389 ;;		 -> led_parpadeo(21), led_off(21), led_on(21), cadena(26), 
  1390 ;;		 -> menu8(21), menu7(21), menu6(21), menu5(21), 
  1391 ;;		 -> menu4(21), menu3(21), menu2(21), menu1(21), 
  1392 ;;  numero          2    2[COMRAM] unsigned int 
  1393 ;; Auto vars:     Size  Location     Type
  1394 ;;  send_string     1    6[COMRAM] unsigned char 
  1395 ;; Return value:  Size  Location     Type
  1396 ;;                  1    wreg      void 
  1397 ;; Registers used:
  1398 ;;		wreg, fsr2l, fsr2h, status,2, status,0
  1399 ;; Tracked objects:
  1400 ;;		On entry : 0/0
  1401 ;;		On exit  : 0/0
  1402 ;;		Unchanged: 0/0
  1403 ;; Data sizes:     COMRAM   BANK0   BANK1   BANK2   BANK3   BANK4   BANK5   BANK6   BANK7
  1404 ;;      Params:         4       0       0       0       0       0       0       0       0
  1405 ;;      Locals:         1       0       0       0       0       0       0       0       0
  1406 ;;      Temps:          2       0       0       0       0       0       0       0       0
  1407 ;;      Totals:         7       0       0       0       0       0       0       0       0
  1408 ;;Total ram usage:        7 bytes
  1409 ;; Hardware stack levels used:    1
  1410 ;; This function calls:
  1411 ;;		Nothing
  1412 ;; This function is called by:
  1413 ;;		_show_menu
  1414 ;;		_RCIsr
  1415 ;; This function uses a non-reentrant model
  1416 ;;
  1417                           
  1418                           	psect	text7
  1419  000444                     __ptext7:
  1420                           	opt callstack 0
  1421  000444                     i2_send_string:
  1422                           	opt callstack 28
  1423                           
  1424                           ;maincode.c: 38:     for(unsigned char i=0;i<numero;i++){
  1425                           
  1426                           ;incstack = 0
  1427  000444  0E00               	movlw	0
  1428  000446  6E46               	movwf	i2send_string@i,c
  1429  000448  D00B               	goto	i2l946
  1430  00044A                     i2l942:
  1431                           
  1432                           ;maincode.c: 39:         TXREG = vector[i];
  1433  00044A  5046               	movf	i2send_string@i,w,c
  1434  00044C  2440               	addwf	i2send_string@vector,w,c
  1435  00044E  6ED9               	movwf	fsr2l,c
  1436  000450  0E00               	movlw	0
  1437  000452  2041               	addwfc	i2send_string@vector+1,w,c
  1438  000454  6EDA               	movwf	fsr2h,c
  1439  000456  50DF               	movf	indf2,w,c
  1440  000458  6EAD               	movwf	4013,c	;volatile
  1441  00045A                     i2l69:
  1442  00045A  A2AC               	btfss	4012,1,c	;volatile
  1443  00045C  D7FE               	goto	i2l69
  1444                           
  1445                           ;maincode.c: 41:     }
  1446  00045E  2A46               	incf	i2send_string@i,f,c
  1447  000460                     i2l946:
  1448  000460  5046               	movf	i2send_string@i,w,c
  1449  000462  6E44               	movwf	??i2_send_string& (0+255),c
  1450  000464  6A45               	clrf	(??i2_send_string+1)& (0+255),c
  1451  000466  5042               	movf	i2send_string@numero,w,c
  1452  000468  5C44               	subwf	??i2_send_string,w,c
  1453  00046A  5043               	movf	i2send_string@numero+1,w,c
  1454  00046C  5845               	subwfb	??i2_send_string+1,w,c
  1455  00046E  B0D8               	btfsc	status,0,c
  1456  000470  0012               	return	
  1457  000472  D7EB               	goto	i2l942
  1458  000474                     __end_ofi2_send_string:
  1459                           	opt callstack 0
  1460                           
  1461 ;; *************** function i2_send_newline *****************
  1462 ;; Defined at:
  1463 ;;		line 49 in file "maincode.c"
  1464 ;; Parameters:    Size  Location     Type
  1465 ;;		None
  1466 ;; Auto vars:     Size  Location     Type
  1467 ;;		None
  1468 ;; Return value:  Size  Location     Type
  1469 ;;                  1    wreg      void 
  1470 ;; Registers used:
  1471 ;;		wreg, status,2
  1472 ;; Tracked objects:
  1473 ;;		On entry : 0/0
  1474 ;;		On exit  : 0/0
  1475 ;;		Unchanged: 0/0
  1476 ;; Data sizes:     COMRAM   BANK0   BANK1   BANK2   BANK3   BANK4   BANK5   BANK6   BANK7
  1477 ;;      Params:         0       0       0       0       0       0       0       0       0
  1478 ;;      Locals:         0       0       0       0       0       0       0       0       0
  1479 ;;      Temps:          0       0       0       0       0       0       0       0       0
  1480 ;;      Totals:         0       0       0       0       0       0       0       0       0
  1481 ;;Total ram usage:        0 bytes
  1482 ;; Hardware stack levels used:    1
  1483 ;; This function calls:
  1484 ;;		Nothing
  1485 ;; This function is called by:
  1486 ;;		_show_menu
  1487 ;;		_RCIsr
  1488 ;; This function uses a non-reentrant model
  1489 ;;
  1490                           
  1491                           	psect	text8
  1492  0004AA                     __ptext8:
  1493                           	opt callstack 0
  1494  0004AA                     i2_send_newline:
  1495                           	opt callstack 28
  1496                           
  1497                           ;maincode.c: 50:     TXREG = 0x0A;
  1498                           
  1499                           ;incstack = 0
  1500  0004AA  0E0A               	movlw	10
  1501  0004AC  6EAD               	movwf	4013,c	;volatile
  1502  0004AE                     i2l82:
  1503  0004AE  A2AC               	btfss	4012,1,c	;volatile
  1504  0004B0  D7FE               	goto	i2l82
  1505                           
  1506                           ;maincode.c: 52:     TXREG = 0x0D;
  1507  0004B2  0E0D               	movlw	13
  1508  0004B4  6EAD               	movwf	4013,c	;volatile
  1509  0004B6                     i2l85:
  1510  0004B6  B2AC               	btfsc	4012,1,c	;volatile
  1511  0004B8  0012               	return	
  1512  0004BA  D7FD               	goto	i2l85
  1513  0004BC                     __end_ofi2_send_newline:
  1514                           	opt callstack 0
  1515                           
  1516 ;; *************** function _parpadeo *****************
  1517 ;; Defined at:
  1518 ;;		line 93 in file "maincode.c"
  1519 ;; Parameters:    Size  Location     Type
  1520 ;;		None
  1521 ;; Auto vars:     Size  Location     Type
  1522 ;;		None
  1523 ;; Return value:  Size  Location     Type
  1524 ;;                  1    wreg      void 
  1525 ;; Registers used:
  1526 ;;		wreg
  1527 ;; Tracked objects:
  1528 ;;		On entry : 0/0
  1529 ;;		On exit  : 0/0
  1530 ;;		Unchanged: 0/0
  1531 ;; Data sizes:     COMRAM   BANK0   BANK1   BANK2   BANK3   BANK4   BANK5   BANK6   BANK7
  1532 ;;      Params:         0       0       0       0       0       0       0       0       0
  1533 ;;      Locals:         0       0       0       0       0       0       0       0       0
  1534 ;;      Temps:          2       0       0       0       0       0       0       0       0
  1535 ;;      Totals:         2       0       0       0       0       0       0       0       0
  1536 ;;Total ram usage:        2 bytes
  1537 ;; Hardware stack levels used:    1
  1538 ;; This function calls:
  1539 ;;		Nothing
  1540 ;; This function is called by:
  1541 ;;		_RCIsr
  1542 ;; This function uses a non-reentrant model
  1543 ;;
  1544                           
  1545                           	psect	text9
  1546  0003A4                     __ptext9:
  1547                           	opt callstack 0
  1548  0003A4                     _parpadeo:
  1549                           	opt callstack 28
  1550                           
  1551                           ;maincode.c: 94:     while(PIR1bits.RC1IF == 0){
  1552                           
  1553                           ;incstack = 0
  1554  0003A4  D01A               	goto	i2l1014
  1555  0003A6                     i2l98:
  1556                           
  1557                           ;maincode.c: 95:         LATEbits.LE0 = 1;
  1558  0003A6  808D               	bsf	3981,0,c	;volatile
  1559                           
  1560                           ;maincode.c: 96:         _delay((unsigned long)((200)*(32000000UL/4000.0)));
  1561  0003A8  0E09               	movlw	9
  1562  0003AA  6E41               	movwf	(??_parpadeo+1)& (0+255),c
  1563  0003AC  0E1E               	movlw	30
  1564  0003AE  6E40               	movwf	??_parpadeo& (0+255),c
  1565  0003B0  0EE4               	movlw	228
  1566  0003B2                     i2u23_47:
  1567  0003B2  2EE8               	decfsz	wreg,f,c
  1568  0003B4  D7FE               	bra	i2u23_47
  1569  0003B6  2E40               	decfsz	??_parpadeo& (0+255),f,c
  1570  0003B8  D7FC               	bra	i2u23_47
  1571  0003BA  2E41               	decfsz	(??_parpadeo+1)& (0+255),f,c
  1572  0003BC  D7FA               	bra	i2u23_47
  1573  0003BE  D000               	nop2	
  1574                           
  1575                           ;maincode.c: 97:         LATEbits.LE0 = 0;
  1576  0003C0  908D               	bcf	3981,0,c	;volatile
  1577                           
  1578                           ;maincode.c: 98:         _delay((unsigned long)((200)*(32000000UL/4000.0)));
  1579  0003C2  0E09               	movlw	9
  1580  0003C4  6E41               	movwf	(??_parpadeo+1)& (0+255),c
  1581  0003C6  0E1E               	movlw	30
  1582  0003C8  6E40               	movwf	??_parpadeo& (0+255),c
  1583  0003CA  0EE4               	movlw	228
  1584  0003CC                     i2u24_47:
  1585  0003CC  2EE8               	decfsz	wreg,f,c
  1586  0003CE  D7FE               	bra	i2u24_47
  1587  0003D0  2E40               	decfsz	??_parpadeo& (0+255),f,c
  1588  0003D2  D7FC               	bra	i2u24_47
  1589  0003D4  2E41               	decfsz	(??_parpadeo+1)& (0+255),f,c
  1590  0003D6  D7FA               	bra	i2u24_47
  1591  0003D8  D000               	nop2	
  1592  0003DA                     i2l1014:
  1593                           
  1594                           ;maincode.c: 94:     while(PIR1bits.RC1IF == 0){
  1595  0003DA  BA9E               	btfsc	3998,5,c	;volatile
  1596  0003DC  0012               	return	
  1597  0003DE  D7E3               	goto	i2l98
  1598  0003E0                     __end_of_parpadeo:
  1599                           	opt callstack 0
  1600  0000                     
  1601                           	psect	rparam
  1602  0000                     
  1603                           	psect	temp
  1604  000052                     btemp:
  1605                           	opt callstack 0
  1606  000052                     	ds	1
  1607  0000                     int$flags	set	btemp
  1608  0000                     wtemp8	set	btemp+1
  1609  0000                     ttemp5	set	btemp+1
  1610  0000                     ttemp6	set	btemp+4
  1611  0000                     ttemp7	set	btemp+8
  1612                           tosu	equ	0xFFF
  1613                           tosh	equ	0xFFE
  1614                           tosl	equ	0xFFD
  1615                           stkptr	equ	0xFFC
  1616                           pclatu	equ	0xFFB
  1617                           pclath	equ	0xFFA
  1618                           pcl	equ	0xFF9
  1619                           tblptru	equ	0xFF8
  1620                           tblptrh	equ	0xFF7
  1621                           tblptrl	equ	0xFF6
  1622                           tablat	equ	0xFF5
  1623                           prodh	equ	0xFF4
  1624                           prodl	equ	0xFF3
  1625                           indf0	equ	0xFEF
  1626                           postinc0	equ	0xFEE
  1627                           postdec0	equ	0xFED
  1628                           preinc0	equ	0xFEC
  1629                           plusw0	equ	0xFEB
  1630                           fsr0h	equ	0xFEA
  1631                           fsr0l	equ	0xFE9
  1632                           wreg	equ	0xFE8
  1633                           indf1	equ	0xFE7
  1634                           postinc1	equ	0xFE6
  1635                           postdec1	equ	0xFE5
  1636                           preinc1	equ	0xFE4
  1637                           plusw1	equ	0xFE3
  1638                           fsr1h	equ	0xFE2
  1639                           fsr1l	equ	0xFE1
  1640                           bsr	equ	0xFE0
  1641                           indf2	equ	0xFDF
  1642                           postinc2	equ	0xFDE
  1643                           postdec2	equ	0xFDD
  1644                           preinc2	equ	0xFDC
  1645                           plusw2	equ	0xFDB
  1646                           fsr2h	equ	0xFDA
  1647                           fsr2l	equ	0xFD9
  1648                           status	equ	0xFD8


Data Sizes:
    Strings     0
    Constant    0
    Data        341
    BSS         0
    Persistent  0
    Stack       0

Auto Spaces:
    Space          Size  Autos    Used
    COMRAM           94     18      81
    BANK0           160      0     147
    BANK1           256      0     131
    BANK2           256      0       0
    BANK3           256      0       0
    BANK4           256      0       0
    BANK5           256      0       0
    BANK6           256      0       0
    BANK7           256      0       0

Pointer List with Targets:

    send_string@vector	PTR const unsigned char  size(2) Largest target is 26
		 -> error(BANK1[21]), autor(BANK0[21]), boton_off(BANK1[21]), boton_on(BANK1[21]), 
		 -> led_parpadeo(BANK1[21]), led_off(BANK1[21]), led_on(BANK0[21]), cadena(BANK1[26]), 
		 -> menu8(BANK0[21]), menu7(BANK0[21]), menu6(BANK0[21]), menu5(BANK0[21]), 
		 -> menu4(BANK0[21]), menu3(COMRAM[21]), menu2(COMRAM[21]), menu1(COMRAM[21]), 


Critical Paths under _main in COMRAM

    _main->_send_string

Critical Paths under _RCIsr in COMRAM

    _RCIsr->i2_send_string
    _show_menu->i2_send_string

Critical Paths under _main in BANK0

    None.

Critical Paths under _RCIsr in BANK0

    None.

Critical Paths under _main in BANK1

    None.

Critical Paths under _RCIsr in BANK1

    None.

Critical Paths under _main in BANK2

    None.

Critical Paths under _RCIsr in BANK2

    None.

Critical Paths under _main in BANK3

    None.

Critical Paths under _RCIsr in BANK3

    None.

Critical Paths under _main in BANK4

    None.

Critical Paths under _RCIsr in BANK4

    None.

Critical Paths under _main in BANK5

    None.

Critical Paths under _RCIsr in BANK5

    None.

Critical Paths under _main in BANK6

    None.

Critical Paths under _RCIsr in BANK6

    None.

Critical Paths under _main in BANK7

    None.

Critical Paths under _RCIsr in BANK7

    None.

Call Graph Tables:

 ---------------------------------------------------------------------------------
 (Depth) Function   	        Calls       Base Space   Used Autos Params    Refs
 ---------------------------------------------------------------------------------
 (0) _main                                                 0     0      0    1764
                          _send_char
                       _send_newline
                        _send_string
                          _uc_config
 ---------------------------------------------------------------------------------
 (1) _uc_config                                            0     0      0       0
 ---------------------------------------------------------------------------------
 (1) _send_string                                          7     3      4    1742
                                             11 COMRAM     7     3      4
 ---------------------------------------------------------------------------------
 (1) _send_newline                                         0     0      0       0
 ---------------------------------------------------------------------------------
 (1) _send_char                                            1     1      0      22
                                             11 COMRAM     1     1      0
 ---------------------------------------------------------------------------------
 Estimated maximum stack depth 1
 ---------------------------------------------------------------------------------
 (Depth) Function   	        Calls       Base Space   Used Autos Params    Refs
 ---------------------------------------------------------------------------------
 (2) _RCIsr                                                4     4      0    1740
                                              7 COMRAM     4     4      0
                           _parpadeo
                          _show_menu
                     i2_send_newline
                      i2_send_string
 ---------------------------------------------------------------------------------
 (3) _show_menu                                            0     0      0     870
                     i2_send_newline
                      i2_send_string
 ---------------------------------------------------------------------------------
 (3) i2_send_string                                        7     3      4     870
                                              0 COMRAM     7     3      4
 ---------------------------------------------------------------------------------
 (3) i2_send_newline                                       0     0      0       0
 ---------------------------------------------------------------------------------
 (3) _parpadeo                                             2     2      0       0
                                              0 COMRAM     2     2      0
 ---------------------------------------------------------------------------------
 Estimated maximum stack depth 3
 ---------------------------------------------------------------------------------

 Call Graph Graphs:

 _main (ROOT)
   _send_char
   _send_newline
   _send_string
   _uc_config

 _RCIsr (ROOT)
   _parpadeo
   _show_menu
     i2_send_newline
     i2_send_string
   i2_send_newline
   i2_send_string

 Address spaces:
Name               Size   Autos  Total    Cost      Usage
BIGRAM             7FF      0       0      21        0.0%
EEDATA             100      0       0       0        0.0%
BITBANK7           100      0       0      18        0.0%
BANK7              100      0       0      19        0.0%
BITBANK6           100      0       0      16        0.0%
BANK6              100      0       0      17        0.0%
BITBANK5           100      0       0      14        0.0%
BANK5              100      0       0      15        0.0%
BITBANK4           100      0       0      12        0.0%
BANK4              100      0       0      13        0.0%
BITBANK3           100      0       0      10        0.0%
BANK3              100      0       0      11        0.0%
BITBANK2           100      0       0       8        0.0%
BANK2              100      0       0       9        0.0%
BITBANK1           100      0       0       6        0.0%
BANK1              100      0      83       7       51.2%
BITBANK0            A0      0       0       4        0.0%
BANK0               A0      0      93       5       91.9%
BITCOMRAM           5E      0       0       0        0.0%
COMRAM              5E     12      51       1       86.2%
BITSFR               0      0       0     200        0.0%
SFR                  0      0       0     200        0.0%
STACK                0      0       0       2        0.0%
NULL                 0      0       0       0        0.0%
ABS                  0      0     167      20        0.0%
DATA                 0      0     167       3        0.0%
CODE                 0      0       0       0        0.0%


Microchip Technology PIC18 Macro Assembler V2.05 build -831301201 
Symbol Table                                                                                   Wed Nov 06 09:34:02 2019

         i2send_string@i 0046                       l82 049C                       l76 04C2  
                     l85 04A4                       l69 042A              __CFG_BORV$3 000000  
     __CFG_FOSC$XTPLL_XT 000000                      l105 0412                      l954 041A  
                    l958 0430             __CFG_BOR$OFF 000000           i2_send_newline 04AA  
                    wreg 000FE8             __CFG_LVP$OFF 000000             __CFG_WDT$OFF 000000  
                   i2l82 04AE                     i2l85 04B6                     i2l69 045A  
                   i2l98 03A6             __CFG_PWRT$ON 000000    __end_ofi2_send_string 0474  
                   _main 03E0                     fsr2h 000FDA                     indf2 000FDF  
                   fsr1l 000FE1                     fsr2l 000FD9                     btemp 0052  
                   start 000E            __CFG_MCLRE$ON 000000             ___param_bank 000000  
          __CFG_PLLDIV$1 000000           __CFG_CCP2MX$ON 000000                    ?_main 0040  
 __end_ofi2_send_newline 04BC                    i2l124 0112                    i2l118 0076  
                  i2l942 044A                    i2l946 0460                    _RCREG 000FAE  
                  _SPBRG 000FAF                    _RCIsr 0008                    _TXREG 000FAD  
                  _menu1 002B                    _menu2 0016                    _menu3 0001  
                  _menu4 00DE                    _menu5 00C9                    _menu6 00B4  
                  _menu7 009F                    _menu8 008A                    _autor 0075  
                  _error 011A                    tablat 000FF5                    ttemp5 0053  
                  ttemp6 0056                    ttemp7 005A                    status 000FD8  
                  wtemp8 0053          __initialization 02F6             __end_of_main 0414  
                 ??_main 0052          ?i2_send_newline 0040            __activetblptr 000002  
                 ?_RCIsr 0040                   _ADCON1 000FC1                   i2l1014 03DA  
                 i2l1032 0020                   i2l1052 008E                   i2l1044 0058  
                 i2l1062 00C0                   i2l1054 0094                   i2l1038 003C  
                 i2l1070 00DC                   i2l1066 00C6                   i2l1058 00AA  
           ?_send_string 004B                   _SPBRGH 000FB0                   _cadena 0100  
                 _led_on 0060         __end_of_parpadeo 03E0             __pdataCOMRAM 0001  
    i2send_string@vector 0040      i2send_string@numero 0042                   tblptrh 000FF7  
                 tblptrl 000FF6                   tblptru 000FF8               __accesstop 0060  
__end_of__initialization 0356          __CFG_PBADEN$OFF 000000            ___rparam_used 000001  
          __end_of_RCIsr 011E           __pcstackCOMRAM 0040             __pidataBANK0 01E0  
           __pidataBANK1 0273                  ??_RCIsr 0047       __size_of_uc_config 0024  
     __size_of_send_char 000C            ?_send_newline 0040       __size_of_show_menu 00C2  
                i2u23_47 03B2                  i2u24_47 03CC                ?_parpadeo 0040  
   __size_of_send_string 0030                  __Hparam 0000                  __Lparam 0000  
       ??i2_send_newline 0040           ??_send_newline 004B                  __pcinit 02F6  
                __ramtop 0800                  __ptext0 03E0                  __ptext1 0474  
                __ptext2 0414                  __ptext3 0498                  __ptext4 04BC  
                __ptext6 011E                  __ptext7 0444                  __ptext8 04AA  
                __ptext9 03A4                  _led_off 016E   __size_ofi2_send_string 0030  
      __end_of_uc_config 0498           __pintcode_body 0012     end_of_initialization 0356  
      __end_of_send_char 04C8            __Lmediumconst 0000                  int_func 0012  
             ??_parpadeo 0040        __end_of_show_menu 01E0                _RCSTAbits 000FAB  
                postdec1 000FE5                  postinc0 000FEE                _PORTBbits 000F81  
              _TRISCbits 000F94                _TRISEbits 000F96             _led_parpadeo 0159  
          i2_send_string 0444                _TXSTAbits 000FAC        send_string@vector 004B  
      send_string@numero 004D              _BAUDCONbits 000FB8            __pidataCOMRAM 0364  
    start_initialization 02F6           ?i2_send_string 0040     __end_of_send_newline 04AA  
            __pdataBANK0 0060              __pdataBANK1 0100         __CFG_LPT1OSC$OFF 000000  
      __size_of_parpadeo 003C                __pintcode 0008                _boton_off 012F  
         __size_of_RCIsr 0116          ??i2_send_string 0044            ??_send_string 004F  
              _uc_config 0474                 _LATEbits 000F8D                 _PIE1bits 000F9D  
              _send_char 04BC                 _PIR1bits 000F9E         __CFG_WDTPS$32768 000000  
              _show_menu 011E    __size_of_send_newline 0012                copy_data0 030A  
              copy_data1 032A                copy_data2 034A               ?_uc_config 0040  
             ?_send_char 0040                 __Hrparam 0000             send_string@i 0051  
    __end_of_send_string 0444                 __Lrparam 0000               ?_show_menu 0040  
           _send_newline 0498  __size_ofi2_send_newline 0012         send_char@letrita 004B  
               _boton_on 0144            __size_of_main 0034                 _parpadeo 03A4  
               int$flags 0052    __CFG_CPUDIV$OSC2_PLL3 000000               _INTCONbits 000FF2  
               intlevel2 0000              _send_string 0414              ??_uc_config 004B  
            ??_send_char 004B              ??_show_menu 0047  
