

Microchip Technology PIC18 LITE Macro Assembler V2.00 build -1524193055 
                                                                                               Thu Nov 01 22:37:45 2018

Microchip Technology Omniscient Code Generator v2.00 (Free mode) build 20180527130849
     1  0000                     
     2                           ; Version 2.00
     3                           ; Generated 27/05/2018 GMT
     4                           
     5                           ; 
     6                           ; Copyright © 2018, Microchip Technology Inc. and its subsidiaries ("Microchip")
     7                           ; All rights reserved.
     8                           ; 
     9                           ; This software is developed by Microchip Technology Inc. and its subsidiaries ("Microch
                                 ip").
    10                           ; 
    11                           ; Redistribution and use in source and binary forms, with or without modification, are
    12                           ; permitted provided that the following conditions are met:
    13                           ; 
    14                           ;     1. Redistributions of source code must retain the above copyright notice, this lis
                                 t of
    15                           ;        conditions and the following disclaimer.
    16                           ; 
    17                           ;     2. Redistributions in binary form must reproduce the above copyright notice, this 
                                 list
    18                           ;        of conditions and the following disclaimer in the documentation and/or other
    19                           ;        materials provided with the distribution.
    20                           ; 
    21                           ;     3. Microchip's name may not be used to endorse or promote products derived from th
                                 is
    22                           ;        software without specific prior written permission.
    23                           ; 
    24                           ; THIS SOFTWARE IS PROVIDED BY MICROCHIP "AS IS" AND ANY EXPRESS OR IMPLIED WARRANTIES,

    25                           ; INCLUDING, BUT NOT LIMITED TO, THE IMPLIED WARRANTIES OF MERCHANTABILITY AND FITNESS F
                                 OR
    26                           ; PURPOSE ARE DISCLAIMED.  IN NO EVENT SHALL MICROCHIP BE LIABLE FOR ANY DIRECT, INDIREC
                                 T,
    27                           ; INCIDENTAL, SPECIAL, EXEMPLARY, OR CONSEQUENTIAL DAMAGES (INCLUDING BUT NOT LIMITED TO
                                 
    28                           ; PROCUREMENT OF SUBSTITUTE GOODS OR SERVICES; LOSS OF USE, DATA OR PROFITS; OR BUSINESS
                                 
    29                           ; INTERRUPTION) HOWSOEVER CAUSED AND ON ANY THEORY OF LIABILITY, WHETHER IN CONTRACT, ST
                                 RICT
    30                           ; LIABILITY, OR TORT (INCLUDING NEGLIGENCE OR OTHERWISE) ARISING IN ANY WAY OUT OF THE U
                                 SE OF
    31                           ; THIS SOFTWARE, EVEN IF ADVISED OF THE POSSIBILITY OF SUCH DAMAGE.
    32                           ; 
    33                           
    34                           
    35                           ; 
    36                           ; Code-generator required, PIC18F4550 Definitions
    37                           ; 
    38  0000                     fsr0 equ 0FE9h
    39  0000                     fsr0h equ 0FEAh
    40  0000                     fsr0l equ 0FE9h
    41  0000                     fsr1 equ 0FE1h
    42  0000                     fsr1h equ 0FE2h
    43  0000                     fsr1l equ 0FE1h
    44  0000                     fsr2 equ 0FD9h
    45  0000                     fsr2h equ 0FDAh
    46  0000                     fsr2l equ 0FD9h
    47  0000                     indf0 equ 0FEFh
    48  0000                     indf1 equ 0FE7h
    49  0000                     indf2 equ 0FDFh
    50  0000                     intcon equ 0FF2h
    51  0000                     nvmcon equ 00h
    52  0000                     pcl equ 0FF9h
    53  0000                     pclath equ 0FFAh
    54  0000                     pclatu equ 0FFBh
    55  0000                     plusw0 equ 0FEBh
    56  0000                     plusw1 equ 0FE3h
    57  0000                     plusw2 equ 0FDBh
    58  0000                     postdec0 equ 0FEDh
    59  0000                     postdec1 equ 0FE5h
    60  0000                     postdec2 equ 0FDDh
    61  0000                     postinc0 equ 0FEEh
    62  0000                     postinc1 equ 0FE6h
    63  0000                     postinc2 equ 0FDEh
    64  0000                     preinc0 equ 0FECh
    65  0000                     preinc1 equ 0FE4h
    66  0000                     preinc2 equ 0FDCh
    67  0000                     prod equ 0FF3h
    68  0000                     prodh equ 0FF4h
    69  0000                     prodl equ 0FF3h
    70  0000                     status equ 0FD8h
    71  0000                     tablat equ 0FF5h
    72  0000                     tblptr equ 0FF6h
    73  0000                     tblptrh equ 0FF7h
    74  0000                     tblptrl equ 0FF6h
    75  0000                     tblptru equ 0FF8h
    76  0000                     tosl equ 0FFDh
    77  0000                     wreg equ 0FE8h
    78  0000                     
     2                           opt pagewidth 120
     3  0000                     byte0	macro	val
     4                           	(getbyte(val,0))
     5                           endm
     6  0000                     byte1	macro	val
     7                           	(getbyte(val,1))
     8                           endm
     9  0000                     byte2	macro	val
    10                           	(getbyte(val,2))
    11                           endm
    12  0000                     byte3	macro	val
    13                           	(getbyte(val,3))
    14                           endm
    15  0000                     byte4	macro	val
    16                           	(getbyte(val,4))
    17                           endm
    18  0000                     byte5	macro	val
    19                           	(getbyte(val,5))
    20                           endm
    21  0000                     byte6	macro	val
    22                           	(getbyte(val,6))
    23                           endm
    24  0000                     byte7	macro	val
    25                           	(getbyte(val,7))
    26                           endm
    27  0000                     getword	macro	val,pos
    28                           	(((val) >> (8 * pos)) and 0xffff)
    29                           endm
    30  0000                     word0	macro	val
    31                           	(getword(val,0))
    32                           endm
    33  0000                     word1	macro	val
    34                           	(getword(val,2))
    35                           endm
    36  0000                     word2	macro	val
    37                           	(getword(val,4))
    38                           endm
    39  0000                     word3	macro	val
    40                           	(getword(val,6))
    41                           endm
    42  0000                     gettword	macro	val,pos
    43                           	(((val) >> (8 * pos)) and 0xffffff)
    44                           endm
    45  0000                     tword0	macro	val
    46                           	(gettword(val,0))
    47                           endm
    48  0000                     tword1	macro	val
    49                           	(gettword(val,3))
    50                           endm
    51  0000                     tword2	macro	val
    52                           	(gettword(val,6))
    53                           endm
    54  0000                     getdword	macro	val,pos
    55                           	(((val) >> (8 * pos)) and 0xffffffff)
    56                           endm
    57  0000                     dword0	macro	val
    58                           	(getdword(val,0))
    59                           endm
    60  0000                     dword1	macro	val
    61                           	(getdword(val,4))
    62                           endm
    63  0000                     clrc   macro
    64                           	bcf	status,0
    65                           endm
    66  0000                     setc   macro
    67                           	bsf	status,0
    68                           endm
    69  0000                     clrz   macro
    70                           	bcf	status,2
    71                           endm
    72  0000                     setz   macro
    73                           	bsf	status,2
    74                           endm
    75  0000                     skipnz macro
    76                           	btfsc	status,2
    77                           endm
    78  0000                     skipz  macro
    79                           	btfss	status,2
    80                           endm
    81  0000                     skipnc macro
    82                           	btfsc	status,0
    83                           endm
    84  0000                     skipc  macro
    85                           	btfss	status,0
    86                           endm
    87  0000                     pushw macro
    88                           	movwf postinc1
    89                           endm
    90  0000                     pushf macro arg1
    91                           	movff arg1, postinc1
    92                           endm
    93  0000                     popw macro
    94                           	movf postdec1,f
    95                           	movf indf1,w
    96                           endm
    97  0000                     popf macro arg1
    98                           	movf postdec1,f
    99                           	movff indf1,arg1
   100                           endm
   101  0000                     popfc macro arg1
   102                           	movff plusw1,arg1
   103                           	decfsz fsr1,f
   104                           endm
   105  0000                     	global	__ramtop
   106                           	global	__accesstop
   107                           # 54 "C:\Program Files (x86)\Microchip\xc8\v2.00\pic\include\pic18f4550.h"
   108                           SPPDATA equ 0F62h ;# 
   109  0000                     # 74 "C:\Program Files (x86)\Microchip\xc8\v2.00\pic\include\pic18f4550.h"
   110                           SPPCFG equ 0F63h ;# 
   111  0000                     # 151 "C:\Program Files (x86)\Microchip\xc8\v2.00\pic\include\pic18f4550.h"
   112                           SPPEPS equ 0F64h ;# 
   113  0000                     # 225 "C:\Program Files (x86)\Microchip\xc8\v2.00\pic\include\pic18f4550.h"
   114                           SPPCON equ 0F65h ;# 
   115  0000                     # 251 "C:\Program Files (x86)\Microchip\xc8\v2.00\pic\include\pic18f4550.h"
   116                           UFRM equ 0F66h ;# 
   117  0000                     # 258 "C:\Program Files (x86)\Microchip\xc8\v2.00\pic\include\pic18f4550.h"
   118                           UFRML equ 0F66h ;# 
   119  0000                     # 336 "C:\Program Files (x86)\Microchip\xc8\v2.00\pic\include\pic18f4550.h"
   120                           UFRMH equ 0F67h ;# 
   121  0000                     # 376 "C:\Program Files (x86)\Microchip\xc8\v2.00\pic\include\pic18f4550.h"
   122                           UIR equ 0F68h ;# 
   123  0000                     # 432 "C:\Program Files (x86)\Microchip\xc8\v2.00\pic\include\pic18f4550.h"
   124                           UIE equ 0F69h ;# 
   125  0000                     # 488 "C:\Program Files (x86)\Microchip\xc8\v2.00\pic\include\pic18f4550.h"
   126                           UEIR equ 0F6Ah ;# 
   127  0000                     # 539 "C:\Program Files (x86)\Microchip\xc8\v2.00\pic\include\pic18f4550.h"
   128                           UEIE equ 0F6Bh ;# 
   129  0000                     # 590 "C:\Program Files (x86)\Microchip\xc8\v2.00\pic\include\pic18f4550.h"
   130                           USTAT equ 0F6Ch ;# 
   131  0000                     # 650 "C:\Program Files (x86)\Microchip\xc8\v2.00\pic\include\pic18f4550.h"
   132                           UCON equ 0F6Dh ;# 
   133  0000                     # 701 "C:\Program Files (x86)\Microchip\xc8\v2.00\pic\include\pic18f4550.h"
   134                           UADDR equ 0F6Eh ;# 
   135  0000                     # 765 "C:\Program Files (x86)\Microchip\xc8\v2.00\pic\include\pic18f4550.h"
   136                           UCFG equ 0F6Fh ;# 
   137  0000                     # 844 "C:\Program Files (x86)\Microchip\xc8\v2.00\pic\include\pic18f4550.h"
   138                           UEP0 equ 0F70h ;# 
   139  0000                     # 952 "C:\Program Files (x86)\Microchip\xc8\v2.00\pic\include\pic18f4550.h"
   140                           UEP1 equ 0F71h ;# 
   141  0000                     # 1060 "C:\Program Files (x86)\Microchip\xc8\v2.00\pic\include\pic18f4550.h"
   142                           UEP2 equ 0F72h ;# 
   143  0000                     # 1168 "C:\Program Files (x86)\Microchip\xc8\v2.00\pic\include\pic18f4550.h"
   144                           UEP3 equ 0F73h ;# 
   145  0000                     # 1276 "C:\Program Files (x86)\Microchip\xc8\v2.00\pic\include\pic18f4550.h"
   146                           UEP4 equ 0F74h ;# 
   147  0000                     # 1384 "C:\Program Files (x86)\Microchip\xc8\v2.00\pic\include\pic18f4550.h"
   148                           UEP5 equ 0F75h ;# 
   149  0000                     # 1492 "C:\Program Files (x86)\Microchip\xc8\v2.00\pic\include\pic18f4550.h"
   150                           UEP6 equ 0F76h ;# 
   151  0000                     # 1600 "C:\Program Files (x86)\Microchip\xc8\v2.00\pic\include\pic18f4550.h"
   152                           UEP7 equ 0F77h ;# 
   153  0000                     # 1708 "C:\Program Files (x86)\Microchip\xc8\v2.00\pic\include\pic18f4550.h"
   154                           UEP8 equ 0F78h ;# 
   155  0000                     # 1784 "C:\Program Files (x86)\Microchip\xc8\v2.00\pic\include\pic18f4550.h"
   156                           UEP9 equ 0F79h ;# 
   157  0000                     # 1860 "C:\Program Files (x86)\Microchip\xc8\v2.00\pic\include\pic18f4550.h"
   158                           UEP10 equ 0F7Ah ;# 
   159  0000                     # 1936 "C:\Program Files (x86)\Microchip\xc8\v2.00\pic\include\pic18f4550.h"
   160                           UEP11 equ 0F7Bh ;# 
   161  0000                     # 2012 "C:\Program Files (x86)\Microchip\xc8\v2.00\pic\include\pic18f4550.h"
   162                           UEP12 equ 0F7Ch ;# 
   163  0000                     # 2088 "C:\Program Files (x86)\Microchip\xc8\v2.00\pic\include\pic18f4550.h"
   164                           UEP13 equ 0F7Dh ;# 
   165  0000                     # 2164 "C:\Program Files (x86)\Microchip\xc8\v2.00\pic\include\pic18f4550.h"
   166                           UEP14 equ 0F7Eh ;# 
   167  0000                     # 2240 "C:\Program Files (x86)\Microchip\xc8\v2.00\pic\include\pic18f4550.h"
   168                           UEP15 equ 0F7Fh ;# 
   169  0000                     # 2316 "C:\Program Files (x86)\Microchip\xc8\v2.00\pic\include\pic18f4550.h"
   170                           PORTA equ 0F80h ;# 
   171  0000                     # 2455 "C:\Program Files (x86)\Microchip\xc8\v2.00\pic\include\pic18f4550.h"
   172                           PORTB equ 0F81h ;# 
   173  0000                     # 2565 "C:\Program Files (x86)\Microchip\xc8\v2.00\pic\include\pic18f4550.h"
   174                           PORTC equ 0F82h ;# 
   175  0000                     # 2707 "C:\Program Files (x86)\Microchip\xc8\v2.00\pic\include\pic18f4550.h"
   176                           PORTD equ 0F83h ;# 
   177  0000                     # 2828 "C:\Program Files (x86)\Microchip\xc8\v2.00\pic\include\pic18f4550.h"
   178                           PORTE equ 0F84h ;# 
   179  0000                     # 2975 "C:\Program Files (x86)\Microchip\xc8\v2.00\pic\include\pic18f4550.h"
   180                           LATA equ 0F89h ;# 
   181  0000                     # 3075 "C:\Program Files (x86)\Microchip\xc8\v2.00\pic\include\pic18f4550.h"
   182                           LATB equ 0F8Ah ;# 
   183  0000                     # 3187 "C:\Program Files (x86)\Microchip\xc8\v2.00\pic\include\pic18f4550.h"
   184                           LATC equ 0F8Bh ;# 
   185  0000                     # 3265 "C:\Program Files (x86)\Microchip\xc8\v2.00\pic\include\pic18f4550.h"
   186                           LATD equ 0F8Ch ;# 
   187  0000                     # 3377 "C:\Program Files (x86)\Microchip\xc8\v2.00\pic\include\pic18f4550.h"
   188                           LATE equ 0F8Dh ;# 
   189  0000                     # 3429 "C:\Program Files (x86)\Microchip\xc8\v2.00\pic\include\pic18f4550.h"
   190                           TRISA equ 0F92h ;# 
   191  0000                     # 3434 "C:\Program Files (x86)\Microchip\xc8\v2.00\pic\include\pic18f4550.h"
   192                           DDRA equ 0F92h ;# 
   193  0000                     # 3627 "C:\Program Files (x86)\Microchip\xc8\v2.00\pic\include\pic18f4550.h"
   194                           TRISB equ 0F93h ;# 
   195  0000                     # 3632 "C:\Program Files (x86)\Microchip\xc8\v2.00\pic\include\pic18f4550.h"
   196                           DDRB equ 0F93h ;# 
   197  0000                     # 3849 "C:\Program Files (x86)\Microchip\xc8\v2.00\pic\include\pic18f4550.h"
   198                           TRISC equ 0F94h ;# 
   199  0000                     # 3854 "C:\Program Files (x86)\Microchip\xc8\v2.00\pic\include\pic18f4550.h"
   200                           DDRC equ 0F94h ;# 
   201  0000                     # 4003 "C:\Program Files (x86)\Microchip\xc8\v2.00\pic\include\pic18f4550.h"
   202                           TRISD equ 0F95h ;# 
   203  0000                     # 4008 "C:\Program Files (x86)\Microchip\xc8\v2.00\pic\include\pic18f4550.h"
   204                           DDRD equ 0F95h ;# 
   205  0000                     # 4225 "C:\Program Files (x86)\Microchip\xc8\v2.00\pic\include\pic18f4550.h"
   206                           TRISE equ 0F96h ;# 
   207  0000                     # 4230 "C:\Program Files (x86)\Microchip\xc8\v2.00\pic\include\pic18f4550.h"
   208                           DDRE equ 0F96h ;# 
   209  0000                     # 4327 "C:\Program Files (x86)\Microchip\xc8\v2.00\pic\include\pic18f4550.h"
   210                           OSCTUNE equ 0F9Bh ;# 
   211  0000                     # 4386 "C:\Program Files (x86)\Microchip\xc8\v2.00\pic\include\pic18f4550.h"
   212                           PIE1 equ 0F9Dh ;# 
   213  0000                     # 4470 "C:\Program Files (x86)\Microchip\xc8\v2.00\pic\include\pic18f4550.h"
   214                           PIR1 equ 0F9Eh ;# 
   215  0000                     # 4554 "C:\Program Files (x86)\Microchip\xc8\v2.00\pic\include\pic18f4550.h"
   216                           IPR1 equ 0F9Fh ;# 
   217  0000                     # 4638 "C:\Program Files (x86)\Microchip\xc8\v2.00\pic\include\pic18f4550.h"
   218                           PIE2 equ 0FA0h ;# 
   219  0000                     # 4709 "C:\Program Files (x86)\Microchip\xc8\v2.00\pic\include\pic18f4550.h"
   220                           PIR2 equ 0FA1h ;# 
   221  0000                     # 4780 "C:\Program Files (x86)\Microchip\xc8\v2.00\pic\include\pic18f4550.h"
   222                           IPR2 equ 0FA2h ;# 
   223  0000                     # 4851 "C:\Program Files (x86)\Microchip\xc8\v2.00\pic\include\pic18f4550.h"
   224                           EECON1 equ 0FA6h ;# 
   225  0000                     # 4917 "C:\Program Files (x86)\Microchip\xc8\v2.00\pic\include\pic18f4550.h"
   226                           EECON2 equ 0FA7h ;# 
   227  0000                     # 4924 "C:\Program Files (x86)\Microchip\xc8\v2.00\pic\include\pic18f4550.h"
   228                           EEDATA equ 0FA8h ;# 
   229  0000                     # 4931 "C:\Program Files (x86)\Microchip\xc8\v2.00\pic\include\pic18f4550.h"
   230                           EEADR equ 0FA9h ;# 
   231  0000                     # 4938 "C:\Program Files (x86)\Microchip\xc8\v2.00\pic\include\pic18f4550.h"
   232                           RCSTA equ 0FABh ;# 
   233  0000                     # 4943 "C:\Program Files (x86)\Microchip\xc8\v2.00\pic\include\pic18f4550.h"
   234                           RCSTA1 equ 0FABh ;# 
   235  0000                     # 5148 "C:\Program Files (x86)\Microchip\xc8\v2.00\pic\include\pic18f4550.h"
   236                           TXSTA equ 0FACh ;# 
   237  0000                     # 5153 "C:\Program Files (x86)\Microchip\xc8\v2.00\pic\include\pic18f4550.h"
   238                           TXSTA1 equ 0FACh ;# 
   239  0000                     # 5404 "C:\Program Files (x86)\Microchip\xc8\v2.00\pic\include\pic18f4550.h"
   240                           TXREG equ 0FADh ;# 
   241  0000                     # 5409 "C:\Program Files (x86)\Microchip\xc8\v2.00\pic\include\pic18f4550.h"
   242                           TXREG1 equ 0FADh ;# 
   243  0000                     # 5416 "C:\Program Files (x86)\Microchip\xc8\v2.00\pic\include\pic18f4550.h"
   244                           RCREG equ 0FAEh ;# 
   245  0000                     # 5421 "C:\Program Files (x86)\Microchip\xc8\v2.00\pic\include\pic18f4550.h"
   246                           RCREG1 equ 0FAEh ;# 
   247  0000                     # 5428 "C:\Program Files (x86)\Microchip\xc8\v2.00\pic\include\pic18f4550.h"
   248                           SPBRG equ 0FAFh ;# 
   249  0000                     # 5433 "C:\Program Files (x86)\Microchip\xc8\v2.00\pic\include\pic18f4550.h"
   250                           SPBRG1 equ 0FAFh ;# 
   251  0000                     # 5440 "C:\Program Files (x86)\Microchip\xc8\v2.00\pic\include\pic18f4550.h"
   252                           SPBRGH equ 0FB0h ;# 
   253  0000                     # 5447 "C:\Program Files (x86)\Microchip\xc8\v2.00\pic\include\pic18f4550.h"
   254                           T3CON equ 0FB1h ;# 
   255  0000                     # 5568 "C:\Program Files (x86)\Microchip\xc8\v2.00\pic\include\pic18f4550.h"
   256                           TMR3 equ 0FB2h ;# 
   257  0000                     # 5575 "C:\Program Files (x86)\Microchip\xc8\v2.00\pic\include\pic18f4550.h"
   258                           TMR3L equ 0FB2h ;# 
   259  0000                     # 5582 "C:\Program Files (x86)\Microchip\xc8\v2.00\pic\include\pic18f4550.h"
   260                           TMR3H equ 0FB3h ;# 
   261  0000                     # 5589 "C:\Program Files (x86)\Microchip\xc8\v2.00\pic\include\pic18f4550.h"
   262                           CMCON equ 0FB4h ;# 
   263  0000                     # 5679 "C:\Program Files (x86)\Microchip\xc8\v2.00\pic\include\pic18f4550.h"
   264                           CVRCON equ 0FB5h ;# 
   265  0000                     # 5764 "C:\Program Files (x86)\Microchip\xc8\v2.00\pic\include\pic18f4550.h"
   266                           ECCP1AS equ 0FB6h ;# 
   267  0000                     # 5769 "C:\Program Files (x86)\Microchip\xc8\v2.00\pic\include\pic18f4550.h"
   268                           CCP1AS equ 0FB6h ;# 
   269  0000                     # 5926 "C:\Program Files (x86)\Microchip\xc8\v2.00\pic\include\pic18f4550.h"
   270                           ECCP1DEL equ 0FB7h ;# 
   271  0000                     # 5931 "C:\Program Files (x86)\Microchip\xc8\v2.00\pic\include\pic18f4550.h"
   272                           CCP1DEL equ 0FB7h ;# 
   273  0000                     # 6064 "C:\Program Files (x86)\Microchip\xc8\v2.00\pic\include\pic18f4550.h"
   274                           BAUDCON equ 0FB8h ;# 
   275  0000                     # 6069 "C:\Program Files (x86)\Microchip\xc8\v2.00\pic\include\pic18f4550.h"
   276                           BAUDCTL equ 0FB8h ;# 
   277  0000                     # 6244 "C:\Program Files (x86)\Microchip\xc8\v2.00\pic\include\pic18f4550.h"
   278                           CCP2CON equ 0FBAh ;# 
   279  0000                     # 6308 "C:\Program Files (x86)\Microchip\xc8\v2.00\pic\include\pic18f4550.h"
   280                           CCPR2 equ 0FBBh ;# 
   281  0000                     # 6315 "C:\Program Files (x86)\Microchip\xc8\v2.00\pic\include\pic18f4550.h"
   282                           CCPR2L equ 0FBBh ;# 
   283  0000                     # 6322 "C:\Program Files (x86)\Microchip\xc8\v2.00\pic\include\pic18f4550.h"
   284                           CCPR2H equ 0FBCh ;# 
   285  0000                     # 6329 "C:\Program Files (x86)\Microchip\xc8\v2.00\pic\include\pic18f4550.h"
   286                           CCP1CON equ 0FBDh ;# 
   287  0000                     # 6334 "C:\Program Files (x86)\Microchip\xc8\v2.00\pic\include\pic18f4550.h"
   288                           ECCP1CON equ 0FBDh ;# 
   289  0000                     # 6491 "C:\Program Files (x86)\Microchip\xc8\v2.00\pic\include\pic18f4550.h"
   290                           CCPR1 equ 0FBEh ;# 
   291  0000                     # 6498 "C:\Program Files (x86)\Microchip\xc8\v2.00\pic\include\pic18f4550.h"
   292                           CCPR1L equ 0FBEh ;# 
   293  0000                     # 6505 "C:\Program Files (x86)\Microchip\xc8\v2.00\pic\include\pic18f4550.h"
   294                           CCPR1H equ 0FBFh ;# 
   295  0000                     # 6512 "C:\Program Files (x86)\Microchip\xc8\v2.00\pic\include\pic18f4550.h"
   296                           ADCON2 equ 0FC0h ;# 
   297  0000                     # 6583 "C:\Program Files (x86)\Microchip\xc8\v2.00\pic\include\pic18f4550.h"
   298                           ADCON1 equ 0FC1h ;# 
   299  0000                     # 6668 "C:\Program Files (x86)\Microchip\xc8\v2.00\pic\include\pic18f4550.h"
   300                           ADCON0 equ 0FC2h ;# 
   301  0000                     # 6787 "C:\Program Files (x86)\Microchip\xc8\v2.00\pic\include\pic18f4550.h"
   302                           ADRES equ 0FC3h ;# 
   303  0000                     # 6794 "C:\Program Files (x86)\Microchip\xc8\v2.00\pic\include\pic18f4550.h"
   304                           ADRESL equ 0FC3h ;# 
   305  0000                     # 6801 "C:\Program Files (x86)\Microchip\xc8\v2.00\pic\include\pic18f4550.h"
   306                           ADRESH equ 0FC4h ;# 
   307  0000                     # 6808 "C:\Program Files (x86)\Microchip\xc8\v2.00\pic\include\pic18f4550.h"
   308                           SSPCON2 equ 0FC5h ;# 
   309  0000                     # 6870 "C:\Program Files (x86)\Microchip\xc8\v2.00\pic\include\pic18f4550.h"
   310                           SSPCON1 equ 0FC6h ;# 
   311  0000                     # 6940 "C:\Program Files (x86)\Microchip\xc8\v2.00\pic\include\pic18f4550.h"
   312                           SSPSTAT equ 0FC7h ;# 
   313  0000                     # 7188 "C:\Program Files (x86)\Microchip\xc8\v2.00\pic\include\pic18f4550.h"
   314                           SSPADD equ 0FC8h ;# 
   315  0000                     # 7195 "C:\Program Files (x86)\Microchip\xc8\v2.00\pic\include\pic18f4550.h"
   316                           SSPBUF equ 0FC9h ;# 
   317  0000                     # 7202 "C:\Program Files (x86)\Microchip\xc8\v2.00\pic\include\pic18f4550.h"
   318                           T2CON equ 0FCAh ;# 
   319  0000                     # 7300 "C:\Program Files (x86)\Microchip\xc8\v2.00\pic\include\pic18f4550.h"
   320                           PR2 equ 0FCBh ;# 
   321  0000                     # 7305 "C:\Program Files (x86)\Microchip\xc8\v2.00\pic\include\pic18f4550.h"
   322                           MEMCON equ 0FCBh ;# 
   323  0000                     # 7410 "C:\Program Files (x86)\Microchip\xc8\v2.00\pic\include\pic18f4550.h"
   324                           TMR2 equ 0FCCh ;# 
   325  0000                     # 7417 "C:\Program Files (x86)\Microchip\xc8\v2.00\pic\include\pic18f4550.h"
   326                           T1CON equ 0FCDh ;# 
   327  0000                     # 7520 "C:\Program Files (x86)\Microchip\xc8\v2.00\pic\include\pic18f4550.h"
   328                           TMR1 equ 0FCEh ;# 
   329  0000                     # 7527 "C:\Program Files (x86)\Microchip\xc8\v2.00\pic\include\pic18f4550.h"
   330                           TMR1L equ 0FCEh ;# 
   331  0000                     # 7534 "C:\Program Files (x86)\Microchip\xc8\v2.00\pic\include\pic18f4550.h"
   332                           TMR1H equ 0FCFh ;# 
   333  0000                     # 7541 "C:\Program Files (x86)\Microchip\xc8\v2.00\pic\include\pic18f4550.h"
   334                           RCON equ 0FD0h ;# 
   335  0000                     # 7690 "C:\Program Files (x86)\Microchip\xc8\v2.00\pic\include\pic18f4550.h"
   336                           WDTCON equ 0FD1h ;# 
   337  0000                     # 7718 "C:\Program Files (x86)\Microchip\xc8\v2.00\pic\include\pic18f4550.h"
   338                           HLVDCON equ 0FD2h ;# 
   339  0000                     # 7723 "C:\Program Files (x86)\Microchip\xc8\v2.00\pic\include\pic18f4550.h"
   340                           LVDCON equ 0FD2h ;# 
   341  0000                     # 7988 "C:\Program Files (x86)\Microchip\xc8\v2.00\pic\include\pic18f4550.h"
   342                           OSCCON equ 0FD3h ;# 
   343  0000                     # 8071 "C:\Program Files (x86)\Microchip\xc8\v2.00\pic\include\pic18f4550.h"
   344                           T0CON equ 0FD5h ;# 
   345  0000                     # 8141 "C:\Program Files (x86)\Microchip\xc8\v2.00\pic\include\pic18f4550.h"
   346                           TMR0 equ 0FD6h ;# 
   347  0000                     # 8148 "C:\Program Files (x86)\Microchip\xc8\v2.00\pic\include\pic18f4550.h"
   348                           TMR0L equ 0FD6h ;# 
   349  0000                     # 8155 "C:\Program Files (x86)\Microchip\xc8\v2.00\pic\include\pic18f4550.h"
   350                           TMR0H equ 0FD7h ;# 
   351  0000                     # 8162 "C:\Program Files (x86)\Microchip\xc8\v2.00\pic\include\pic18f4550.h"
   352                           STATUS equ 0FD8h ;# 
   353  0000                     # 8233 "C:\Program Files (x86)\Microchip\xc8\v2.00\pic\include\pic18f4550.h"
   354                           FSR2 equ 0FD9h ;# 
   355  0000                     # 8240 "C:\Program Files (x86)\Microchip\xc8\v2.00\pic\include\pic18f4550.h"
   356                           FSR2L equ 0FD9h ;# 
   357  0000                     # 8247 "C:\Program Files (x86)\Microchip\xc8\v2.00\pic\include\pic18f4550.h"
   358                           FSR2H equ 0FDAh ;# 
   359  0000                     # 8254 "C:\Program Files (x86)\Microchip\xc8\v2.00\pic\include\pic18f4550.h"
   360                           PLUSW2 equ 0FDBh ;# 
   361  0000                     # 8261 "C:\Program Files (x86)\Microchip\xc8\v2.00\pic\include\pic18f4550.h"
   362                           PREINC2 equ 0FDCh ;# 
   363  0000                     # 8268 "C:\Program Files (x86)\Microchip\xc8\v2.00\pic\include\pic18f4550.h"
   364                           POSTDEC2 equ 0FDDh ;# 
   365  0000                     # 8275 "C:\Program Files (x86)\Microchip\xc8\v2.00\pic\include\pic18f4550.h"
   366                           POSTINC2 equ 0FDEh ;# 
   367  0000                     # 8282 "C:\Program Files (x86)\Microchip\xc8\v2.00\pic\include\pic18f4550.h"
   368                           INDF2 equ 0FDFh ;# 
   369  0000                     # 8289 "C:\Program Files (x86)\Microchip\xc8\v2.00\pic\include\pic18f4550.h"
   370                           BSR equ 0FE0h ;# 
   371  0000                     # 8296 "C:\Program Files (x86)\Microchip\xc8\v2.00\pic\include\pic18f4550.h"
   372                           FSR1 equ 0FE1h ;# 
   373  0000                     # 8303 "C:\Program Files (x86)\Microchip\xc8\v2.00\pic\include\pic18f4550.h"
   374                           FSR1L equ 0FE1h ;# 
   375  0000                     # 8310 "C:\Program Files (x86)\Microchip\xc8\v2.00\pic\include\pic18f4550.h"
   376                           FSR1H equ 0FE2h ;# 
   377  0000                     # 8317 "C:\Program Files (x86)\Microchip\xc8\v2.00\pic\include\pic18f4550.h"
   378                           PLUSW1 equ 0FE3h ;# 
   379  0000                     # 8324 "C:\Program Files (x86)\Microchip\xc8\v2.00\pic\include\pic18f4550.h"
   380                           PREINC1 equ 0FE4h ;# 
   381  0000                     # 8331 "C:\Program Files (x86)\Microchip\xc8\v2.00\pic\include\pic18f4550.h"
   382                           POSTDEC1 equ 0FE5h ;# 
   383  0000                     # 8338 "C:\Program Files (x86)\Microchip\xc8\v2.00\pic\include\pic18f4550.h"
   384                           POSTINC1 equ 0FE6h ;# 
   385  0000                     # 8345 "C:\Program Files (x86)\Microchip\xc8\v2.00\pic\include\pic18f4550.h"
   386                           INDF1 equ 0FE7h ;# 
   387  0000                     # 8352 "C:\Program Files (x86)\Microchip\xc8\v2.00\pic\include\pic18f4550.h"
   388                           WREG equ 0FE8h ;# 
   389  0000                     # 8359 "C:\Program Files (x86)\Microchip\xc8\v2.00\pic\include\pic18f4550.h"
   390                           FSR0 equ 0FE9h ;# 
   391  0000                     # 8366 "C:\Program Files (x86)\Microchip\xc8\v2.00\pic\include\pic18f4550.h"
   392                           FSR0L equ 0FE9h ;# 
   393  0000                     # 8373 "C:\Program Files (x86)\Microchip\xc8\v2.00\pic\include\pic18f4550.h"
   394                           FSR0H equ 0FEAh ;# 
   395  0000                     # 8380 "C:\Program Files (x86)\Microchip\xc8\v2.00\pic\include\pic18f4550.h"
   396                           PLUSW0 equ 0FEBh ;# 
   397  0000                     # 8387 "C:\Program Files (x86)\Microchip\xc8\v2.00\pic\include\pic18f4550.h"
   398                           PREINC0 equ 0FECh ;# 
   399  0000                     # 8394 "C:\Program Files (x86)\Microchip\xc8\v2.00\pic\include\pic18f4550.h"
   400                           POSTDEC0 equ 0FEDh ;# 
   401  0000                     # 8401 "C:\Program Files (x86)\Microchip\xc8\v2.00\pic\include\pic18f4550.h"
   402                           POSTINC0 equ 0FEEh ;# 
   403  0000                     # 8408 "C:\Program Files (x86)\Microchip\xc8\v2.00\pic\include\pic18f4550.h"
   404                           INDF0 equ 0FEFh ;# 
   405  0000                     # 8415 "C:\Program Files (x86)\Microchip\xc8\v2.00\pic\include\pic18f4550.h"
   406                           INTCON3 equ 0FF0h ;# 
   407  0000                     # 8507 "C:\Program Files (x86)\Microchip\xc8\v2.00\pic\include\pic18f4550.h"
   408                           INTCON2 equ 0FF1h ;# 
   409  0000                     # 8584 "C:\Program Files (x86)\Microchip\xc8\v2.00\pic\include\pic18f4550.h"
   410                           INTCON equ 0FF2h ;# 
   411  0000                     # 8701 "C:\Program Files (x86)\Microchip\xc8\v2.00\pic\include\pic18f4550.h"
   412                           PROD equ 0FF3h ;# 
   413  0000                     # 8708 "C:\Program Files (x86)\Microchip\xc8\v2.00\pic\include\pic18f4550.h"
   414                           PRODL equ 0FF3h ;# 
   415  0000                     # 8715 "C:\Program Files (x86)\Microchip\xc8\v2.00\pic\include\pic18f4550.h"
   416                           PRODH equ 0FF4h ;# 
   417  0000                     # 8722 "C:\Program Files (x86)\Microchip\xc8\v2.00\pic\include\pic18f4550.h"
   418                           TABLAT equ 0FF5h ;# 
   419  0000                     # 8731 "C:\Program Files (x86)\Microchip\xc8\v2.00\pic\include\pic18f4550.h"
   420                           TBLPTR equ 0FF6h ;# 
   421  0000                     # 8738 "C:\Program Files (x86)\Microchip\xc8\v2.00\pic\include\pic18f4550.h"
   422                           TBLPTRL equ 0FF6h ;# 
   423  0000                     # 8745 "C:\Program Files (x86)\Microchip\xc8\v2.00\pic\include\pic18f4550.h"
   424                           TBLPTRH equ 0FF7h ;# 
   425  0000                     # 8752 "C:\Program Files (x86)\Microchip\xc8\v2.00\pic\include\pic18f4550.h"
   426                           TBLPTRU equ 0FF8h ;# 
   427  0000                     # 8761 "C:\Program Files (x86)\Microchip\xc8\v2.00\pic\include\pic18f4550.h"
   428                           PCLAT equ 0FF9h ;# 
   429  0000                     # 8768 "C:\Program Files (x86)\Microchip\xc8\v2.00\pic\include\pic18f4550.h"
   430                           PC equ 0FF9h ;# 
   431  0000                     # 8775 "C:\Program Files (x86)\Microchip\xc8\v2.00\pic\include\pic18f4550.h"
   432                           PCL equ 0FF9h ;# 
   433  0000                     # 8782 "C:\Program Files (x86)\Microchip\xc8\v2.00\pic\include\pic18f4550.h"
   434                           PCLATH equ 0FFAh ;# 
   435  0000                     # 8789 "C:\Program Files (x86)\Microchip\xc8\v2.00\pic\include\pic18f4550.h"
   436                           PCLATU equ 0FFBh ;# 
   437  0000                     # 8796 "C:\Program Files (x86)\Microchip\xc8\v2.00\pic\include\pic18f4550.h"
   438                           STKPTR equ 0FFCh ;# 
   439  0000                     # 8872 "C:\Program Files (x86)\Microchip\xc8\v2.00\pic\include\pic18f4550.h"
   440                           TOS equ 0FFDh ;# 
   441  0000                     # 8879 "C:\Program Files (x86)\Microchip\xc8\v2.00\pic\include\pic18f4550.h"
   442                           TOSL equ 0FFDh ;# 
   443  0000                     # 8886 "C:\Program Files (x86)\Microchip\xc8\v2.00\pic\include\pic18f4550.h"
   444                           TOSH equ 0FFEh ;# 
   445  0000                     # 8893 "C:\Program Files (x86)\Microchip\xc8\v2.00\pic\include\pic18f4550.h"
   446                           TOSU equ 0FFFh ;# 
   447  0000                     # 54 "C:\Program Files (x86)\Microchip\xc8\v2.00\pic\include\pic18f4550.h"
   448                           SPPDATA equ 0F62h ;# 
   449  0000                     # 74 "C:\Program Files (x86)\Microchip\xc8\v2.00\pic\include\pic18f4550.h"
   450                           SPPCFG equ 0F63h ;# 
   451  0000                     # 151 "C:\Program Files (x86)\Microchip\xc8\v2.00\pic\include\pic18f4550.h"
   452                           SPPEPS equ 0F64h ;# 
   453  0000                     # 225 "C:\Program Files (x86)\Microchip\xc8\v2.00\pic\include\pic18f4550.h"
   454                           SPPCON equ 0F65h ;# 
   455  0000                     # 251 "C:\Program Files (x86)\Microchip\xc8\v2.00\pic\include\pic18f4550.h"
   456                           UFRM equ 0F66h ;# 
   457  0000                     # 258 "C:\Program Files (x86)\Microchip\xc8\v2.00\pic\include\pic18f4550.h"
   458                           UFRML equ 0F66h ;# 
   459  0000                     # 336 "C:\Program Files (x86)\Microchip\xc8\v2.00\pic\include\pic18f4550.h"
   460                           UFRMH equ 0F67h ;# 
   461  0000                     # 376 "C:\Program Files (x86)\Microchip\xc8\v2.00\pic\include\pic18f4550.h"
   462                           UIR equ 0F68h ;# 
   463  0000                     # 432 "C:\Program Files (x86)\Microchip\xc8\v2.00\pic\include\pic18f4550.h"
   464                           UIE equ 0F69h ;# 
   465  0000                     # 488 "C:\Program Files (x86)\Microchip\xc8\v2.00\pic\include\pic18f4550.h"
   466                           UEIR equ 0F6Ah ;# 
   467  0000                     # 539 "C:\Program Files (x86)\Microchip\xc8\v2.00\pic\include\pic18f4550.h"
   468                           UEIE equ 0F6Bh ;# 
   469  0000                     # 590 "C:\Program Files (x86)\Microchip\xc8\v2.00\pic\include\pic18f4550.h"
   470                           USTAT equ 0F6Ch ;# 
   471  0000                     # 650 "C:\Program Files (x86)\Microchip\xc8\v2.00\pic\include\pic18f4550.h"
   472                           UCON equ 0F6Dh ;# 
   473  0000                     # 701 "C:\Program Files (x86)\Microchip\xc8\v2.00\pic\include\pic18f4550.h"
   474                           UADDR equ 0F6Eh ;# 
   475  0000                     # 765 "C:\Program Files (x86)\Microchip\xc8\v2.00\pic\include\pic18f4550.h"
   476                           UCFG equ 0F6Fh ;# 
   477  0000                     # 844 "C:\Program Files (x86)\Microchip\xc8\v2.00\pic\include\pic18f4550.h"
   478                           UEP0 equ 0F70h ;# 
   479  0000                     # 952 "C:\Program Files (x86)\Microchip\xc8\v2.00\pic\include\pic18f4550.h"
   480                           UEP1 equ 0F71h ;# 
   481  0000                     # 1060 "C:\Program Files (x86)\Microchip\xc8\v2.00\pic\include\pic18f4550.h"
   482                           UEP2 equ 0F72h ;# 
   483  0000                     # 1168 "C:\Program Files (x86)\Microchip\xc8\v2.00\pic\include\pic18f4550.h"
   484                           UEP3 equ 0F73h ;# 
   485  0000                     # 1276 "C:\Program Files (x86)\Microchip\xc8\v2.00\pic\include\pic18f4550.h"
   486                           UEP4 equ 0F74h ;# 
   487  0000                     # 1384 "C:\Program Files (x86)\Microchip\xc8\v2.00\pic\include\pic18f4550.h"
   488                           UEP5 equ 0F75h ;# 
   489  0000                     # 1492 "C:\Program Files (x86)\Microchip\xc8\v2.00\pic\include\pic18f4550.h"
   490                           UEP6 equ 0F76h ;# 
   491  0000                     # 1600 "C:\Program Files (x86)\Microchip\xc8\v2.00\pic\include\pic18f4550.h"
   492                           UEP7 equ 0F77h ;# 
   493  0000                     # 1708 "C:\Program Files (x86)\Microchip\xc8\v2.00\pic\include\pic18f4550.h"
   494                           UEP8 equ 0F78h ;# 
   495  0000                     # 1784 "C:\Program Files (x86)\Microchip\xc8\v2.00\pic\include\pic18f4550.h"
   496                           UEP9 equ 0F79h ;# 
   497  0000                     # 1860 "C:\Program Files (x86)\Microchip\xc8\v2.00\pic\include\pic18f4550.h"
   498                           UEP10 equ 0F7Ah ;# 
   499  0000                     # 1936 "C:\Program Files (x86)\Microchip\xc8\v2.00\pic\include\pic18f4550.h"
   500                           UEP11 equ 0F7Bh ;# 
   501  0000                     # 2012 "C:\Program Files (x86)\Microchip\xc8\v2.00\pic\include\pic18f4550.h"
   502                           UEP12 equ 0F7Ch ;# 
   503  0000                     # 2088 "C:\Program Files (x86)\Microchip\xc8\v2.00\pic\include\pic18f4550.h"
   504                           UEP13 equ 0F7Dh ;# 
   505  0000                     # 2164 "C:\Program Files (x86)\Microchip\xc8\v2.00\pic\include\pic18f4550.h"
   506                           UEP14 equ 0F7Eh ;# 
   507  0000                     # 2240 "C:\Program Files (x86)\Microchip\xc8\v2.00\pic\include\pic18f4550.h"
   508                           UEP15 equ 0F7Fh ;# 
   509  0000                     # 2316 "C:\Program Files (x86)\Microchip\xc8\v2.00\pic\include\pic18f4550.h"
   510                           PORTA equ 0F80h ;# 
   511  0000                     # 2455 "C:\Program Files (x86)\Microchip\xc8\v2.00\pic\include\pic18f4550.h"
   512                           PORTB equ 0F81h ;# 
   513  0000                     # 2565 "C:\Program Files (x86)\Microchip\xc8\v2.00\pic\include\pic18f4550.h"
   514                           PORTC equ 0F82h ;# 
   515  0000                     # 2707 "C:\Program Files (x86)\Microchip\xc8\v2.00\pic\include\pic18f4550.h"
   516                           PORTD equ 0F83h ;# 
   517  0000                     # 2828 "C:\Program Files (x86)\Microchip\xc8\v2.00\pic\include\pic18f4550.h"
   518                           PORTE equ 0F84h ;# 
   519  0000                     # 2975 "C:\Program Files (x86)\Microchip\xc8\v2.00\pic\include\pic18f4550.h"
   520                           LATA equ 0F89h ;# 
   521  0000                     # 3075 "C:\Program Files (x86)\Microchip\xc8\v2.00\pic\include\pic18f4550.h"
   522                           LATB equ 0F8Ah ;# 
   523  0000                     # 3187 "C:\Program Files (x86)\Microchip\xc8\v2.00\pic\include\pic18f4550.h"
   524                           LATC equ 0F8Bh ;# 
   525  0000                     # 3265 "C:\Program Files (x86)\Microchip\xc8\v2.00\pic\include\pic18f4550.h"
   526                           LATD equ 0F8Ch ;# 
   527  0000                     # 3377 "C:\Program Files (x86)\Microchip\xc8\v2.00\pic\include\pic18f4550.h"
   528                           LATE equ 0F8Dh ;# 
   529  0000                     # 3429 "C:\Program Files (x86)\Microchip\xc8\v2.00\pic\include\pic18f4550.h"
   530                           TRISA equ 0F92h ;# 
   531  0000                     # 3434 "C:\Program Files (x86)\Microchip\xc8\v2.00\pic\include\pic18f4550.h"
   532                           DDRA equ 0F92h ;# 
   533  0000                     # 3627 "C:\Program Files (x86)\Microchip\xc8\v2.00\pic\include\pic18f4550.h"
   534                           TRISB equ 0F93h ;# 
   535  0000                     # 3632 "C:\Program Files (x86)\Microchip\xc8\v2.00\pic\include\pic18f4550.h"
   536                           DDRB equ 0F93h ;# 
   537  0000                     # 3849 "C:\Program Files (x86)\Microchip\xc8\v2.00\pic\include\pic18f4550.h"
   538                           TRISC equ 0F94h ;# 
   539  0000                     # 3854 "C:\Program Files (x86)\Microchip\xc8\v2.00\pic\include\pic18f4550.h"
   540                           DDRC equ 0F94h ;# 
   541  0000                     # 4003 "C:\Program Files (x86)\Microchip\xc8\v2.00\pic\include\pic18f4550.h"
   542                           TRISD equ 0F95h ;# 
   543  0000                     # 4008 "C:\Program Files (x86)\Microchip\xc8\v2.00\pic\include\pic18f4550.h"
   544                           DDRD equ 0F95h ;# 
   545  0000                     # 4225 "C:\Program Files (x86)\Microchip\xc8\v2.00\pic\include\pic18f4550.h"
   546                           TRISE equ 0F96h ;# 
   547  0000                     # 4230 "C:\Program Files (x86)\Microchip\xc8\v2.00\pic\include\pic18f4550.h"
   548                           DDRE equ 0F96h ;# 
   549  0000                     # 4327 "C:\Program Files (x86)\Microchip\xc8\v2.00\pic\include\pic18f4550.h"
   550                           OSCTUNE equ 0F9Bh ;# 
   551  0000                     # 4386 "C:\Program Files (x86)\Microchip\xc8\v2.00\pic\include\pic18f4550.h"
   552                           PIE1 equ 0F9Dh ;# 
   553  0000                     # 4470 "C:\Program Files (x86)\Microchip\xc8\v2.00\pic\include\pic18f4550.h"
   554                           PIR1 equ 0F9Eh ;# 
   555  0000                     # 4554 "C:\Program Files (x86)\Microchip\xc8\v2.00\pic\include\pic18f4550.h"
   556                           IPR1 equ 0F9Fh ;# 
   557  0000                     # 4638 "C:\Program Files (x86)\Microchip\xc8\v2.00\pic\include\pic18f4550.h"
   558                           PIE2 equ 0FA0h ;# 
   559  0000                     # 4709 "C:\Program Files (x86)\Microchip\xc8\v2.00\pic\include\pic18f4550.h"
   560                           PIR2 equ 0FA1h ;# 
   561  0000                     # 4780 "C:\Program Files (x86)\Microchip\xc8\v2.00\pic\include\pic18f4550.h"
   562                           IPR2 equ 0FA2h ;# 
   563  0000                     # 4851 "C:\Program Files (x86)\Microchip\xc8\v2.00\pic\include\pic18f4550.h"
   564                           EECON1 equ 0FA6h ;# 
   565  0000                     # 4917 "C:\Program Files (x86)\Microchip\xc8\v2.00\pic\include\pic18f4550.h"
   566                           EECON2 equ 0FA7h ;# 
   567  0000                     # 4924 "C:\Program Files (x86)\Microchip\xc8\v2.00\pic\include\pic18f4550.h"
   568                           EEDATA equ 0FA8h ;# 
   569  0000                     # 4931 "C:\Program Files (x86)\Microchip\xc8\v2.00\pic\include\pic18f4550.h"
   570                           EEADR equ 0FA9h ;# 
   571  0000                     # 4938 "C:\Program Files (x86)\Microchip\xc8\v2.00\pic\include\pic18f4550.h"
   572                           RCSTA equ 0FABh ;# 
   573  0000                     # 4943 "C:\Program Files (x86)\Microchip\xc8\v2.00\pic\include\pic18f4550.h"
   574                           RCSTA1 equ 0FABh ;# 
   575  0000                     # 5148 "C:\Program Files (x86)\Microchip\xc8\v2.00\pic\include\pic18f4550.h"
   576                           TXSTA equ 0FACh ;# 
   577  0000                     # 5153 "C:\Program Files (x86)\Microchip\xc8\v2.00\pic\include\pic18f4550.h"
   578                           TXSTA1 equ 0FACh ;# 
   579  0000                     # 5404 "C:\Program Files (x86)\Microchip\xc8\v2.00\pic\include\pic18f4550.h"
   580                           TXREG equ 0FADh ;# 
   581  0000                     # 5409 "C:\Program Files (x86)\Microchip\xc8\v2.00\pic\include\pic18f4550.h"
   582                           TXREG1 equ 0FADh ;# 
   583  0000                     # 5416 "C:\Program Files (x86)\Microchip\xc8\v2.00\pic\include\pic18f4550.h"
   584                           RCREG equ 0FAEh ;# 
   585  0000                     # 5421 "C:\Program Files (x86)\Microchip\xc8\v2.00\pic\include\pic18f4550.h"
   586                           RCREG1 equ 0FAEh ;# 
   587  0000                     # 5428 "C:\Program Files (x86)\Microchip\xc8\v2.00\pic\include\pic18f4550.h"
   588                           SPBRG equ 0FAFh ;# 
   589  0000                     # 5433 "C:\Program Files (x86)\Microchip\xc8\v2.00\pic\include\pic18f4550.h"
   590                           SPBRG1 equ 0FAFh ;# 
   591  0000                     # 5440 "C:\Program Files (x86)\Microchip\xc8\v2.00\pic\include\pic18f4550.h"
   592                           SPBRGH equ 0FB0h ;# 
   593  0000                     # 5447 "C:\Program Files (x86)\Microchip\xc8\v2.00\pic\include\pic18f4550.h"
   594                           T3CON equ 0FB1h ;# 
   595  0000                     # 5568 "C:\Program Files (x86)\Microchip\xc8\v2.00\pic\include\pic18f4550.h"
   596                           TMR3 equ 0FB2h ;# 
   597  0000                     # 5575 "C:\Program Files (x86)\Microchip\xc8\v2.00\pic\include\pic18f4550.h"
   598                           TMR3L equ 0FB2h ;# 
   599  0000                     # 5582 "C:\Program Files (x86)\Microchip\xc8\v2.00\pic\include\pic18f4550.h"
   600                           TMR3H equ 0FB3h ;# 
   601  0000                     # 5589 "C:\Program Files (x86)\Microchip\xc8\v2.00\pic\include\pic18f4550.h"
   602                           CMCON equ 0FB4h ;# 
   603  0000                     # 5679 "C:\Program Files (x86)\Microchip\xc8\v2.00\pic\include\pic18f4550.h"
   604                           CVRCON equ 0FB5h ;# 
   605  0000                     # 5764 "C:\Program Files (x86)\Microchip\xc8\v2.00\pic\include\pic18f4550.h"
   606                           ECCP1AS equ 0FB6h ;# 
   607  0000                     # 5769 "C:\Program Files (x86)\Microchip\xc8\v2.00\pic\include\pic18f4550.h"
   608                           CCP1AS equ 0FB6h ;# 
   609  0000                     # 5926 "C:\Program Files (x86)\Microchip\xc8\v2.00\pic\include\pic18f4550.h"
   610                           ECCP1DEL equ 0FB7h ;# 
   611  0000                     # 5931 "C:\Program Files (x86)\Microchip\xc8\v2.00\pic\include\pic18f4550.h"
   612                           CCP1DEL equ 0FB7h ;# 
   613  0000                     # 6064 "C:\Program Files (x86)\Microchip\xc8\v2.00\pic\include\pic18f4550.h"
   614                           BAUDCON equ 0FB8h ;# 
   615  0000                     # 6069 "C:\Program Files (x86)\Microchip\xc8\v2.00\pic\include\pic18f4550.h"
   616                           BAUDCTL equ 0FB8h ;# 
   617  0000                     # 6244 "C:\Program Files (x86)\Microchip\xc8\v2.00\pic\include\pic18f4550.h"
   618                           CCP2CON equ 0FBAh ;# 
   619  0000                     # 6308 "C:\Program Files (x86)\Microchip\xc8\v2.00\pic\include\pic18f4550.h"
   620                           CCPR2 equ 0FBBh ;# 
   621  0000                     # 6315 "C:\Program Files (x86)\Microchip\xc8\v2.00\pic\include\pic18f4550.h"
   622                           CCPR2L equ 0FBBh ;# 
   623  0000                     # 6322 "C:\Program Files (x86)\Microchip\xc8\v2.00\pic\include\pic18f4550.h"
   624                           CCPR2H equ 0FBCh ;# 
   625  0000                     # 6329 "C:\Program Files (x86)\Microchip\xc8\v2.00\pic\include\pic18f4550.h"
   626                           CCP1CON equ 0FBDh ;# 
   627  0000                     # 6334 "C:\Program Files (x86)\Microchip\xc8\v2.00\pic\include\pic18f4550.h"
   628                           ECCP1CON equ 0FBDh ;# 
   629  0000                     # 6491 "C:\Program Files (x86)\Microchip\xc8\v2.00\pic\include\pic18f4550.h"
   630                           CCPR1 equ 0FBEh ;# 
   631  0000                     # 6498 "C:\Program Files (x86)\Microchip\xc8\v2.00\pic\include\pic18f4550.h"
   632                           CCPR1L equ 0FBEh ;# 
   633  0000                     # 6505 "C:\Program Files (x86)\Microchip\xc8\v2.00\pic\include\pic18f4550.h"
   634                           CCPR1H equ 0FBFh ;# 
   635  0000                     # 6512 "C:\Program Files (x86)\Microchip\xc8\v2.00\pic\include\pic18f4550.h"
   636                           ADCON2 equ 0FC0h ;# 
   637  0000                     # 6583 "C:\Program Files (x86)\Microchip\xc8\v2.00\pic\include\pic18f4550.h"
   638                           ADCON1 equ 0FC1h ;# 
   639  0000                     # 6668 "C:\Program Files (x86)\Microchip\xc8\v2.00\pic\include\pic18f4550.h"
   640                           ADCON0 equ 0FC2h ;# 
   641  0000                     # 6787 "C:\Program Files (x86)\Microchip\xc8\v2.00\pic\include\pic18f4550.h"
   642                           ADRES equ 0FC3h ;# 
   643  0000                     # 6794 "C:\Program Files (x86)\Microchip\xc8\v2.00\pic\include\pic18f4550.h"
   644                           ADRESL equ 0FC3h ;# 
   645  0000                     # 6801 "C:\Program Files (x86)\Microchip\xc8\v2.00\pic\include\pic18f4550.h"
   646                           ADRESH equ 0FC4h ;# 
   647  0000                     # 6808 "C:\Program Files (x86)\Microchip\xc8\v2.00\pic\include\pic18f4550.h"
   648                           SSPCON2 equ 0FC5h ;# 
   649  0000                     # 6870 "C:\Program Files (x86)\Microchip\xc8\v2.00\pic\include\pic18f4550.h"
   650                           SSPCON1 equ 0FC6h ;# 
   651  0000                     # 6940 "C:\Program Files (x86)\Microchip\xc8\v2.00\pic\include\pic18f4550.h"
   652                           SSPSTAT equ 0FC7h ;# 
   653  0000                     # 7188 "C:\Program Files (x86)\Microchip\xc8\v2.00\pic\include\pic18f4550.h"
   654                           SSPADD equ 0FC8h ;# 
   655  0000                     # 7195 "C:\Program Files (x86)\Microchip\xc8\v2.00\pic\include\pic18f4550.h"
   656                           SSPBUF equ 0FC9h ;# 
   657  0000                     # 7202 "C:\Program Files (x86)\Microchip\xc8\v2.00\pic\include\pic18f4550.h"
   658                           T2CON equ 0FCAh ;# 
   659  0000                     # 7300 "C:\Program Files (x86)\Microchip\xc8\v2.00\pic\include\pic18f4550.h"
   660                           PR2 equ 0FCBh ;# 
   661  0000                     # 7305 "C:\Program Files (x86)\Microchip\xc8\v2.00\pic\include\pic18f4550.h"
   662                           MEMCON equ 0FCBh ;# 
   663  0000                     # 7410 "C:\Program Files (x86)\Microchip\xc8\v2.00\pic\include\pic18f4550.h"
   664                           TMR2 equ 0FCCh ;# 
   665  0000                     # 7417 "C:\Program Files (x86)\Microchip\xc8\v2.00\pic\include\pic18f4550.h"
   666                           T1CON equ 0FCDh ;# 
   667  0000                     # 7520 "C:\Program Files (x86)\Microchip\xc8\v2.00\pic\include\pic18f4550.h"
   668                           TMR1 equ 0FCEh ;# 
   669  0000                     # 7527 "C:\Program Files (x86)\Microchip\xc8\v2.00\pic\include\pic18f4550.h"
   670                           TMR1L equ 0FCEh ;# 
   671  0000                     # 7534 "C:\Program Files (x86)\Microchip\xc8\v2.00\pic\include\pic18f4550.h"
   672                           TMR1H equ 0FCFh ;# 
   673  0000                     # 7541 "C:\Program Files (x86)\Microchip\xc8\v2.00\pic\include\pic18f4550.h"
   674                           RCON equ 0FD0h ;# 
   675  0000                     # 7690 "C:\Program Files (x86)\Microchip\xc8\v2.00\pic\include\pic18f4550.h"
   676                           WDTCON equ 0FD1h ;# 
   677  0000                     # 7718 "C:\Program Files (x86)\Microchip\xc8\v2.00\pic\include\pic18f4550.h"
   678                           HLVDCON equ 0FD2h ;# 
   679  0000                     # 7723 "C:\Program Files (x86)\Microchip\xc8\v2.00\pic\include\pic18f4550.h"
   680                           LVDCON equ 0FD2h ;# 
   681  0000                     # 7988 "C:\Program Files (x86)\Microchip\xc8\v2.00\pic\include\pic18f4550.h"
   682                           OSCCON equ 0FD3h ;# 
   683  0000                     # 8071 "C:\Program Files (x86)\Microchip\xc8\v2.00\pic\include\pic18f4550.h"
   684                           T0CON equ 0FD5h ;# 
   685  0000                     # 8141 "C:\Program Files (x86)\Microchip\xc8\v2.00\pic\include\pic18f4550.h"
   686                           TMR0 equ 0FD6h ;# 
   687  0000                     # 8148 "C:\Program Files (x86)\Microchip\xc8\v2.00\pic\include\pic18f4550.h"
   688                           TMR0L equ 0FD6h ;# 
   689  0000                     # 8155 "C:\Program Files (x86)\Microchip\xc8\v2.00\pic\include\pic18f4550.h"
   690                           TMR0H equ 0FD7h ;# 
   691  0000                     # 8162 "C:\Program Files (x86)\Microchip\xc8\v2.00\pic\include\pic18f4550.h"
   692                           STATUS equ 0FD8h ;# 
   693  0000                     # 8233 "C:\Program Files (x86)\Microchip\xc8\v2.00\pic\include\pic18f4550.h"
   694                           FSR2 equ 0FD9h ;# 
   695  0000                     # 8240 "C:\Program Files (x86)\Microchip\xc8\v2.00\pic\include\pic18f4550.h"
   696                           FSR2L equ 0FD9h ;# 
   697  0000                     # 8247 "C:\Program Files (x86)\Microchip\xc8\v2.00\pic\include\pic18f4550.h"
   698                           FSR2H equ 0FDAh ;# 
   699  0000                     # 8254 "C:\Program Files (x86)\Microchip\xc8\v2.00\pic\include\pic18f4550.h"
   700                           PLUSW2 equ 0FDBh ;# 
   701  0000                     # 8261 "C:\Program Files (x86)\Microchip\xc8\v2.00\pic\include\pic18f4550.h"
   702                           PREINC2 equ 0FDCh ;# 
   703  0000                     # 8268 "C:\Program Files (x86)\Microchip\xc8\v2.00\pic\include\pic18f4550.h"
   704                           POSTDEC2 equ 0FDDh ;# 
   705  0000                     # 8275 "C:\Program Files (x86)\Microchip\xc8\v2.00\pic\include\pic18f4550.h"
   706                           POSTINC2 equ 0FDEh ;# 
   707  0000                     # 8282 "C:\Program Files (x86)\Microchip\xc8\v2.00\pic\include\pic18f4550.h"
   708                           INDF2 equ 0FDFh ;# 
   709  0000                     # 8289 "C:\Program Files (x86)\Microchip\xc8\v2.00\pic\include\pic18f4550.h"
   710                           BSR equ 0FE0h ;# 
   711  0000                     # 8296 "C:\Program Files (x86)\Microchip\xc8\v2.00\pic\include\pic18f4550.h"
   712                           FSR1 equ 0FE1h ;# 
   713  0000                     # 8303 "C:\Program Files (x86)\Microchip\xc8\v2.00\pic\include\pic18f4550.h"
   714                           FSR1L equ 0FE1h ;# 
   715  0000                     # 8310 "C:\Program Files (x86)\Microchip\xc8\v2.00\pic\include\pic18f4550.h"
   716                           FSR1H equ 0FE2h ;# 
   717  0000                     # 8317 "C:\Program Files (x86)\Microchip\xc8\v2.00\pic\include\pic18f4550.h"
   718                           PLUSW1 equ 0FE3h ;# 
   719  0000                     # 8324 "C:\Program Files (x86)\Microchip\xc8\v2.00\pic\include\pic18f4550.h"
   720                           PREINC1 equ 0FE4h ;# 
   721  0000                     # 8331 "C:\Program Files (x86)\Microchip\xc8\v2.00\pic\include\pic18f4550.h"
   722                           POSTDEC1 equ 0FE5h ;# 
   723  0000                     # 8338 "C:\Program Files (x86)\Microchip\xc8\v2.00\pic\include\pic18f4550.h"
   724                           POSTINC1 equ 0FE6h ;# 
   725  0000                     # 8345 "C:\Program Files (x86)\Microchip\xc8\v2.00\pic\include\pic18f4550.h"
   726                           INDF1 equ 0FE7h ;# 
   727  0000                     # 8352 "C:\Program Files (x86)\Microchip\xc8\v2.00\pic\include\pic18f4550.h"
   728                           WREG equ 0FE8h ;# 
   729  0000                     # 8359 "C:\Program Files (x86)\Microchip\xc8\v2.00\pic\include\pic18f4550.h"
   730                           FSR0 equ 0FE9h ;# 
   731  0000                     # 8366 "C:\Program Files (x86)\Microchip\xc8\v2.00\pic\include\pic18f4550.h"
   732                           FSR0L equ 0FE9h ;# 
   733  0000                     # 8373 "C:\Program Files (x86)\Microchip\xc8\v2.00\pic\include\pic18f4550.h"
   734                           FSR0H equ 0FEAh ;# 
   735  0000                     # 8380 "C:\Program Files (x86)\Microchip\xc8\v2.00\pic\include\pic18f4550.h"
   736                           PLUSW0 equ 0FEBh ;# 
   737  0000                     # 8387 "C:\Program Files (x86)\Microchip\xc8\v2.00\pic\include\pic18f4550.h"
   738                           PREINC0 equ 0FECh ;# 
   739  0000                     # 8394 "C:\Program Files (x86)\Microchip\xc8\v2.00\pic\include\pic18f4550.h"
   740                           POSTDEC0 equ 0FEDh ;# 
   741  0000                     # 8401 "C:\Program Files (x86)\Microchip\xc8\v2.00\pic\include\pic18f4550.h"
   742                           POSTINC0 equ 0FEEh ;# 
   743  0000                     # 8408 "C:\Program Files (x86)\Microchip\xc8\v2.00\pic\include\pic18f4550.h"
   744                           INDF0 equ 0FEFh ;# 
   745  0000                     # 8415 "C:\Program Files (x86)\Microchip\xc8\v2.00\pic\include\pic18f4550.h"
   746                           INTCON3 equ 0FF0h ;# 
   747  0000                     # 8507 "C:\Program Files (x86)\Microchip\xc8\v2.00\pic\include\pic18f4550.h"
   748                           INTCON2 equ 0FF1h ;# 
   749  0000                     # 8584 "C:\Program Files (x86)\Microchip\xc8\v2.00\pic\include\pic18f4550.h"
   750                           INTCON equ 0FF2h ;# 
   751  0000                     # 8701 "C:\Program Files (x86)\Microchip\xc8\v2.00\pic\include\pic18f4550.h"
   752                           PROD equ 0FF3h ;# 
   753  0000                     # 8708 "C:\Program Files (x86)\Microchip\xc8\v2.00\pic\include\pic18f4550.h"
   754                           PRODL equ 0FF3h ;# 
   755  0000                     # 8715 "C:\Program Files (x86)\Microchip\xc8\v2.00\pic\include\pic18f4550.h"
   756                           PRODH equ 0FF4h ;# 
   757  0000                     # 8722 "C:\Program Files (x86)\Microchip\xc8\v2.00\pic\include\pic18f4550.h"
   758                           TABLAT equ 0FF5h ;# 
   759  0000                     # 8731 "C:\Program Files (x86)\Microchip\xc8\v2.00\pic\include\pic18f4550.h"
   760                           TBLPTR equ 0FF6h ;# 
   761  0000                     # 8738 "C:\Program Files (x86)\Microchip\xc8\v2.00\pic\include\pic18f4550.h"
   762                           TBLPTRL equ 0FF6h ;# 
   763  0000                     # 8745 "C:\Program Files (x86)\Microchip\xc8\v2.00\pic\include\pic18f4550.h"
   764                           TBLPTRH equ 0FF7h ;# 
   765  0000                     # 8752 "C:\Program Files (x86)\Microchip\xc8\v2.00\pic\include\pic18f4550.h"
   766                           TBLPTRU equ 0FF8h ;# 
   767  0000                     # 8761 "C:\Program Files (x86)\Microchip\xc8\v2.00\pic\include\pic18f4550.h"
   768                           PCLAT equ 0FF9h ;# 
   769  0000                     # 8768 "C:\Program Files (x86)\Microchip\xc8\v2.00\pic\include\pic18f4550.h"
   770                           PC equ 0FF9h ;# 
   771  0000                     # 8775 "C:\Program Files (x86)\Microchip\xc8\v2.00\pic\include\pic18f4550.h"
   772                           PCL equ 0FF9h ;# 
   773  0000                     # 8782 "C:\Program Files (x86)\Microchip\xc8\v2.00\pic\include\pic18f4550.h"
   774                           PCLATH equ 0FFAh ;# 
   775  0000                     # 8789 "C:\Program Files (x86)\Microchip\xc8\v2.00\pic\include\pic18f4550.h"
   776                           PCLATU equ 0FFBh ;# 
   777  0000                     # 8796 "C:\Program Files (x86)\Microchip\xc8\v2.00\pic\include\pic18f4550.h"
   778                           STKPTR equ 0FFCh ;# 
   779  0000                     # 8872 "C:\Program Files (x86)\Microchip\xc8\v2.00\pic\include\pic18f4550.h"
   780                           TOS equ 0FFDh ;# 
   781  0000                     # 8879 "C:\Program Files (x86)\Microchip\xc8\v2.00\pic\include\pic18f4550.h"
   782                           TOSL equ 0FFDh ;# 
   783  0000                     # 8886 "C:\Program Files (x86)\Microchip\xc8\v2.00\pic\include\pic18f4550.h"
   784                           TOSH equ 0FFEh ;# 
   785  0000                     # 8893 "C:\Program Files (x86)\Microchip\xc8\v2.00\pic\include\pic18f4550.h"
   786                           TOSU equ 0FFFh ;# 
   787  0000                     # 54 "C:\Program Files (x86)\Microchip\xc8\v2.00\pic\include\pic18f4550.h"
   788                           SPPDATA equ 0F62h ;# 
   789  0000                     # 74 "C:\Program Files (x86)\Microchip\xc8\v2.00\pic\include\pic18f4550.h"
   790                           SPPCFG equ 0F63h ;# 
   791  0000                     # 151 "C:\Program Files (x86)\Microchip\xc8\v2.00\pic\include\pic18f4550.h"
   792                           SPPEPS equ 0F64h ;# 
   793  0000                     # 225 "C:\Program Files (x86)\Microchip\xc8\v2.00\pic\include\pic18f4550.h"
   794                           SPPCON equ 0F65h ;# 
   795  0000                     # 251 "C:\Program Files (x86)\Microchip\xc8\v2.00\pic\include\pic18f4550.h"
   796                           UFRM equ 0F66h ;# 
   797  0000                     # 258 "C:\Program Files (x86)\Microchip\xc8\v2.00\pic\include\pic18f4550.h"
   798                           UFRML equ 0F66h ;# 
   799  0000                     # 336 "C:\Program Files (x86)\Microchip\xc8\v2.00\pic\include\pic18f4550.h"
   800                           UFRMH equ 0F67h ;# 
   801  0000                     # 376 "C:\Program Files (x86)\Microchip\xc8\v2.00\pic\include\pic18f4550.h"
   802                           UIR equ 0F68h ;# 
   803  0000                     # 432 "C:\Program Files (x86)\Microchip\xc8\v2.00\pic\include\pic18f4550.h"
   804                           UIE equ 0F69h ;# 
   805  0000                     # 488 "C:\Program Files (x86)\Microchip\xc8\v2.00\pic\include\pic18f4550.h"
   806                           UEIR equ 0F6Ah ;# 
   807  0000                     # 539 "C:\Program Files (x86)\Microchip\xc8\v2.00\pic\include\pic18f4550.h"
   808                           UEIE equ 0F6Bh ;# 
   809  0000                     # 590 "C:\Program Files (x86)\Microchip\xc8\v2.00\pic\include\pic18f4550.h"
   810                           USTAT equ 0F6Ch ;# 
   811  0000                     # 650 "C:\Program Files (x86)\Microchip\xc8\v2.00\pic\include\pic18f4550.h"
   812                           UCON equ 0F6Dh ;# 
   813  0000                     # 701 "C:\Program Files (x86)\Microchip\xc8\v2.00\pic\include\pic18f4550.h"
   814                           UADDR equ 0F6Eh ;# 
   815  0000                     # 765 "C:\Program Files (x86)\Microchip\xc8\v2.00\pic\include\pic18f4550.h"
   816                           UCFG equ 0F6Fh ;# 
   817  0000                     # 844 "C:\Program Files (x86)\Microchip\xc8\v2.00\pic\include\pic18f4550.h"
   818                           UEP0 equ 0F70h ;# 
   819  0000                     # 952 "C:\Program Files (x86)\Microchip\xc8\v2.00\pic\include\pic18f4550.h"
   820                           UEP1 equ 0F71h ;# 
   821  0000                     # 1060 "C:\Program Files (x86)\Microchip\xc8\v2.00\pic\include\pic18f4550.h"
   822                           UEP2 equ 0F72h ;# 
   823  0000                     # 1168 "C:\Program Files (x86)\Microchip\xc8\v2.00\pic\include\pic18f4550.h"
   824                           UEP3 equ 0F73h ;# 
   825  0000                     # 1276 "C:\Program Files (x86)\Microchip\xc8\v2.00\pic\include\pic18f4550.h"
   826                           UEP4 equ 0F74h ;# 
   827  0000                     # 1384 "C:\Program Files (x86)\Microchip\xc8\v2.00\pic\include\pic18f4550.h"
   828                           UEP5 equ 0F75h ;# 
   829  0000                     # 1492 "C:\Program Files (x86)\Microchip\xc8\v2.00\pic\include\pic18f4550.h"
   830                           UEP6 equ 0F76h ;# 
   831  0000                     # 1600 "C:\Program Files (x86)\Microchip\xc8\v2.00\pic\include\pic18f4550.h"
   832                           UEP7 equ 0F77h ;# 
   833  0000                     # 1708 "C:\Program Files (x86)\Microchip\xc8\v2.00\pic\include\pic18f4550.h"
   834                           UEP8 equ 0F78h ;# 
   835  0000                     # 1784 "C:\Program Files (x86)\Microchip\xc8\v2.00\pic\include\pic18f4550.h"
   836                           UEP9 equ 0F79h ;# 
   837  0000                     # 1860 "C:\Program Files (x86)\Microchip\xc8\v2.00\pic\include\pic18f4550.h"
   838                           UEP10 equ 0F7Ah ;# 
   839  0000                     # 1936 "C:\Program Files (x86)\Microchip\xc8\v2.00\pic\include\pic18f4550.h"
   840                           UEP11 equ 0F7Bh ;# 
   841  0000                     # 2012 "C:\Program Files (x86)\Microchip\xc8\v2.00\pic\include\pic18f4550.h"
   842                           UEP12 equ 0F7Ch ;# 
   843  0000                     # 2088 "C:\Program Files (x86)\Microchip\xc8\v2.00\pic\include\pic18f4550.h"
   844                           UEP13 equ 0F7Dh ;# 
   845  0000                     # 2164 "C:\Program Files (x86)\Microchip\xc8\v2.00\pic\include\pic18f4550.h"
   846                           UEP14 equ 0F7Eh ;# 
   847  0000                     # 2240 "C:\Program Files (x86)\Microchip\xc8\v2.00\pic\include\pic18f4550.h"
   848                           UEP15 equ 0F7Fh ;# 
   849  0000                     # 2316 "C:\Program Files (x86)\Microchip\xc8\v2.00\pic\include\pic18f4550.h"
   850                           PORTA equ 0F80h ;# 
   851  0000                     # 2455 "C:\Program Files (x86)\Microchip\xc8\v2.00\pic\include\pic18f4550.h"
   852                           PORTB equ 0F81h ;# 
   853  0000                     # 2565 "C:\Program Files (x86)\Microchip\xc8\v2.00\pic\include\pic18f4550.h"
   854                           PORTC equ 0F82h ;# 
   855  0000                     # 2707 "C:\Program Files (x86)\Microchip\xc8\v2.00\pic\include\pic18f4550.h"
   856                           PORTD equ 0F83h ;# 
   857  0000                     # 2828 "C:\Program Files (x86)\Microchip\xc8\v2.00\pic\include\pic18f4550.h"
   858                           PORTE equ 0F84h ;# 
   859  0000                     # 2975 "C:\Program Files (x86)\Microchip\xc8\v2.00\pic\include\pic18f4550.h"
   860                           LATA equ 0F89h ;# 
   861  0000                     # 3075 "C:\Program Files (x86)\Microchip\xc8\v2.00\pic\include\pic18f4550.h"
   862                           LATB equ 0F8Ah ;# 
   863  0000                     # 3187 "C:\Program Files (x86)\Microchip\xc8\v2.00\pic\include\pic18f4550.h"
   864                           LATC equ 0F8Bh ;# 
   865  0000                     # 3265 "C:\Program Files (x86)\Microchip\xc8\v2.00\pic\include\pic18f4550.h"
   866                           LATD equ 0F8Ch ;# 
   867  0000                     # 3377 "C:\Program Files (x86)\Microchip\xc8\v2.00\pic\include\pic18f4550.h"
   868                           LATE equ 0F8Dh ;# 
   869  0000                     # 3429 "C:\Program Files (x86)\Microchip\xc8\v2.00\pic\include\pic18f4550.h"
   870                           TRISA equ 0F92h ;# 
   871  0000                     # 3434 "C:\Program Files (x86)\Microchip\xc8\v2.00\pic\include\pic18f4550.h"
   872                           DDRA equ 0F92h ;# 
   873  0000                     # 3627 "C:\Program Files (x86)\Microchip\xc8\v2.00\pic\include\pic18f4550.h"
   874                           TRISB equ 0F93h ;# 
   875  0000                     # 3632 "C:\Program Files (x86)\Microchip\xc8\v2.00\pic\include\pic18f4550.h"
   876                           DDRB equ 0F93h ;# 
   877  0000                     # 3849 "C:\Program Files (x86)\Microchip\xc8\v2.00\pic\include\pic18f4550.h"
   878                           TRISC equ 0F94h ;# 
   879  0000                     # 3854 "C:\Program Files (x86)\Microchip\xc8\v2.00\pic\include\pic18f4550.h"
   880                           DDRC equ 0F94h ;# 
   881  0000                     # 4003 "C:\Program Files (x86)\Microchip\xc8\v2.00\pic\include\pic18f4550.h"
   882                           TRISD equ 0F95h ;# 
   883  0000                     # 4008 "C:\Program Files (x86)\Microchip\xc8\v2.00\pic\include\pic18f4550.h"
   884                           DDRD equ 0F95h ;# 
   885  0000                     # 4225 "C:\Program Files (x86)\Microchip\xc8\v2.00\pic\include\pic18f4550.h"
   886                           TRISE equ 0F96h ;# 
   887  0000                     # 4230 "C:\Program Files (x86)\Microchip\xc8\v2.00\pic\include\pic18f4550.h"
   888                           DDRE equ 0F96h ;# 
   889  0000                     # 4327 "C:\Program Files (x86)\Microchip\xc8\v2.00\pic\include\pic18f4550.h"
   890                           OSCTUNE equ 0F9Bh ;# 
   891  0000                     # 4386 "C:\Program Files (x86)\Microchip\xc8\v2.00\pic\include\pic18f4550.h"
   892                           PIE1 equ 0F9Dh ;# 
   893  0000                     # 4470 "C:\Program Files (x86)\Microchip\xc8\v2.00\pic\include\pic18f4550.h"
   894                           PIR1 equ 0F9Eh ;# 
   895  0000                     # 4554 "C:\Program Files (x86)\Microchip\xc8\v2.00\pic\include\pic18f4550.h"
   896                           IPR1 equ 0F9Fh ;# 
   897  0000                     # 4638 "C:\Program Files (x86)\Microchip\xc8\v2.00\pic\include\pic18f4550.h"
   898                           PIE2 equ 0FA0h ;# 
   899  0000                     # 4709 "C:\Program Files (x86)\Microchip\xc8\v2.00\pic\include\pic18f4550.h"
   900                           PIR2 equ 0FA1h ;# 
   901  0000                     # 4780 "C:\Program Files (x86)\Microchip\xc8\v2.00\pic\include\pic18f4550.h"
   902                           IPR2 equ 0FA2h ;# 
   903  0000                     # 4851 "C:\Program Files (x86)\Microchip\xc8\v2.00\pic\include\pic18f4550.h"
   904                           EECON1 equ 0FA6h ;# 
   905  0000                     # 4917 "C:\Program Files (x86)\Microchip\xc8\v2.00\pic\include\pic18f4550.h"
   906                           EECON2 equ 0FA7h ;# 
   907  0000                     # 4924 "C:\Program Files (x86)\Microchip\xc8\v2.00\pic\include\pic18f4550.h"
   908                           EEDATA equ 0FA8h ;# 
   909  0000                     # 4931 "C:\Program Files (x86)\Microchip\xc8\v2.00\pic\include\pic18f4550.h"
   910                           EEADR equ 0FA9h ;# 
   911  0000                     # 4938 "C:\Program Files (x86)\Microchip\xc8\v2.00\pic\include\pic18f4550.h"
   912                           RCSTA equ 0FABh ;# 
   913  0000                     # 4943 "C:\Program Files (x86)\Microchip\xc8\v2.00\pic\include\pic18f4550.h"
   914                           RCSTA1 equ 0FABh ;# 
   915  0000                     # 5148 "C:\Program Files (x86)\Microchip\xc8\v2.00\pic\include\pic18f4550.h"
   916                           TXSTA equ 0FACh ;# 
   917  0000                     # 5153 "C:\Program Files (x86)\Microchip\xc8\v2.00\pic\include\pic18f4550.h"
   918                           TXSTA1 equ 0FACh ;# 
   919  0000                     # 5404 "C:\Program Files (x86)\Microchip\xc8\v2.00\pic\include\pic18f4550.h"
   920                           TXREG equ 0FADh ;# 
   921  0000                     # 5409 "C:\Program Files (x86)\Microchip\xc8\v2.00\pic\include\pic18f4550.h"
   922                           TXREG1 equ 0FADh ;# 
   923  0000                     # 5416 "C:\Program Files (x86)\Microchip\xc8\v2.00\pic\include\pic18f4550.h"
   924                           RCREG equ 0FAEh ;# 
   925  0000                     # 5421 "C:\Program Files (x86)\Microchip\xc8\v2.00\pic\include\pic18f4550.h"
   926                           RCREG1 equ 0FAEh ;# 
   927  0000                     # 5428 "C:\Program Files (x86)\Microchip\xc8\v2.00\pic\include\pic18f4550.h"
   928                           SPBRG equ 0FAFh ;# 
   929  0000                     # 5433 "C:\Program Files (x86)\Microchip\xc8\v2.00\pic\include\pic18f4550.h"
   930                           SPBRG1 equ 0FAFh ;# 
   931  0000                     # 5440 "C:\Program Files (x86)\Microchip\xc8\v2.00\pic\include\pic18f4550.h"
   932                           SPBRGH equ 0FB0h ;# 
   933  0000                     # 5447 "C:\Program Files (x86)\Microchip\xc8\v2.00\pic\include\pic18f4550.h"
   934                           T3CON equ 0FB1h ;# 
   935  0000                     # 5568 "C:\Program Files (x86)\Microchip\xc8\v2.00\pic\include\pic18f4550.h"
   936                           TMR3 equ 0FB2h ;# 
   937  0000                     # 5575 "C:\Program Files (x86)\Microchip\xc8\v2.00\pic\include\pic18f4550.h"
   938                           TMR3L equ 0FB2h ;# 
   939  0000                     # 5582 "C:\Program Files (x86)\Microchip\xc8\v2.00\pic\include\pic18f4550.h"
   940                           TMR3H equ 0FB3h ;# 
   941  0000                     # 5589 "C:\Program Files (x86)\Microchip\xc8\v2.00\pic\include\pic18f4550.h"
   942                           CMCON equ 0FB4h ;# 
   943  0000                     # 5679 "C:\Program Files (x86)\Microchip\xc8\v2.00\pic\include\pic18f4550.h"
   944                           CVRCON equ 0FB5h ;# 
   945  0000                     # 5764 "C:\Program Files (x86)\Microchip\xc8\v2.00\pic\include\pic18f4550.h"
   946                           ECCP1AS equ 0FB6h ;# 
   947  0000                     # 5769 "C:\Program Files (x86)\Microchip\xc8\v2.00\pic\include\pic18f4550.h"
   948                           CCP1AS equ 0FB6h ;# 
   949  0000                     # 5926 "C:\Program Files (x86)\Microchip\xc8\v2.00\pic\include\pic18f4550.h"
   950                           ECCP1DEL equ 0FB7h ;# 
   951  0000                     # 5931 "C:\Program Files (x86)\Microchip\xc8\v2.00\pic\include\pic18f4550.h"
   952                           CCP1DEL equ 0FB7h ;# 
   953  0000                     # 6064 "C:\Program Files (x86)\Microchip\xc8\v2.00\pic\include\pic18f4550.h"
   954                           BAUDCON equ 0FB8h ;# 
   955  0000                     # 6069 "C:\Program Files (x86)\Microchip\xc8\v2.00\pic\include\pic18f4550.h"
   956                           BAUDCTL equ 0FB8h ;# 
   957  0000                     # 6244 "C:\Program Files (x86)\Microchip\xc8\v2.00\pic\include\pic18f4550.h"
   958                           CCP2CON equ 0FBAh ;# 
   959  0000                     # 6308 "C:\Program Files (x86)\Microchip\xc8\v2.00\pic\include\pic18f4550.h"
   960                           CCPR2 equ 0FBBh ;# 
   961  0000                     # 6315 "C:\Program Files (x86)\Microchip\xc8\v2.00\pic\include\pic18f4550.h"
   962                           CCPR2L equ 0FBBh ;# 
   963  0000                     # 6322 "C:\Program Files (x86)\Microchip\xc8\v2.00\pic\include\pic18f4550.h"
   964                           CCPR2H equ 0FBCh ;# 
   965  0000                     # 6329 "C:\Program Files (x86)\Microchip\xc8\v2.00\pic\include\pic18f4550.h"
   966                           CCP1CON equ 0FBDh ;# 
   967  0000                     # 6334 "C:\Program Files (x86)\Microchip\xc8\v2.00\pic\include\pic18f4550.h"
   968                           ECCP1CON equ 0FBDh ;# 
   969  0000                     # 6491 "C:\Program Files (x86)\Microchip\xc8\v2.00\pic\include\pic18f4550.h"
   970                           CCPR1 equ 0FBEh ;# 
   971  0000                     # 6498 "C:\Program Files (x86)\Microchip\xc8\v2.00\pic\include\pic18f4550.h"
   972                           CCPR1L equ 0FBEh ;# 
   973  0000                     # 6505 "C:\Program Files (x86)\Microchip\xc8\v2.00\pic\include\pic18f4550.h"
   974                           CCPR1H equ 0FBFh ;# 
   975  0000                     # 6512 "C:\Program Files (x86)\Microchip\xc8\v2.00\pic\include\pic18f4550.h"
   976                           ADCON2 equ 0FC0h ;# 
   977  0000                     # 6583 "C:\Program Files (x86)\Microchip\xc8\v2.00\pic\include\pic18f4550.h"
   978                           ADCON1 equ 0FC1h ;# 
   979  0000                     # 6668 "C:\Program Files (x86)\Microchip\xc8\v2.00\pic\include\pic18f4550.h"
   980                           ADCON0 equ 0FC2h ;# 
   981  0000                     # 6787 "C:\Program Files (x86)\Microchip\xc8\v2.00\pic\include\pic18f4550.h"
   982                           ADRES equ 0FC3h ;# 
   983  0000                     # 6794 "C:\Program Files (x86)\Microchip\xc8\v2.00\pic\include\pic18f4550.h"
   984                           ADRESL equ 0FC3h ;# 
   985  0000                     # 6801 "C:\Program Files (x86)\Microchip\xc8\v2.00\pic\include\pic18f4550.h"
   986                           ADRESH equ 0FC4h ;# 
   987  0000                     # 6808 "C:\Program Files (x86)\Microchip\xc8\v2.00\pic\include\pic18f4550.h"
   988                           SSPCON2 equ 0FC5h ;# 
   989  0000                     # 6870 "C:\Program Files (x86)\Microchip\xc8\v2.00\pic\include\pic18f4550.h"
   990                           SSPCON1 equ 0FC6h ;# 
   991  0000                     # 6940 "C:\Program Files (x86)\Microchip\xc8\v2.00\pic\include\pic18f4550.h"
   992                           SSPSTAT equ 0FC7h ;# 
   993  0000                     # 7188 "C:\Program Files (x86)\Microchip\xc8\v2.00\pic\include\pic18f4550.h"
   994                           SSPADD equ 0FC8h ;# 
   995  0000                     # 7195 "C:\Program Files (x86)\Microchip\xc8\v2.00\pic\include\pic18f4550.h"
   996                           SSPBUF equ 0FC9h ;# 
   997  0000                     # 7202 "C:\Program Files (x86)\Microchip\xc8\v2.00\pic\include\pic18f4550.h"
   998                           T2CON equ 0FCAh ;# 
   999  0000                     # 7300 "C:\Program Files (x86)\Microchip\xc8\v2.00\pic\include\pic18f4550.h"
  1000                           PR2 equ 0FCBh ;# 
  1001  0000                     # 7305 "C:\Program Files (x86)\Microchip\xc8\v2.00\pic\include\pic18f4550.h"
  1002                           MEMCON equ 0FCBh ;# 
  1003  0000                     # 7410 "C:\Program Files (x86)\Microchip\xc8\v2.00\pic\include\pic18f4550.h"
  1004                           TMR2 equ 0FCCh ;# 
  1005  0000                     # 7417 "C:\Program Files (x86)\Microchip\xc8\v2.00\pic\include\pic18f4550.h"
  1006                           T1CON equ 0FCDh ;# 
  1007  0000                     # 7520 "C:\Program Files (x86)\Microchip\xc8\v2.00\pic\include\pic18f4550.h"
  1008                           TMR1 equ 0FCEh ;# 
  1009  0000                     # 7527 "C:\Program Files (x86)\Microchip\xc8\v2.00\pic\include\pic18f4550.h"
  1010                           TMR1L equ 0FCEh ;# 
  1011  0000                     # 7534 "C:\Program Files (x86)\Microchip\xc8\v2.00\pic\include\pic18f4550.h"
  1012                           TMR1H equ 0FCFh ;# 
  1013  0000                     # 7541 "C:\Program Files (x86)\Microchip\xc8\v2.00\pic\include\pic18f4550.h"
  1014                           RCON equ 0FD0h ;# 
  1015  0000                     # 7690 "C:\Program Files (x86)\Microchip\xc8\v2.00\pic\include\pic18f4550.h"
  1016                           WDTCON equ 0FD1h ;# 
  1017  0000                     # 7718 "C:\Program Files (x86)\Microchip\xc8\v2.00\pic\include\pic18f4550.h"
  1018                           HLVDCON equ 0FD2h ;# 
  1019  0000                     # 7723 "C:\Program Files (x86)\Microchip\xc8\v2.00\pic\include\pic18f4550.h"
  1020                           LVDCON equ 0FD2h ;# 
  1021  0000                     # 7988 "C:\Program Files (x86)\Microchip\xc8\v2.00\pic\include\pic18f4550.h"
  1022                           OSCCON equ 0FD3h ;# 
  1023  0000                     # 8071 "C:\Program Files (x86)\Microchip\xc8\v2.00\pic\include\pic18f4550.h"
  1024                           T0CON equ 0FD5h ;# 
  1025  0000                     # 8141 "C:\Program Files (x86)\Microchip\xc8\v2.00\pic\include\pic18f4550.h"
  1026                           TMR0 equ 0FD6h ;# 
  1027  0000                     # 8148 "C:\Program Files (x86)\Microchip\xc8\v2.00\pic\include\pic18f4550.h"
  1028                           TMR0L equ 0FD6h ;# 
  1029  0000                     # 8155 "C:\Program Files (x86)\Microchip\xc8\v2.00\pic\include\pic18f4550.h"
  1030                           TMR0H equ 0FD7h ;# 
  1031  0000                     # 8162 "C:\Program Files (x86)\Microchip\xc8\v2.00\pic\include\pic18f4550.h"
  1032                           STATUS equ 0FD8h ;# 
  1033  0000                     # 8233 "C:\Program Files (x86)\Microchip\xc8\v2.00\pic\include\pic18f4550.h"
  1034                           FSR2 equ 0FD9h ;# 
  1035  0000                     # 8240 "C:\Program Files (x86)\Microchip\xc8\v2.00\pic\include\pic18f4550.h"
  1036                           FSR2L equ 0FD9h ;# 
  1037  0000                     # 8247 "C:\Program Files (x86)\Microchip\xc8\v2.00\pic\include\pic18f4550.h"
  1038                           FSR2H equ 0FDAh ;# 
  1039  0000                     # 8254 "C:\Program Files (x86)\Microchip\xc8\v2.00\pic\include\pic18f4550.h"
  1040                           PLUSW2 equ 0FDBh ;# 
  1041  0000                     # 8261 "C:\Program Files (x86)\Microchip\xc8\v2.00\pic\include\pic18f4550.h"
  1042                           PREINC2 equ 0FDCh ;# 
  1043  0000                     # 8268 "C:\Program Files (x86)\Microchip\xc8\v2.00\pic\include\pic18f4550.h"
  1044                           POSTDEC2 equ 0FDDh ;# 
  1045  0000                     # 8275 "C:\Program Files (x86)\Microchip\xc8\v2.00\pic\include\pic18f4550.h"
  1046                           POSTINC2 equ 0FDEh ;# 
  1047  0000                     # 8282 "C:\Program Files (x86)\Microchip\xc8\v2.00\pic\include\pic18f4550.h"
  1048                           INDF2 equ 0FDFh ;# 
  1049  0000                     # 8289 "C:\Program Files (x86)\Microchip\xc8\v2.00\pic\include\pic18f4550.h"
  1050                           BSR equ 0FE0h ;# 
  1051  0000                     # 8296 "C:\Program Files (x86)\Microchip\xc8\v2.00\pic\include\pic18f4550.h"
  1052                           FSR1 equ 0FE1h ;# 
  1053  0000                     # 8303 "C:\Program Files (x86)\Microchip\xc8\v2.00\pic\include\pic18f4550.h"
  1054                           FSR1L equ 0FE1h ;# 
  1055  0000                     # 8310 "C:\Program Files (x86)\Microchip\xc8\v2.00\pic\include\pic18f4550.h"
  1056                           FSR1H equ 0FE2h ;# 
  1057  0000                     # 8317 "C:\Program Files (x86)\Microchip\xc8\v2.00\pic\include\pic18f4550.h"
  1058                           PLUSW1 equ 0FE3h ;# 
  1059  0000                     # 8324 "C:\Program Files (x86)\Microchip\xc8\v2.00\pic\include\pic18f4550.h"
  1060                           PREINC1 equ 0FE4h ;# 
  1061  0000                     # 8331 "C:\Program Files (x86)\Microchip\xc8\v2.00\pic\include\pic18f4550.h"
  1062                           POSTDEC1 equ 0FE5h ;# 
  1063  0000                     # 8338 "C:\Program Files (x86)\Microchip\xc8\v2.00\pic\include\pic18f4550.h"
  1064                           POSTINC1 equ 0FE6h ;# 
  1065  0000                     # 8345 "C:\Program Files (x86)\Microchip\xc8\v2.00\pic\include\pic18f4550.h"
  1066                           INDF1 equ 0FE7h ;# 
  1067  0000                     # 8352 "C:\Program Files (x86)\Microchip\xc8\v2.00\pic\include\pic18f4550.h"
  1068                           WREG equ 0FE8h ;# 
  1069  0000                     # 8359 "C:\Program Files (x86)\Microchip\xc8\v2.00\pic\include\pic18f4550.h"
  1070                           FSR0 equ 0FE9h ;# 
  1071  0000                     # 8366 "C:\Program Files (x86)\Microchip\xc8\v2.00\pic\include\pic18f4550.h"
  1072                           FSR0L equ 0FE9h ;# 
  1073  0000                     # 8373 "C:\Program Files (x86)\Microchip\xc8\v2.00\pic\include\pic18f4550.h"
  1074                           FSR0H equ 0FEAh ;# 
  1075  0000                     # 8380 "C:\Program Files (x86)\Microchip\xc8\v2.00\pic\include\pic18f4550.h"
  1076                           PLUSW0 equ 0FEBh ;# 
  1077  0000                     # 8387 "C:\Program Files (x86)\Microchip\xc8\v2.00\pic\include\pic18f4550.h"
  1078                           PREINC0 equ 0FECh ;# 
  1079  0000                     # 8394 "C:\Program Files (x86)\Microchip\xc8\v2.00\pic\include\pic18f4550.h"
  1080                           POSTDEC0 equ 0FEDh ;# 
  1081  0000                     # 8401 "C:\Program Files (x86)\Microchip\xc8\v2.00\pic\include\pic18f4550.h"
  1082                           POSTINC0 equ 0FEEh ;# 
  1083  0000                     # 8408 "C:\Program Files (x86)\Microchip\xc8\v2.00\pic\include\pic18f4550.h"
  1084                           INDF0 equ 0FEFh ;# 
  1085  0000                     # 8415 "C:\Program Files (x86)\Microchip\xc8\v2.00\pic\include\pic18f4550.h"
  1086                           INTCON3 equ 0FF0h ;# 
  1087  0000                     # 8507 "C:\Program Files (x86)\Microchip\xc8\v2.00\pic\include\pic18f4550.h"
  1088                           INTCON2 equ 0FF1h ;# 
  1089  0000                     # 8584 "C:\Program Files (x86)\Microchip\xc8\v2.00\pic\include\pic18f4550.h"
  1090                           INTCON equ 0FF2h ;# 
  1091  0000                     # 8701 "C:\Program Files (x86)\Microchip\xc8\v2.00\pic\include\pic18f4550.h"
  1092                           PROD equ 0FF3h ;# 
  1093  0000                     # 8708 "C:\Program Files (x86)\Microchip\xc8\v2.00\pic\include\pic18f4550.h"
  1094                           PRODL equ 0FF3h ;# 
  1095  0000                     # 8715 "C:\Program Files (x86)\Microchip\xc8\v2.00\pic\include\pic18f4550.h"
  1096                           PRODH equ 0FF4h ;# 
  1097  0000                     # 8722 "C:\Program Files (x86)\Microchip\xc8\v2.00\pic\include\pic18f4550.h"
  1098                           TABLAT equ 0FF5h ;# 
  1099  0000                     # 8731 "C:\Program Files (x86)\Microchip\xc8\v2.00\pic\include\pic18f4550.h"
  1100                           TBLPTR equ 0FF6h ;# 
  1101  0000                     # 8738 "C:\Program Files (x86)\Microchip\xc8\v2.00\pic\include\pic18f4550.h"
  1102                           TBLPTRL equ 0FF6h ;# 
  1103  0000                     # 8745 "C:\Program Files (x86)\Microchip\xc8\v2.00\pic\include\pic18f4550.h"
  1104                           TBLPTRH equ 0FF7h ;# 
  1105  0000                     # 8752 "C:\Program Files (x86)\Microchip\xc8\v2.00\pic\include\pic18f4550.h"
  1106                           TBLPTRU equ 0FF8h ;# 
  1107  0000                     # 8761 "C:\Program Files (x86)\Microchip\xc8\v2.00\pic\include\pic18f4550.h"
  1108                           PCLAT equ 0FF9h ;# 
  1109  0000                     # 8768 "C:\Program Files (x86)\Microchip\xc8\v2.00\pic\include\pic18f4550.h"
  1110                           PC equ 0FF9h ;# 
  1111  0000                     # 8775 "C:\Program Files (x86)\Microchip\xc8\v2.00\pic\include\pic18f4550.h"
  1112                           PCL equ 0FF9h ;# 
  1113  0000                     # 8782 "C:\Program Files (x86)\Microchip\xc8\v2.00\pic\include\pic18f4550.h"
  1114                           PCLATH equ 0FFAh ;# 
  1115  0000                     # 8789 "C:\Program Files (x86)\Microchip\xc8\v2.00\pic\include\pic18f4550.h"
  1116                           PCLATU equ 0FFBh ;# 
  1117  0000                     # 8796 "C:\Program Files (x86)\Microchip\xc8\v2.00\pic\include\pic18f4550.h"
  1118                           STKPTR equ 0FFCh ;# 
  1119  0000                     # 8872 "C:\Program Files (x86)\Microchip\xc8\v2.00\pic\include\pic18f4550.h"
  1120                           TOS equ 0FFDh ;# 
  1121  0000                     # 8879 "C:\Program Files (x86)\Microchip\xc8\v2.00\pic\include\pic18f4550.h"
  1122                           TOSL equ 0FFDh ;# 
  1123  0000                     # 8886 "C:\Program Files (x86)\Microchip\xc8\v2.00\pic\include\pic18f4550.h"
  1124                           TOSH equ 0FFEh ;# 
  1125  0000                     # 8893 "C:\Program Files (x86)\Microchip\xc8\v2.00\pic\include\pic18f4550.h"
  1126                           TOSU equ 0FFFh ;# 
  1127  0000                     	FNCALL	_main,_ADC_CONFIG
  1128                           	FNCALL	_main,_ADC_CONVERTIR
  1129                           	FNCALL	_main,_BORRAR_LCD
  1130                           	FNCALL	_main,_CURSOR_HOME
  1131                           	FNCALL	_main,_CURSOR_ONOFF
  1132                           	FNCALL	_main,_ENVIA_CHAR
  1133                           	FNCALL	_main,_ESCRIBE_MENSAJE
  1134                           	FNCALL	_main,_LCD_CONFIG
  1135                           	FNCALL	_main,_POS_CURSOR
  1136                           	FNCALL	_main,_calculon
  1137                           	FNCALL	_main,_calculon2
  1138                           	FNCALL	_main,_conviertemon
  1139                           	FNCALL	_conviertemon,___awdiv
  1140                           	FNCALL	_conviertemon,___wmul
  1141                           	FNCALL	_calculon2,___awdiv
  1142                           	FNCALL	_calculon2,___lwdiv
  1143                           	FNCALL	_calculon2,___wmul
  1144                           	FNCALL	_calculon,___awdiv
  1145                           	FNCALL	_calculon,___fladd
  1146                           	FNCALL	_calculon,___flmul
  1147                           	FNCALL	_calculon,___flneg
  1148                           	FNCALL	_calculon,___fltol
  1149                           	FNCALL	_calculon,___lwdiv
  1150                           	FNCALL	_calculon,___wmul
  1151                           	FNCALL	_calculon,___xxtofl
  1152                           	FNCALL	_POS_CURSOR,_ENVIA_LCD_CMD
  1153                           	FNCALL	_LCD_CONFIG,_ENVIA_LCD_CMD
  1154                           	FNCALL	_LCD_CONFIG,_ENVIA_NIBBLE
  1155                           	FNCALL	_ESCRIBE_MENSAJE,_ENVIA_CHAR
  1156                           	FNCALL	_ENVIA_CHAR,_ENVIA_NIBBLE
  1157                           	FNCALL	_ENVIA_CHAR,_LEER_LCD
  1158                           	FNCALL	_CURSOR_ONOFF,_ENVIA_LCD_CMD
  1159                           	FNCALL	_CURSOR_HOME,_ENVIA_LCD_CMD
  1160                           	FNCALL	_BORRAR_LCD,_ENVIA_LCD_CMD
  1161                           	FNCALL	_ENVIA_LCD_CMD,_ENVIA_NIBBLE
  1162                           	FNCALL	_ENVIA_LCD_CMD,_LEER_LCD
  1163                           	FNROOT	_main
  1164                           	FNCALL	intlevel2,_Tmr0ISR
  1165                           	global	intlevel2
  1166                           	FNROOT	intlevel2
  1167                           	global	_resul
  1168                           	global	_cta_off
  1169                           	global	_cta_on
  1170                           	global	_temporal3
  1171                           	global	_temporal2
  1172                           	global	_temporal
  1173                           	global	_diguni
  1174                           	global	_digdec
  1175                           	global	_digcen
  1176                           	global	_digmil
  1177                           	global	_cta_lsb
  1178                           	global	_cta_msb
  1179                           	global	_digdmi
  1180                           	global	_pre_cta_off
  1181                           	global	_pre_cta_on
  1182                           	global	_PORTD
  1183                           _PORTD	set	0xF83
  1184  0000                     	global	_LATD
  1185                           _LATD	set	0xF8C
  1186  0000                     	global	_LATDbits
  1187                           _LATDbits	set	0xF8C
  1188  0000                     	global	_ADRESL
  1189                           _ADRESL	set	0xFC3
  1190  0000                     	global	_ADCON0bits
  1191                           _ADCON0bits	set	0xFC2
  1192  0000                     	global	_ADCON2
  1193                           _ADCON2	set	0xFC0
  1194  0000                     	global	_ADCON0
  1195                           _ADCON0	set	0xFC2
  1196  0000                     	global	_ADCON1
  1197                           _ADCON1	set	0xFC1
  1198  0000                     	global	_TRISB
  1199                           _TRISB	set	0xF93
  1200  0000                     	global	_TRISE
  1201                           _TRISE	set	0xF96
  1202  0000                     	global	_TRISA
  1203                           _TRISA	set	0xF92
  1204  0000                     	global	_INTCONbits
  1205                           _INTCONbits	set	0xFF2
  1206  0000                     	global	_TMR0L
  1207                           _TMR0L	set	0xFD6
  1208  0000                     	global	_TMR0H
  1209                           _TMR0H	set	0xFD7
  1210  0000                     	global	_PORTEbits
  1211                           _PORTEbits	set	0xF84
  1212  0000                     	global	_LATEbits
  1213                           _LATEbits	set	0xF8D
  1214  0000                     	global	_TRISD
  1215                           _TRISD	set	0xF95
  1216  0000                     	global	_INTCON
  1217                           _INTCON	set	0xFF2
  1218  0000                     	global	_T0CON
  1219                           _T0CON	set	0xFD5
  1220  0000                     	global	_TRISEbits
  1221                           _TRISEbits	set	0xF96
  1222  0000                     	global	_ADRESH
  1223                           _ADRESH	set	0xFC4
  1224  0000                     psect	smallconst,class=SMALLCONST,space=0,reloc=2,noexec
  1225                           global __psmallconst
  1226                           __psmallconst:
  1227  000800                     	db	0
  1228  000800  00                 	
  1229                           STR_1:
  1230  000801                     	db	65	;'A'
  1231  000801  41                 	db	68	;'D'
  1232  000802  44                 	db	67	;'C'
  1233  000803  43                 	db	58	;':'
  1234  000804  3A                 	db	0
  1235  000805  00                 	
  1236                           STR_2:
  1237  000806                     	db	84	;'T'
  1238  000806  54                 	db	79	;'O'
  1239  000807  4F                 	db	78	;'N'
  1240  000808  4E                 	db	58	;':'
  1241  000809  3A                 	db	0
  1242  00080A  00                 	
  1243                           STR_3:
  1244  00080B                     	db	73	;'I'
  1245  00080B  49                 	db	58	;':'
  1246  00080C  3A                 	db	0
  1247  00080D  00                 	
  1248                           STR_4:
  1249  00080E                     	db	79	;'O'
  1250  00080E  4F                 	db	58	;':'
  1251  00080F  3A                 	db	0
  1252  000810  00                 ; #config settings
  1253                           global __CFG_PLLDIV$1
  1254                           __CFG_PLLDIV$1 equ 0x0
  1255  0000                     global __CFG_CPUDIV$OSC1_PLL2
  1256                           __CFG_CPUDIV$OSC1_PLL2 equ 0x0
  1257  0000                     global __CFG_FOSC$XTPLL_XT
  1258                           __CFG_FOSC$XTPLL_XT equ 0x0
  1259  0000                     global __CFG_PWRT$ON
  1260                           __CFG_PWRT$ON equ 0x0
  1261  0000                     global __CFG_BOR$OFF
  1262                           __CFG_BOR$OFF equ 0x0
  1263  0000                     global __CFG_WDT$OFF
  1264                           __CFG_WDT$OFF equ 0x0
  1265  0000                     global __CFG_CCP2MX$ON
  1266                           __CFG_CCP2MX$ON equ 0x0
  1267  0000                     global __CFG_PBADEN$OFF
  1268                           __CFG_PBADEN$OFF equ 0x0
  1269  0000                     global __CFG_MCLRE$ON
  1270                           __CFG_MCLRE$ON equ 0x0
  1271  0000                     global __CFG_LVP$OFF
  1272                           __CFG_LVP$OFF equ 0x0
  1273  0000                     	file	"C:\Users\klnla\AppData\Local\Temp\scr8."
  1274                           	line	#
  1275                           psect	cinit,class=CODE,delta=1,reloc=2
  1276                           global __pcinit
  1277                           __pcinit:
  1278  0020AE                     global start_initialization
  1279                           start_initialization:
  1280  0020AE                     
  1281                           global __initialization
  1282                           __initialization:
  1283  0020AE                     psect	bssCOMRAM,class=COMRAM,space=1,noexec
  1284                           global __pbssCOMRAM
  1285                           __pbssCOMRAM:
  1286  000047                     	global	_resul
  1287                           _resul:
  1288  000047                            ds      2
  1289  000047                     	global	_cta_off
  1290                           _cta_off:
  1291  000049                            ds      2
  1292  000049                     	global	_cta_on
  1293                           _cta_on:
  1294  00004B                            ds      2
  1295  00004B                     	global	_temporal3
  1296                           _temporal3:
  1297  00004D                            ds      2
  1298  00004D                     	global	_temporal2
  1299                           _temporal2:
  1300  00004F                            ds      2
  1301  00004F                     	global	_temporal
  1302                           _temporal:
  1303  000051                            ds      2
  1304  000051                     	global	_diguni
  1305                           _diguni:
  1306  000053                            ds      2
  1307  000053                     	global	_digdec
  1308                           _digdec:
  1309  000055                            ds      2
  1310  000055                     	global	_digcen
  1311                           _digcen:
  1312  000057                            ds      2
  1313  000057                     	global	_digmil
  1314                           _digmil:
  1315  000059                            ds      2
  1316  000059                     	global	_cta_lsb
  1317                           _cta_lsb:
  1318  00005B                            ds      1
  1319  00005B                     	global	_cta_msb
  1320                           _cta_msb:
  1321  00005C                            ds      1
  1322  00005C                     	global	_digdmi
  1323                           _digdmi:
  1324  00005D                            ds      2
  1325  00005D                     psect	bssBANK0,class=BANK0,space=1,noexec,lowdata
  1326                           global __pbssBANK0
  1327                           __pbssBANK0:
  1328  000060                     	global	_pre_cta_off
  1329                           _pre_cta_off:
  1330  000060                            ds      4
  1331  000060                     	global	_pre_cta_on
  1332                           _pre_cta_on:
  1333  000064                            ds      4
  1334  000064                     	file	"C:\Users\klnla\AppData\Local\Temp\scr8."
  1335                           	line	#
  1336                           psect	cinit
  1337                           ; Clear objects allocated to BANK0 (8 bytes)
  1338                           	global __pbssBANK0
  1339                           lfsr	0,__pbssBANK0
  1340  0020AE  EE00  F060         movlw	8
  1341  0020B2  0E08               clear_0:
  1342  0020B4                     clrf	postinc0,c
  1343  0020B4  6AEE               decf	wreg
  1344  0020B6  06E8               bnz	clear_0
  1345  0020B8  E1FD               ; Clear objects allocated to COMRAM (24 bytes)
  1346                           	global __pbssCOMRAM
  1347                           lfsr	0,__pbssCOMRAM
  1348  0020BA  EE00  F047         movlw	24
  1349  0020BE  0E18               clear_1:
  1350  0020C0                     clrf	postinc0,c
  1351  0020C0  6AEE               decf	wreg
  1352  0020C2  06E8               bnz	clear_1
  1353  0020C4  E1FD               psect cinit,class=CODE,delta=1
  1354                           global end_of_initialization,__end_of__initialization
  1355                           
  1356                           ;End of C runtime variable initialization code
  1357                           
  1358                           end_of_initialization:
  1359  0020C6                     __end_of__initialization:
  1360  0020C6                     	bcf int$flags,0,c ;clear compiler interrupt flag (level 1)
  1361  0020C6  905F               	bcf int$flags,1,c ;clear compiler interrupt flag (level 2)
  1362  0020C8  925F               	GLOBAL	__Lmediumconst
  1363                           	movlw	low highword(__Lmediumconst)
  1364  0020CA  0E00               	movwf	tblptru
  1365  0020CC  6EF8               movlb 0
  1366  0020CE  0100               goto _main	;jump to C main() function
  1367  0020D0  EFB3  F00B         psect	cstackCOMRAM,class=COMRAM,space=1,noexec
  1368                           global __pcstackCOMRAM
  1369                           __pcstackCOMRAM:
  1370  000001                     ?_ADC_CONFIG:	; 1 bytes @ 0x0
  1371  000001                     ??_ADC_CONFIG:	; 1 bytes @ 0x0
  1372  000001                     ?_LCD_CONFIG:	; 1 bytes @ 0x0
  1373  000001                     ?_BORRAR_LCD:	; 1 bytes @ 0x0
  1374  000001                     ?_CURSOR_ONOFF:	; 1 bytes @ 0x0
  1375  000001                     ?_CURSOR_HOME:	; 1 bytes @ 0x0
  1376  000001                     ?_ENVIA_CHAR:	; 1 bytes @ 0x0
  1377  000001                     ?_ENVIA_LCD_CMD:	; 1 bytes @ 0x0
  1378  000001                     ?_LEER_LCD:	; 1 bytes @ 0x0
  1379  000001                     ??_LEER_LCD:	; 1 bytes @ 0x0
  1380  000001                     ?_ENVIA_NIBBLE:	; 1 bytes @ 0x0
  1381  000001                     ??_ENVIA_NIBBLE:	; 1 bytes @ 0x0
  1382  000001                     ?_calculon2:	; 1 bytes @ 0x0
  1383  000001                     ?_main:	; 1 bytes @ 0x0
  1384  000001                     ?_Tmr0ISR:	; 1 bytes @ 0x0
  1385  000001                     ??_Tmr0ISR:	; 1 bytes @ 0x0
  1386  000001                     	global	?_ADC_CONVERTIR
  1387                           ?_ADC_CONVERTIR:	; 2 bytes @ 0x0
  1388  000001                     	global	?___wmul
  1389                           ?___wmul:	; 2 bytes @ 0x0
  1390  000001                     	global	?___awdiv
  1391                           ?___awdiv:	; 2 bytes @ 0x0
  1392  000001                     	global	?___lwdiv
  1393                           ?___lwdiv:	; 2 bytes @ 0x0
  1394  000001                     	global	?___fltol
  1395                           ?___fltol:	; 4 bytes @ 0x0
  1396  000001                     	global	?___xxtofl
  1397                           ?___xxtofl:	; 4 bytes @ 0x0
  1398  000001                     	global	ENVIA_NIBBLE@dato
  1399                           ENVIA_NIBBLE@dato:	; 1 bytes @ 0x0
  1400  000001                     	global	LEER_LCD@aux
  1401                           LEER_LCD@aux:	; 1 bytes @ 0x0
  1402  000001                     	global	___wmul@multiplier
  1403                           ___wmul@multiplier:	; 2 bytes @ 0x0
  1404  000001                     	global	___awdiv@dividend
  1405                           ___awdiv@dividend:	; 2 bytes @ 0x0
  1406  000001                     	global	___lwdiv@dividend
  1407                           ___lwdiv@dividend:	; 2 bytes @ 0x0
  1408  000001                     	global	___fltol@f1
  1409                           ___fltol@f1:	; 4 bytes @ 0x0
  1410  000001                     	global	___xxtofl@val
  1411                           ___xxtofl@val:	; 4 bytes @ 0x0
  1412  000001                     	ds   1
  1413  000001                     ??_ENVIA_CHAR:	; 1 bytes @ 0x1
  1414  000002                     ??_ENVIA_LCD_CMD:	; 1 bytes @ 0x1
  1415  000002                     	global	ENVIA_CHAR@dato
  1416                           ENVIA_CHAR@dato:	; 1 bytes @ 0x1
  1417  000002                     	global	ENVIA_LCD_CMD@dato
  1418                           ENVIA_LCD_CMD@dato:	; 1 bytes @ 0x1
  1419  000002                     	ds   1
  1420  000002                     ??_ADC_CONVERTIR:	; 1 bytes @ 0x2
  1421  000003                     	global	ADC_CONFIG@canal
  1422                           ADC_CONFIG@canal:	; 1 bytes @ 0x2
  1423  000003                     	global	ENVIA_CHAR@aux
  1424                           ENVIA_CHAR@aux:	; 1 bytes @ 0x2
  1425  000003                     	global	ENVIA_LCD_CMD@aux
  1426                           ENVIA_LCD_CMD@aux:	; 1 bytes @ 0x2
  1427  000003                     	global	___wmul@multiplicand
  1428                           ___wmul@multiplicand:	; 2 bytes @ 0x2
  1429  000003                     	global	___awdiv@divisor
  1430                           ___awdiv@divisor:	; 2 bytes @ 0x2
  1431  000003                     	global	___lwdiv@divisor
  1432                           ___lwdiv@divisor:	; 2 bytes @ 0x2
  1433  000003                     	ds   1
  1434  000003                     ??_LCD_CONFIG:	; 1 bytes @ 0x3
  1435  000004                     ??_BORRAR_LCD:	; 1 bytes @ 0x3
  1436  000004                     ??_CURSOR_ONOFF:	; 1 bytes @ 0x3
  1437  000004                     ??_CURSOR_HOME:	; 1 bytes @ 0x3
  1438  000004                     ?_ESCRIBE_MENSAJE:	; 1 bytes @ 0x3
  1439  000004                     ?_POS_CURSOR:	; 1 bytes @ 0x3
  1440  000004                     	global	POS_CURSOR@columna
  1441                           POS_CURSOR@columna:	; 1 bytes @ 0x3
  1442  000004                     	global	CURSOR_ONOFF@estado
  1443                           CURSOR_ONOFF@estado:	; 1 bytes @ 0x3
  1444  000004                     	global	ADC_CONVERTIR@num
  1445                           ADC_CONVERTIR@num:	; 2 bytes @ 0x3
  1446  000004                     	global	ESCRIBE_MENSAJE@cadena
  1447                           ESCRIBE_MENSAJE@cadena:	; 2 bytes @ 0x3
  1448  000004                     	ds   1
  1449  000004                     ??_POS_CURSOR:	; 1 bytes @ 0x4
  1450  000005                     ??___wmul:	; 1 bytes @ 0x4
  1451  000005                     ??___awdiv:	; 1 bytes @ 0x4
  1452  000005                     ??___fltol:	; 1 bytes @ 0x4
  1453  000005                     ??___lwdiv:	; 1 bytes @ 0x4
  1454  000005                     ??___xxtofl:	; 1 bytes @ 0x4
  1455  000005                     	global	POS_CURSOR@fila
  1456                           POS_CURSOR@fila:	; 1 bytes @ 0x4
  1457  000005                     	global	___awdiv@counter
  1458                           ___awdiv@counter:	; 1 bytes @ 0x4
  1459  000005                     	global	___wmul@product
  1460                           ___wmul@product:	; 2 bytes @ 0x4
  1461  000005                     	global	___lwdiv@quotient
  1462                           ___lwdiv@quotient:	; 2 bytes @ 0x4
  1463  000005                     	ds   1
  1464  000005                     	global	ESCRIBE_MENSAJE@tam
  1465                           ESCRIBE_MENSAJE@tam:	; 1 bytes @ 0x5
  1466  000006                     	global	___awdiv@sign
  1467                           ___awdiv@sign:	; 1 bytes @ 0x5
  1468  000006                     	ds   1
  1469  000006                     ??_ESCRIBE_MENSAJE:	; 1 bytes @ 0x6
  1470  000007                     	global	___lwdiv@counter
  1471                           ___lwdiv@counter:	; 1 bytes @ 0x6
  1472  000007                     	global	___awdiv@quotient
  1473                           ___awdiv@quotient:	; 2 bytes @ 0x6
  1474  000007                     	ds   2
  1475  000007                     ?_conviertemon:	; 1 bytes @ 0x8
  1476  000009                     ??_calculon2:	; 1 bytes @ 0x8
  1477  000009                     	global	ESCRIBE_MENSAJE@i
  1478                           ESCRIBE_MENSAJE@i:	; 1 bytes @ 0x8
  1479  000009                     	global	___fltol@sign1
  1480                           ___fltol@sign1:	; 1 bytes @ 0x8
  1481  000009                     	global	___xxtofl@sign
  1482                           ___xxtofl@sign:	; 1 bytes @ 0x8
  1483  000009                     	global	conviertemon@contadoron
  1484                           conviertemon@contadoron:	; 2 bytes @ 0x8
  1485  000009                     	ds   1
  1486  000009                     	global	___fltol@exp1
  1487                           ___fltol@exp1:	; 1 bytes @ 0x9
  1488  00000A                     	global	___xxtofl@exp
  1489                           ___xxtofl@exp:	; 1 bytes @ 0x9
  1490  00000A                     	ds   1
  1491  00000A                     ??_conviertemon:	; 1 bytes @ 0xA
  1492  00000B                     	global	___xxtofl@arg
  1493                           ___xxtofl@arg:	; 4 bytes @ 0xA
  1494  00000B                     	ds   4
  1495  00000B                     	global	?___flmul
  1496                           ?___flmul:	; 4 bytes @ 0xE
  1497  00000F                     	global	___flmul@b
  1498                           ___flmul@b:	; 4 bytes @ 0xE
  1499  00000F                     	ds   4
  1500  00000F                     	global	___flmul@a
  1501                           ___flmul@a:	; 4 bytes @ 0x12
  1502  000013                     	ds   4
  1503  000013                     ??___flmul:	; 1 bytes @ 0x16
  1504  000017                     	ds   4
  1505  000017                     	global	___flmul@sign
  1506                           ___flmul@sign:	; 1 bytes @ 0x1A
  1507  00001B                     	ds   1
  1508  00001B                     	global	___flmul@grs
  1509                           ___flmul@grs:	; 4 bytes @ 0x1B
  1510  00001C                     	ds   4
  1511  00001C                     	global	___flmul@aexp
  1512                           ___flmul@aexp:	; 1 bytes @ 0x1F
  1513  000020                     	ds   1
  1514  000020                     	global	___flmul@bexp
  1515                           ___flmul@bexp:	; 1 bytes @ 0x20
  1516  000021                     	ds   1
  1517  000021                     	global	___flmul@prod
  1518                           ___flmul@prod:	; 4 bytes @ 0x21
  1519  000022                     	ds   4
  1520  000022                     	global	___flmul@temp
  1521                           ___flmul@temp:	; 2 bytes @ 0x25
  1522  000026                     	ds   2
  1523  000026                     	global	?___flneg
  1524                           ?___flneg:	; 4 bytes @ 0x27
  1525  000028                     	global	___flneg@f1
  1526                           ___flneg@f1:	; 4 bytes @ 0x27
  1527  000028                     	ds   4
  1528  000028                     ??___flneg:	; 1 bytes @ 0x2B
  1529  00002C                     	global	?___fladd
  1530                           ?___fladd:	; 4 bytes @ 0x2B
  1531  00002C                     	global	___fladd@b
  1532                           ___fladd@b:	; 4 bytes @ 0x2B
  1533  00002C                     	ds   4
  1534  00002C                     	global	___fladd@a
  1535                           ___fladd@a:	; 4 bytes @ 0x2F
  1536  000030                     	ds   4
  1537  000030                     ??___fladd:	; 1 bytes @ 0x33
  1538  000034                     	ds   8
  1539  000034                     	global	___fladd@signs
  1540                           ___fladd@signs:	; 1 bytes @ 0x3B
  1541  00003C                     	ds   1
  1542  00003C                     	global	___fladd@aexp
  1543                           ___fladd@aexp:	; 1 bytes @ 0x3C
  1544  00003D                     	ds   1
  1545  00003D                     	global	___fladd@bexp
  1546                           ___fladd@bexp:	; 1 bytes @ 0x3D
  1547  00003E                     	ds   1
  1548  00003E                     	global	___fladd@grs
  1549                           ___fladd@grs:	; 1 bytes @ 0x3E
  1550  00003F                     	ds   1
  1551  00003F                     ?_calculon:	; 1 bytes @ 0x3F
  1552  000040                     	global	calculon@blablabla
  1553                           calculon@blablabla:	; 2 bytes @ 0x3F
  1554  000040                     	ds   2
  1555  000040                     ??_calculon:	; 1 bytes @ 0x41
  1556  000042                     	ds   4
  1557  000042                     ??_main:	; 1 bytes @ 0x45
  1558  000046                     	ds   1
  1559  000046                     ;!
  1560                           ;!Data Sizes:
  1561                           ;!    Strings     16
  1562                           ;!    Constant    0
  1563                           ;!    Data        0
  1564                           ;!    BSS         32
  1565                           ;!    Persistent  0
  1566                           ;!    Stack       0
  1567                           ;!
  1568                           ;!Auto Spaces:
  1569                           ;!    Space          Size  Autos    Used
  1570                           ;!    COMRAM           94     70      94
  1571                           ;!    BANK0           160      0       8
  1572                           ;!    BANK1           256      0       0
  1573                           ;!    BANK2           256      0       0
  1574                           ;!    BANK3           256      0       0
  1575                           ;!    BANK4           256      0       0
  1576                           ;!    BANK5           256      0       0
  1577                           ;!    BANK6           256      0       0
  1578                           ;!    BANK7           256      0       0
  1579                           
  1580                           ;!
  1581                           ;!Pointer List with Targets:
  1582                           ;!
  1583                           ;!    ESCRIBE_MENSAJE@cadena	PTR const unsigned char  size(2) Largest target is 5
  1584                           ;!		 -> STR_4(CODE[3]), STR_3(CODE[3]), STR_2(CODE[5]), STR_1(CODE[5]), 
  1585                           ;!
  1586                           
  1587                           
  1588                           ;!
  1589                           ;!Critical Paths under _main in COMRAM
  1590                           ;!
  1591                           ;!    _main->_calculon
  1592                           ;!    _conviertemon->___awdiv
  1593                           ;!    _calculon2->___awdiv
  1594                           ;!    _calculon->___fladd
  1595                           ;!    ___flneg->___flmul
  1596                           ;!    ___flmul->___xxtofl
  1597                           ;!    ___fladd->___flneg
  1598                           ;!    _POS_CURSOR->_ENVIA_LCD_CMD
  1599                           ;!    _LCD_CONFIG->_ENVIA_LCD_CMD
  1600                           ;!    _ESCRIBE_MENSAJE->_ENVIA_CHAR
  1601                           ;!    _ENVIA_CHAR->_ENVIA_NIBBLE
  1602                           ;!    _ENVIA_CHAR->_LEER_LCD
  1603                           ;!    _CURSOR_ONOFF->_ENVIA_LCD_CMD
  1604                           ;!    _CURSOR_HOME->_ENVIA_LCD_CMD
  1605                           ;!    _BORRAR_LCD->_ENVIA_LCD_CMD
  1606                           ;!    _ENVIA_LCD_CMD->_ENVIA_NIBBLE
  1607                           ;!    _ENVIA_LCD_CMD->_LEER_LCD
  1608                           ;!
  1609                           ;!Critical Paths under _Tmr0ISR in COMRAM
  1610                           ;!
  1611                           ;!    None.
  1612                           ;!
  1613                           ;!Critical Paths under _main in BANK0
  1614                           ;!
  1615                           ;!    None.
  1616                           ;!
  1617                           ;!Critical Paths under _Tmr0ISR in BANK0
  1618                           ;!
  1619                           ;!    None.
  1620                           ;!
  1621                           ;!Critical Paths under _main in BANK1
  1622                           ;!
  1623                           ;!    None.
  1624                           ;!
  1625                           ;!Critical Paths under _Tmr0ISR in BANK1
  1626                           ;!
  1627                           ;!    None.
  1628                           ;!
  1629                           ;!Critical Paths under _main in BANK2
  1630                           ;!
  1631                           ;!    None.
  1632                           ;!
  1633                           ;!Critical Paths under _Tmr0ISR in BANK2
  1634                           ;!
  1635                           ;!    None.
  1636                           ;!
  1637                           ;!Critical Paths under _main in BANK3
  1638                           ;!
  1639                           ;!    None.
  1640                           ;!
  1641                           ;!Critical Paths under _Tmr0ISR in BANK3
  1642                           ;!
  1643                           ;!    None.
  1644                           ;!
  1645                           ;!Critical Paths under _main in BANK4
  1646                           ;!
  1647                           ;!    None.
  1648                           ;!
  1649                           ;!Critical Paths under _Tmr0ISR in BANK4
  1650                           ;!
  1651                           ;!    None.
  1652                           ;!
  1653                           ;!Critical Paths under _main in BANK5
  1654                           ;!
  1655                           ;!    None.
  1656                           ;!
  1657                           ;!Critical Paths under _Tmr0ISR in BANK5
  1658                           ;!
  1659                           ;!    None.
  1660                           ;!
  1661                           ;!Critical Paths under _main in BANK6
  1662                           ;!
  1663                           ;!    None.
  1664                           ;!
  1665                           ;!Critical Paths under _Tmr0ISR in BANK6
  1666                           ;!
  1667                           ;!    None.
  1668                           ;!
  1669                           ;!Critical Paths under _main in BANK7
  1670                           ;!
  1671                           ;!    None.
  1672                           ;!
  1673                           ;!Critical Paths under _Tmr0ISR in BANK7
  1674                           ;!
  1675                           ;!    None.
  1676                           
  1677 ;;
  1678 ;;Main: autosize = 0, tempsize = 1, incstack = 0, save=0
  1679 ;;
  1680                           
  1681                           ;!
  1682                           ;!Call Graph Tables:
  1683                           ;!
  1684                           ;! ---------------------------------------------------------------------------------
  1685                           ;! (Depth) Function   	        Calls       Base Space   Used Autos Params    Refs
  1686                           ;! ---------------------------------------------------------------------------------
  1687                           ;! (0) _main                                                 1     1      0   19986
  1688                           ;!                                             69 COMRAM     1     1      0
  1689                           ;!                         _ADC_CONFIG
  1690                           ;!                      _ADC_CONVERTIR
  1691                           ;!                         _BORRAR_LCD
  1692                           ;!                        _CURSOR_HOME
  1693                           ;!                       _CURSOR_ONOFF
  1694                           ;!                         _ENVIA_CHAR
  1695                           ;!                    _ESCRIBE_MENSAJE
  1696                           ;!                         _LCD_CONFIG
  1697                           ;!                         _POS_CURSOR
  1698                           ;!                           _calculon
  1699                           ;!                          _calculon2
  1700                           ;!                       _conviertemon
  1701                           ;! ---------------------------------------------------------------------------------
  1702                           ;! (1) _conviertemon                                         2     0      2    3879
  1703                           ;!                                              8 COMRAM     2     0      2
  1704                           ;!                            ___awdiv
  1705                           ;!                             ___wmul
  1706                           ;! ---------------------------------------------------------------------------------
  1707                           ;! (1) _calculon2                                            0     0      0    4269
  1708                           ;!                            ___awdiv
  1709                           ;!                            ___lwdiv
  1710                           ;!                             ___wmul
  1711                           ;! ---------------------------------------------------------------------------------
  1712                           ;! (1) _calculon                                             6     4      2    9475
  1713                           ;!                                             63 COMRAM     6     4      2
  1714                           ;!                            ___awdiv
  1715                           ;!                            ___fladd
  1716                           ;!                            ___flmul
  1717                           ;!                            ___flneg
  1718                           ;!                            ___fltol
  1719                           ;!                            ___lwdiv
  1720                           ;!                             ___wmul
  1721                           ;!                           ___xxtofl
  1722                           ;! ---------------------------------------------------------------------------------
  1723                           ;! (2) ___xxtofl                                            14    10      4     474
  1724                           ;!                                              0 COMRAM    14    10      4
  1725                           ;! ---------------------------------------------------------------------------------
  1726                           ;! (2) ___wmul                                               6     2      4    1983
  1727                           ;!                                              0 COMRAM     6     2      4
  1728                           ;! ---------------------------------------------------------------------------------
  1729                           ;! (2) ___lwdiv                                              7     3      4     466
  1730                           ;!                                              0 COMRAM     7     3      4
  1731                           ;! ---------------------------------------------------------------------------------
  1732                           ;! (2) ___fltol                                             10     6      4     381
  1733                           ;!                                              0 COMRAM    10     6      4
  1734                           ;! ---------------------------------------------------------------------------------
  1735                           ;! (2) ___flneg                                              4     0      4     121
  1736                           ;!                                             39 COMRAM     4     0      4
  1737                           ;!                            ___flmul (ARG)
  1738                           ;!                           ___xxtofl (ARG)
  1739                           ;! ---------------------------------------------------------------------------------
  1740                           ;! (2) ___flmul                                             25    17      8    1744
  1741                           ;!                                             14 COMRAM    25    17      8
  1742                           ;!                           ___xxtofl (ARG)
  1743                           ;! ---------------------------------------------------------------------------------
  1744                           ;! (2) ___fladd                                             20    12      8    2388
  1745                           ;!                                             43 COMRAM    20    12      8
  1746                           ;!                            ___flmul (ARG)
  1747                           ;!                            ___flneg (ARG)
  1748                           ;!                           ___xxtofl (ARG)
  1749                           ;! ---------------------------------------------------------------------------------
  1750                           ;! (2) ___awdiv                                              8     4      4    1820
  1751                           ;!                                              0 COMRAM     8     4      4
  1752                           ;! ---------------------------------------------------------------------------------
  1753                           ;! (1) _POS_CURSOR                                           2     1      1     664
  1754                           ;!                                              3 COMRAM     2     1      1
  1755                           ;!                      _ENVIA_LCD_CMD
  1756                           ;! ---------------------------------------------------------------------------------
  1757                           ;! (1) _LCD_CONFIG                                           1     1      0     135
  1758                           ;!                                              3 COMRAM     1     1      0
  1759                           ;!                      _ENVIA_LCD_CMD
  1760                           ;!                       _ENVIA_NIBBLE
  1761                           ;! ---------------------------------------------------------------------------------
  1762                           ;! (1) _ESCRIBE_MENSAJE                                      6     3      3     819
  1763                           ;!                                              3 COMRAM     6     3      3
  1764                           ;!                         _ENVIA_CHAR
  1765                           ;! ---------------------------------------------------------------------------------
  1766                           ;! (2) _ENVIA_CHAR                                           2     2      0     120
  1767                           ;!                                              1 COMRAM     2     2      0
  1768                           ;!                       _ENVIA_NIBBLE
  1769                           ;!                           _LEER_LCD
  1770                           ;! ---------------------------------------------------------------------------------
  1771                           ;! (1) _CURSOR_ONOFF                                         1     1      0     150
  1772                           ;!                                              3 COMRAM     1     1      0
  1773                           ;!                      _ENVIA_LCD_CMD
  1774                           ;! ---------------------------------------------------------------------------------
  1775                           ;! (1) _CURSOR_HOME                                          0     0      0     120
  1776                           ;!                      _ENVIA_LCD_CMD
  1777                           ;! ---------------------------------------------------------------------------------
  1778                           ;! (1) _BORRAR_LCD                                           0     0      0     120
  1779                           ;!                      _ENVIA_LCD_CMD
  1780                           ;! ---------------------------------------------------------------------------------
  1781                           ;! (2) _ENVIA_LCD_CMD                                        2     2      0     120
  1782                           ;!                                              1 COMRAM     2     2      0
  1783                           ;!                       _ENVIA_NIBBLE
  1784                           ;!                           _LEER_LCD
  1785                           ;! ---------------------------------------------------------------------------------
  1786                           ;! (3) _LEER_LCD                                             1     1      0      45
  1787                           ;!                                              0 COMRAM     1     1      0
  1788                           ;! ---------------------------------------------------------------------------------
  1789                           ;! (3) _ENVIA_NIBBLE                                         1     1      0      15
  1790                           ;!                                              0 COMRAM     1     1      0
  1791                           ;! ---------------------------------------------------------------------------------
  1792                           ;! (1) _ADC_CONVERTIR                                        5     3      2      25
  1793                           ;!                                              0 COMRAM     5     3      2
  1794                           ;! ---------------------------------------------------------------------------------
  1795                           ;! (1) _ADC_CONFIG                                           3     3      0     210
  1796                           ;!                                              0 COMRAM     3     3      0
  1797                           ;! ---------------------------------------------------------------------------------
  1798                           ;! Estimated maximum stack depth 3
  1799                           ;! ---------------------------------------------------------------------------------
  1800                           ;! (Depth) Function   	        Calls       Base Space   Used Autos Params    Refs
  1801                           ;! ---------------------------------------------------------------------------------
  1802                           ;! (4) _Tmr0ISR                                              0     0      0       0
  1803                           ;! ---------------------------------------------------------------------------------
  1804                           ;! Estimated maximum stack depth 4
  1805                           ;! ---------------------------------------------------------------------------------
  1806                           ;!
  1807                           ;! Call Graph Graphs:
  1808                           ;!
  1809                           ;! _main (ROOT)
  1810                           ;!   _ADC_CONFIG
  1811                           ;!   _ADC_CONVERTIR
  1812                           ;!   _BORRAR_LCD
  1813                           ;!     _ENVIA_LCD_CMD
  1814                           ;!       _ENVIA_NIBBLE
  1815                           ;!       _LEER_LCD
  1816                           ;!   _CURSOR_HOME
  1817                           ;!     _ENVIA_LCD_CMD
  1818                           ;!       _ENVIA_NIBBLE
  1819                           ;!       _LEER_LCD
  1820                           ;!   _CURSOR_ONOFF
  1821                           ;!     _ENVIA_LCD_CMD
  1822                           ;!       _ENVIA_NIBBLE
  1823                           ;!       _LEER_LCD
  1824                           ;!   _ENVIA_CHAR
  1825                           ;!     _ENVIA_NIBBLE
  1826                           ;!     _LEER_LCD
  1827                           ;!   _ESCRIBE_MENSAJE
  1828                           ;!     _ENVIA_CHAR
  1829                           ;!       _ENVIA_NIBBLE
  1830                           ;!       _LEER_LCD
  1831                           ;!   _LCD_CONFIG
  1832                           ;!     _ENVIA_LCD_CMD
  1833                           ;!       _ENVIA_NIBBLE
  1834                           ;!       _LEER_LCD
  1835                           ;!     _ENVIA_NIBBLE
  1836                           ;!   _POS_CURSOR
  1837                           ;!     _ENVIA_LCD_CMD
  1838                           ;!       _ENVIA_NIBBLE
  1839                           ;!       _LEER_LCD
  1840                           ;!   _calculon
  1841                           ;!     ___awdiv
  1842                           ;!     ___fladd
  1843                           ;!       ___flmul (ARG)
  1844                           ;!         ___xxtofl (ARG)
  1845                           ;!       ___flneg (ARG)
  1846                           ;!         ___flmul (ARG)
  1847                           ;!           ___xxtofl (ARG)
  1848                           ;!         ___xxtofl (ARG)
  1849                           ;!       ___xxtofl (ARG)
  1850                           ;!     ___flmul
  1851                           ;!       ___xxtofl (ARG)
  1852                           ;!     ___flneg
  1853                           ;!       ___flmul (ARG)
  1854                           ;!         ___xxtofl (ARG)
  1855                           ;!       ___xxtofl (ARG)
  1856                           ;!     ___fltol
  1857                           ;!     ___lwdiv
  1858                           ;!     ___wmul
  1859                           ;!     ___xxtofl
  1860                           ;!   _calculon2
  1861                           ;!     ___awdiv
  1862                           ;!     ___lwdiv
  1863                           ;!     ___wmul
  1864                           ;!   _conviertemon
  1865                           ;!     ___awdiv
  1866                           ;!     ___wmul
  1867                           ;!
  1868                           ;! _Tmr0ISR (ROOT)
  1869                           ;!
  1870                           
  1871                           ;! Address spaces:
  1872                           
  1873                           ;!Name               Size   Autos  Total    Cost      Usage
  1874                           ;!BIGRAM             7FF      0       0      21        0.0%
  1875                           ;!EEDATA             100      0       0       0        0.0%
  1876                           ;!BITBANK7           100      0       0      18        0.0%
  1877                           ;!BANK7              100      0       0      19        0.0%
  1878                           ;!BITBANK6           100      0       0      16        0.0%
  1879                           ;!BANK6              100      0       0      17        0.0%
  1880                           ;!BITBANK5           100      0       0      14        0.0%
  1881                           ;!BANK5              100      0       0      15        0.0%
  1882                           ;!BITBANK4           100      0       0      12        0.0%
  1883                           ;!BANK4              100      0       0      13        0.0%
  1884                           ;!BITBANK3           100      0       0      10        0.0%
  1885                           ;!BANK3              100      0       0      11        0.0%
  1886                           ;!BITBANK2           100      0       0       8        0.0%
  1887                           ;!BANK2              100      0       0       9        0.0%
  1888                           ;!BITBANK1           100      0       0       6        0.0%
  1889                           ;!BANK1              100      0       0       7        0.0%
  1890                           ;!BITBANK0            A0      0       0       4        0.0%
  1891                           ;!BANK0               A0      0       8       5        5.0%
  1892                           ;!BITCOMRAM           5E      0       0       0        0.0%
  1893                           ;!COMRAM              5E     46      5E       1      100.0%
  1894                           ;!BITSFR               0      0       0     200        0.0%
  1895                           ;!SFR                  0      0       0     200        0.0%
  1896                           ;!STACK                0      0       0       2        0.0%
  1897                           ;!NULL                 0      0       0       0        0.0%
  1898                           ;!ABS                  0      0      66      20        0.0%
  1899                           ;!DATA                 0      0      66       3        0.0%
  1900                           ;!CODE                 0      0       0       0        0.0%
  1901                           
  1902                           	global	_main
  1903                           
  1904 ;; *************** function _main *****************
  1905 ;; Defined at:
  1906 ;;		line 68 in file "isrmon.c"
  1907 ;; Parameters:    Size  Location     Type
  1908 ;;		None
  1909 ;; Auto vars:     Size  Location     Type
  1910 ;;		None
  1911 ;; Return value:  Size  Location     Type
  1912 ;;                  1    wreg      void 
  1913 ;; Registers used:
  1914 ;;		wreg, status,2, status,0, tblptrl, tblptrh, tblptru, prodl, prodh, cstack
  1915 ;; Tracked objects:
  1916 ;;		On entry : 0/0
  1917 ;;		On exit  : 0/0
  1918 ;;		Unchanged: 0/0
  1919 ;; Data sizes:     COMRAM   BANK0   BANK1   BANK2   BANK3   BANK4   BANK5   BANK6   BANK7
  1920 ;;      Params:         0       0       0       0       0       0       0       0       0
  1921 ;;      Locals:         0       0       0       0       0       0       0       0       0
  1922 ;;      Temps:          1       0       0       0       0       0       0       0       0
  1923 ;;      Totals:         1       0       0       0       0       0       0       0       0
  1924 ;;Total ram usage:        1 bytes
  1925 ;; Hardware stack levels required when called:    4
  1926 ;; This function calls:
  1927 ;;		_ADC_CONFIG
  1928 ;;		_ADC_CONVERTIR
  1929 ;;		_BORRAR_LCD
  1930 ;;		_CURSOR_HOME
  1931 ;;		_CURSOR_ONOFF
  1932 ;;		_ENVIA_CHAR
  1933 ;;		_ESCRIBE_MENSAJE
  1934 ;;		_LCD_CONFIG
  1935 ;;		_POS_CURSOR
  1936 ;;		_calculon
  1937 ;;		_calculon2
  1938 ;;		_conviertemon
  1939 ;; This function is called by:
  1940 ;;		Startup code after reset
  1941 ;; This function uses a non-reentrant model
  1942 ;;
  1943                           psect	text0,class=CODE,space=0,reloc=2,group=0
  1944                           	file	"isrmon.c"
  1945                           	line	68
  1946                           global __ptext0
  1947                           __ptext0:
  1948  001766                     psect	text0
  1949                           	file	"isrmon.c"
  1950                           	line	68
  1951                           	global	__size_of_main
  1952                           	__size_of_main	equ	__end_of_main-_main
  1953  0000                     	
  1954                           _main:
  1955  001766                     ;incstack = 0
  1956                           	opt	stack 27
  1957                           	line	69
  1958                           	
  1959                           l2360:
  1960  001766                     ;isrmon.c: 69:     ADC_CONFIG(0);
  1961                           	movlw	(0)&0ffh
  1962  001766  0E00               	
  1963                           	call	_ADC_CONFIG
  1964  001768  ECFD  F00A         	line	70
  1965                           	
  1966                           l2362:
  1967  00176C                     ;isrmon.c: 70:     TRISEbits.RE0 = 0;
  1968                           	bcf	((c:3990)),c,0	;volatile
  1969  00176C  9096               	line	71
  1970                           	
  1971                           l2364:
  1972  00176E                     ;isrmon.c: 71:     T0CON = 0x81;
  1973                           	movlw	low(081h)
  1974  00176E  0E81               	movwf	((c:4053)),c	;volatile
  1975  001770  6ED5               	line	72
  1976                           	
  1977                           l2366:
  1978  001772                     ;isrmon.c: 72:     INTCON = 0xA0;
  1979                           	movlw	low(0A0h)
  1980  001772  0EA0               	movwf	((c:4082)),c	;volatile
  1981  001774  6EF2               	line	73
  1982                           	
  1983                           l2368:
  1984  001776                     ;isrmon.c: 73:     TRISD = 0x00;
  1985                           	movlw	low(0)
  1986  001776  0E00               	movwf	((c:3989)),c	;volatile
  1987  001778  6E95               	line	74
  1988                           	
  1989                           l2370:
  1990  00177A                     ;isrmon.c: 74:     LCD_CONFIG();
  1991                           	call	_LCD_CONFIG	;wreg free
  1992  00177A  EC18  F00F         	line	75
  1993                           	
  1994                           l2372:
  1995  00177E                     ;isrmon.c: 75:     _delay((unsigned long)((10)*(48000000UL/4000.0)));
  1996                           	opt asmopt_push
  1997                           opt asmopt_off
  1998                           movlw	156
  1999  00177E  0E9C               movwf	(??_main+0+0)&0ffh,c,f
  2000  001780  6E46               	movlw	215
  2001  001782  0ED7               u1897:
  2002  001784                     decfsz	wreg,f
  2003  001784  2EE8               	bra	u1897
  2004  001786  D7FE               	decfsz	(??_main+0+0)&0ffh,c,f
  2005  001788  2E46               	bra	u1897
  2006  00178A  D7FC               	nop
  2007  00178C  F000               opt asmopt_pop
  2008                           
  2009                           	line	76
  2010                           	
  2011                           l2374:
  2012  00178E                     ;isrmon.c: 76:     BORRAR_LCD();
  2013                           	call	_BORRAR_LCD	;wreg free
  2014  00178E  EC7C  F010         	line	77
  2015                           	
  2016                           l2376:
  2017  001792                     ;isrmon.c: 77:     CURSOR_ONOFF(1);
  2018                           	movlw	(01h)&0ffh
  2019  001792  0E01               	
  2020                           	call	_CURSOR_ONOFF
  2021  001794  ECF2  F00F         	line	78
  2022                           	
  2023                           l2378:
  2024  001798                     ;isrmon.c: 78:     CURSOR_HOME();
  2025                           	call	_CURSOR_HOME	;wreg free
  2026  001798  EC78  F010         	line	79
  2027                           	
  2028                           l2380:
  2029  00179C                     ;isrmon.c: 79:     ESCRIBE_MENSAJE("ADC:", 4);
  2030                           		movlw	low(STR_1)
  2031  00179C  0E01               	movwf	((c:ESCRIBE_MENSAJE@cadena)),c
  2032  00179E  6E04               	movlw	high(STR_1)
  2033  0017A0  0E08               	movwf	((c:ESCRIBE_MENSAJE@cadena+1)),c
  2034  0017A2  6E05               
  2035                           	movlw	low(04h)
  2036  0017A4  0E04               	movwf	((c:ESCRIBE_MENSAJE@tam)),c
  2037  0017A6  6E06               	call	_ESCRIBE_MENSAJE	;wreg free
  2038  0017A8  EC48  F00F         	line	80
  2039                           	
  2040                           l2382:
  2041  0017AC                     ;isrmon.c: 80:     POS_CURSOR(2,0);
  2042                           	movlw	low(0)
  2043  0017AC  0E00               	movwf	((c:POS_CURSOR@columna)),c
  2044  0017AE  6E04               	movlw	(02h)&0ffh
  2045  0017B0  0E02               	
  2046                           	call	_POS_CURSOR
  2047  0017B2  EC6F  F00F         	line	81
  2048                           	
  2049                           l2384:
  2050  0017B6                     ;isrmon.c: 81:     ESCRIBE_MENSAJE("TON:", 4);
  2051                           		movlw	low(STR_2)
  2052  0017B6  0E06               	movwf	((c:ESCRIBE_MENSAJE@cadena)),c
  2053  0017B8  6E04               	movlw	high(STR_2)
  2054  0017BA  0E08               	movwf	((c:ESCRIBE_MENSAJE@cadena+1)),c
  2055  0017BC  6E05               
  2056                           	movlw	low(04h)
  2057  0017BE  0E04               	movwf	((c:ESCRIBE_MENSAJE@tam)),c
  2058  0017C0  6E06               	call	_ESCRIBE_MENSAJE	;wreg free
  2059  0017C2  EC48  F00F         	line	82
  2060                           	
  2061                           l2386:
  2062  0017C6                     ;isrmon.c: 82:     LATEbits.LE0 = 0;
  2063                           	bcf	((c:3981)),c,0	;volatile
  2064  0017C6  908D               	goto	l2388
  2065  0017C8  EFE6  F00B         	line	83
  2066                           ;isrmon.c: 83:     while(1){
  2067                           	
  2068                           l82:
  2069  0017CC                     	line	84
  2070                           	
  2071                           l2388:
  2072  0017CC                     ;isrmon.c: 84:         resul = ADC_CONVERTIR();
  2073                           	call	_ADC_CONVERTIR	;wreg free
  2074  0017CC  EC90  F00F         	movff	0+?_ADC_CONVERTIR,(c:_resul)
  2075  0017D0  C001  F047         	movff	1+?_ADC_CONVERTIR,(c:_resul+1)
  2076  0017D4  C002  F048         	line	85
  2077                           	
  2078                           l2390:
  2079  0017D8                     ;isrmon.c: 85:         conviertemon(resul);
  2080                           	movff	(c:_resul),(c:conviertemon@contadoron)
  2081  0017D8  C047  F009         	movff	(c:_resul+1),(c:conviertemon@contadoron+1)
  2082  0017DC  C048  F00A         	call	_conviertemon	;wreg free
  2083  0017E0  EC0E  F00D         	line	86
  2084                           	
  2085                           l2392:
  2086  0017E4                     ;isrmon.c: 86:         POS_CURSOR(1,5);
  2087                           	movlw	low(05h)
  2088  0017E4  0E05               	movwf	((c:POS_CURSOR@columna)),c
  2089  0017E6  6E04               	movlw	(01h)&0ffh
  2090  0017E8  0E01               	
  2091                           	call	_POS_CURSOR
  2092  0017EA  EC6F  F00F         	line	87
  2093                           	
  2094                           l2394:
  2095  0017EE                     ;isrmon.c: 87:         ENVIA_CHAR(digdmi+0x30);
  2096                           	movf	((c:_digdmi)),c,w
  2097  0017EE  505D               	addlw	low(030h)
  2098  0017F0  0F30               	
  2099                           	call	_ENVIA_CHAR
  2100  0017F2  EC0E  F010         	line	88
  2101                           	
  2102                           l2396:
  2103  0017F6                     ;isrmon.c: 88:         ENVIA_CHAR(digmil+0x30);
  2104                           	movf	((c:_digmil)),c,w
  2105  0017F6  5059               	addlw	low(030h)
  2106  0017F8  0F30               	
  2107                           	call	_ENVIA_CHAR
  2108  0017FA  EC0E  F010         	line	89
  2109                           	
  2110                           l2398:
  2111  0017FE                     ;isrmon.c: 89:         ENVIA_CHAR(digcen+0x30);
  2112                           	movf	((c:_digcen)),c,w
  2113  0017FE  5057               	addlw	low(030h)
  2114  001800  0F30               	
  2115                           	call	_ENVIA_CHAR
  2116  001802  EC0E  F010         	line	90
  2117                           	
  2118                           l2400:
  2119  001806                     ;isrmon.c: 90:         ENVIA_CHAR(digdec+0x30);
  2120                           	movf	((c:_digdec)),c,w
  2121  001806  5055               	addlw	low(030h)
  2122  001808  0F30               	
  2123                           	call	_ENVIA_CHAR
  2124  00180A  EC0E  F010         	line	91
  2125                           	
  2126                           l2402:
  2127  00180E                     ;isrmon.c: 91:         ENVIA_CHAR(diguni+0x30);
  2128                           	movf	((c:_diguni)),c,w
  2129  00180E  5053               	addlw	low(030h)
  2130  001810  0F30               	
  2131                           	call	_ENVIA_CHAR
  2132  001812  EC0E  F010         	line	92
  2133                           	
  2134                           l2404:
  2135  001816                     ;isrmon.c: 92:         calculon(resul);
  2136                           	movff	(c:_resul),(c:calculon@blablabla)
  2137  001816  C047  F040         	movff	(c:_resul+1),(c:calculon@blablabla+1)
  2138  00181A  C048  F041         	call	_calculon	;wreg free
  2139  00181E  EC02  F009         	line	93
  2140                           	
  2141                           l2406:
  2142  001822                     ;isrmon.c: 93:         POS_CURSOR(2,0);
  2143                           	movlw	low(0)
  2144  001822  0E00               	movwf	((c:POS_CURSOR@columna)),c
  2145  001824  6E04               	movlw	(02h)&0ffh
  2146  001826  0E02               	
  2147                           	call	_POS_CURSOR
  2148  001828  EC6F  F00F         	line	94
  2149                           	
  2150                           l2408:
  2151  00182C                     ;isrmon.c: 94:         ESCRIBE_MENSAJE("I:", 2);
  2152                           		movlw	low(STR_3)
  2153  00182C  0E0B               	movwf	((c:ESCRIBE_MENSAJE@cadena)),c
  2154  00182E  6E04               	movlw	high(STR_3)
  2155  001830  0E08               	movwf	((c:ESCRIBE_MENSAJE@cadena+1)),c
  2156  001832  6E05               
  2157                           	movlw	low(02h)
  2158  001834  0E02               	movwf	((c:ESCRIBE_MENSAJE@tam)),c
  2159  001836  6E06               	call	_ESCRIBE_MENSAJE	;wreg free
  2160  001838  EC48  F00F         	line	95
  2161                           	
  2162                           l2410:
  2163  00183C                     ;isrmon.c: 95:         POS_CURSOR(2,2);
  2164                           	movlw	low(02h)
  2165  00183C  0E02               	movwf	((c:POS_CURSOR@columna)),c
  2166  00183E  6E04               	movlw	(02h)&0ffh
  2167  001840  0E02               	
  2168                           	call	_POS_CURSOR
  2169  001842  EC6F  F00F         	line	96
  2170                           	
  2171                           l2412:
  2172  001846                     ;isrmon.c: 96:         ENVIA_CHAR(digdmi+0x30);
  2173                           	movf	((c:_digdmi)),c,w
  2174  001846  505D               	addlw	low(030h)
  2175  001848  0F30               	
  2176                           	call	_ENVIA_CHAR
  2177  00184A  EC0E  F010         	line	97
  2178                           	
  2179                           l2414:
  2180  00184E                     ;isrmon.c: 97:         ENVIA_CHAR(digmil+0x30);
  2181                           	movf	((c:_digmil)),c,w
  2182  00184E  5059               	addlw	low(030h)
  2183  001850  0F30               	
  2184                           	call	_ENVIA_CHAR
  2185  001852  EC0E  F010         	line	98
  2186                           	
  2187                           l2416:
  2188  001856                     ;isrmon.c: 98:         ENVIA_CHAR(digcen+0x30);
  2189                           	movf	((c:_digcen)),c,w
  2190  001856  5057               	addlw	low(030h)
  2191  001858  0F30               	
  2192                           	call	_ENVIA_CHAR
  2193  00185A  EC0E  F010         	line	99
  2194                           	
  2195                           l2418:
  2196  00185E                     ;isrmon.c: 99:         ENVIA_CHAR(digdec+0x30);
  2197                           	movf	((c:_digdec)),c,w
  2198  00185E  5055               	addlw	low(030h)
  2199  001860  0F30               	
  2200                           	call	_ENVIA_CHAR
  2201  001862  EC0E  F010         	line	100
  2202                           	
  2203                           l2420:
  2204  001866                     ;isrmon.c: 100:         ENVIA_CHAR(diguni+0x30);
  2205                           	movf	((c:_diguni)),c,w
  2206  001866  5053               	addlw	low(030h)
  2207  001868  0F30               	
  2208                           	call	_ENVIA_CHAR
  2209  00186A  EC0E  F010         	line	101
  2210                           	
  2211                           l2422:
  2212  00186E                     ;isrmon.c: 101:         POS_CURSOR(2,8);
  2213                           	movlw	low(08h)
  2214  00186E  0E08               	movwf	((c:POS_CURSOR@columna)),c
  2215  001870  6E04               	movlw	(02h)&0ffh
  2216  001872  0E02               	
  2217                           	call	_POS_CURSOR
  2218  001874  EC6F  F00F         	line	102
  2219                           	
  2220                           l2424:
  2221  001878                     ;isrmon.c: 102:         calculon2();
  2222                           	call	_calculon2	;wreg free
  2223  001878  EC97  F00D         	line	103
  2224                           	
  2225                           l2426:
  2226  00187C                     ;isrmon.c: 103:         ESCRIBE_MENSAJE("O:", 2);
  2227                           		movlw	low(STR_4)
  2228  00187C  0E0E               	movwf	((c:ESCRIBE_MENSAJE@cadena)),c
  2229  00187E  6E04               	movlw	high(STR_4)
  2230  001880  0E08               	movwf	((c:ESCRIBE_MENSAJE@cadena+1)),c
  2231  001882  6E05               
  2232                           	movlw	low(02h)
  2233  001884  0E02               	movwf	((c:ESCRIBE_MENSAJE@tam)),c
  2234  001886  6E06               	call	_ESCRIBE_MENSAJE	;wreg free
  2235  001888  EC48  F00F         	line	104
  2236                           	
  2237                           l2428:
  2238  00188C                     ;isrmon.c: 104:         POS_CURSOR(2,10);
  2239                           	movlw	low(0Ah)
  2240  00188C  0E0A               	movwf	((c:POS_CURSOR@columna)),c
  2241  00188E  6E04               	movlw	(02h)&0ffh
  2242  001890  0E02               	
  2243                           	call	_POS_CURSOR
  2244  001892  EC6F  F00F         	line	105
  2245                           	
  2246                           l2430:
  2247  001896                     ;isrmon.c: 105:         ENVIA_CHAR(digdmi+0x30);
  2248                           	movf	((c:_digdmi)),c,w
  2249  001896  505D               	addlw	low(030h)
  2250  001898  0F30               	
  2251                           	call	_ENVIA_CHAR
  2252  00189A  EC0E  F010         	line	106
  2253                           	
  2254                           l2432:
  2255  00189E                     ;isrmon.c: 106:         ENVIA_CHAR(digmil+0x30);
  2256                           	movf	((c:_digmil)),c,w
  2257  00189E  5059               	addlw	low(030h)
  2258  0018A0  0F30               	
  2259                           	call	_ENVIA_CHAR
  2260  0018A2  EC0E  F010         	line	107
  2261                           	
  2262                           l2434:
  2263  0018A6                     ;isrmon.c: 107:         ENVIA_CHAR(digcen+0x30);
  2264                           	movf	((c:_digcen)),c,w
  2265  0018A6  5057               	addlw	low(030h)
  2266  0018A8  0F30               	
  2267                           	call	_ENVIA_CHAR
  2268  0018AA  EC0E  F010         	line	108
  2269                           	
  2270                           l2436:
  2271  0018AE                     ;isrmon.c: 108:         ENVIA_CHAR(digdec+0x30);
  2272                           	movf	((c:_digdec)),c,w
  2273  0018AE  5055               	addlw	low(030h)
  2274  0018B0  0F30               	
  2275                           	call	_ENVIA_CHAR
  2276  0018B2  EC0E  F010         	line	109
  2277                           	
  2278                           l2438:
  2279  0018B6                     ;isrmon.c: 109:         ENVIA_CHAR(diguni+0x30);
  2280                           	movf	((c:_diguni)),c,w
  2281  0018B6  5053               	addlw	low(030h)
  2282  0018B8  0F30               	
  2283                           	call	_ENVIA_CHAR
  2284  0018BA  EC0E  F010         	goto	l2388
  2285  0018BE  EFE6  F00B         	line	110
  2286                           ;isrmon.c: 110:     }
  2287                           	
  2288                           l83:
  2289  0018C2                     	goto	l2388
  2290  0018C2  EFE6  F00B         	
  2291                           l84:
  2292  0018C6                     	line	111
  2293                           	
  2294                           l85:
  2295  0018C6                     	global	start
  2296                           	goto	start
  2297  0018C6  EF07  F000         	opt stack 0
  2298                           GLOBAL	__end_of_main
  2299                           	__end_of_main:
  2300  0018CA                     	signat	_main,89
  2301                           	global	_conviertemon
  2302                           
  2303 ;; *************** function _conviertemon *****************
  2304 ;; Defined at:
  2305 ;;		line 31 in file "isrmon.c"
  2306 ;; Parameters:    Size  Location     Type
  2307 ;;  contadoron      2    8[COMRAM] int 
  2308 ;; Auto vars:     Size  Location     Type
  2309 ;;		None
  2310 ;; Return value:  Size  Location     Type
  2311 ;;                  1    wreg      void 
  2312 ;; Registers used:
  2313 ;;		wreg, status,2, status,0, prodl, prodh, cstack
  2314 ;; Tracked objects:
  2315 ;;		On entry : 0/0
  2316 ;;		On exit  : 0/0
  2317 ;;		Unchanged: 0/0
  2318 ;; Data sizes:     COMRAM   BANK0   BANK1   BANK2   BANK3   BANK4   BANK5   BANK6   BANK7
  2319 ;;      Params:         2       0       0       0       0       0       0       0       0
  2320 ;;      Locals:         0       0       0       0       0       0       0       0       0
  2321 ;;      Temps:          0       0       0       0       0       0       0       0       0
  2322 ;;      Totals:         2       0       0       0       0       0       0       0       0
  2323 ;;Total ram usage:        2 bytes
  2324 ;; Hardware stack levels used:    1
  2325 ;; Hardware stack levels required when called:    2
  2326 ;; This function calls:
  2327 ;;		___awdiv
  2328 ;;		___wmul
  2329 ;; This function is called by:
  2330 ;;		_main
  2331 ;; This function uses a non-reentrant model
  2332 ;;
  2333                           psect	text1,class=CODE,space=0,reloc=2,group=0
  2334                           	line	31
  2335                           global __ptext1
  2336                           __ptext1:
  2337  001A1C                     psect	text1
  2338                           	file	"isrmon.c"
  2339                           	line	31
  2340                           	global	__size_of_conviertemon
  2341                           	__size_of_conviertemon	equ	__end_of_conviertemon-_conviertemon
  2342  0000                     	
  2343                           _conviertemon:
  2344  001A1C                     ;incstack = 0
  2345                           	opt	stack 28
  2346                           	line	32
  2347                           	
  2348                           l2290:
  2349  001A1C                     ;isrmon.c: 32:     digdmi = resul / 10000;
  2350                           	movff	(c:_resul),(c:___awdiv@dividend)
  2351  001A1C  C047  F001         	movff	(c:_resul+1),(c:___awdiv@dividend+1)
  2352  001A20  C048  F002         	movlw	high(02710h)
  2353  001A24  0E27               	movwf	((c:___awdiv@divisor+1)),c
  2354  001A26  6E04               	movlw	low(02710h)
  2355  001A28  0E10               	movwf	((c:___awdiv@divisor)),c
  2356  001A2A  6E03               	call	___awdiv	;wreg free
  2357  001A2C  EC20  F00E         	movff	0+?___awdiv,(c:_digdmi)
  2358  001A30  C001  F05D         	movff	1+?___awdiv,(c:_digdmi+1)
  2359  001A34  C002  F05E         	line	33
  2360                           	
  2361                           l2292:
  2362  001A38                     ;isrmon.c: 33:     temporal3 = resul - (digdmi * 10000);
  2363                           	movff	(c:_digdmi),(c:___wmul@multiplier)
  2364  001A38  C05D  F001         	movff	(c:_digdmi+1),(c:___wmul@multiplier+1)
  2365  001A3C  C05E  F002         	movlw	high(02710h)
  2366  001A40  0E27               	movwf	((c:___wmul@multiplicand+1)),c
  2367  001A42  6E04               	movlw	low(02710h)
  2368  001A44  0E10               	movwf	((c:___wmul@multiplicand)),c
  2369  001A46  6E03               	call	___wmul	;wreg free
  2370  001A48  EC42  F010         	comf	(0+?___wmul),c
  2371  001A4C  1E01               	comf	(1+?___wmul),c
  2372  001A4E  1E02               	infsnz	(0+?___wmul),c
  2373  001A50  4A01               	incf	(1+?___wmul),c
  2374  001A52  2A02               	movf	((c:_resul)),c,w
  2375  001A54  5047               	addwf	(0+?___wmul),c,w
  2376  001A56  2401               	movwf	((c:_temporal3)),c
  2377  001A58  6E4D               	movf	((c:_resul+1)),c,w
  2378  001A5A  5048               	addwfc	(1+?___wmul),c,w
  2379  001A5C  2002               	movwf	1+((c:_temporal3)),c
  2380  001A5E  6E4E               	line	34
  2381                           	
  2382                           l2294:
  2383  001A60                     ;isrmon.c: 34:     digmil = temporal3 / 1000;
  2384                           	movff	(c:_temporal3),(c:___awdiv@dividend)
  2385  001A60  C04D  F001         	movff	(c:_temporal3+1),(c:___awdiv@dividend+1)
  2386  001A64  C04E  F002         	movlw	high(03E8h)
  2387  001A68  0E03               	movwf	((c:___awdiv@divisor+1)),c
  2388  001A6A  6E04               	movlw	low(03E8h)
  2389  001A6C  0EE8               	movwf	((c:___awdiv@divisor)),c
  2390  001A6E  6E03               	call	___awdiv	;wreg free
  2391  001A70  EC20  F00E         	movff	0+?___awdiv,(c:_digmil)
  2392  001A74  C001  F059         	movff	1+?___awdiv,(c:_digmil+1)
  2393  001A78  C002  F05A         	line	35
  2394                           ;isrmon.c: 35:     temporal = temporal3 - (digmil * 1000);
  2395                           	movff	(c:_digmil),(c:___wmul@multiplier)
  2396  001A7C  C059  F001         	movff	(c:_digmil+1),(c:___wmul@multiplier+1)
  2397  001A80  C05A  F002         	movlw	high(03E8h)
  2398  001A84  0E03               	movwf	((c:___wmul@multiplicand+1)),c
  2399  001A86  6E04               	movlw	low(03E8h)
  2400  001A88  0EE8               	movwf	((c:___wmul@multiplicand)),c
  2401  001A8A  6E03               	call	___wmul	;wreg free
  2402  001A8C  EC42  F010         	comf	(0+?___wmul),c
  2403  001A90  1E01               	comf	(1+?___wmul),c
  2404  001A92  1E02               	infsnz	(0+?___wmul),c
  2405  001A94  4A01               	incf	(1+?___wmul),c
  2406  001A96  2A02               	movf	((c:_temporal3)),c,w
  2407  001A98  504D               	addwf	(0+?___wmul),c,w
  2408  001A9A  2401               	movwf	((c:_temporal)),c
  2409  001A9C  6E51               	movf	((c:_temporal3+1)),c,w
  2410  001A9E  504E               	addwfc	(1+?___wmul),c,w
  2411  001AA0  2002               	movwf	1+((c:_temporal)),c
  2412  001AA2  6E52               	line	36
  2413                           	
  2414                           l2296:
  2415  001AA4                     ;isrmon.c: 36:     digcen = temporal / 100;
  2416                           	movff	(c:_temporal),(c:___awdiv@dividend)
  2417  001AA4  C051  F001         	movff	(c:_temporal+1),(c:___awdiv@dividend+1)
  2418  001AA8  C052  F002         	movlw	high(064h)
  2419  001AAC  0E00               	movwf	((c:___awdiv@divisor+1)),c
  2420  001AAE  6E04               	movlw	low(064h)
  2421  001AB0  0E64               	movwf	((c:___awdiv@divisor)),c
  2422  001AB2  6E03               	call	___awdiv	;wreg free
  2423  001AB4  EC20  F00E         	movff	0+?___awdiv,(c:_digcen)
  2424  001AB8  C001  F057         	movff	1+?___awdiv,(c:_digcen+1)
  2425  001ABC  C002  F058         	line	37
  2426                           	
  2427                           l2298:
  2428  001AC0                     ;isrmon.c: 37:     temporal2 = temporal - (digcen * 100);
  2429                           	movff	(c:_digcen),(c:___wmul@multiplier)
  2430  001AC0  C057  F001         	movff	(c:_digcen+1),(c:___wmul@multiplier+1)
  2431  001AC4  C058  F002         	movlw	high(064h)
  2432  001AC8  0E00               	movwf	((c:___wmul@multiplicand+1)),c
  2433  001ACA  6E04               	movlw	low(064h)
  2434  001ACC  0E64               	movwf	((c:___wmul@multiplicand)),c
  2435  001ACE  6E03               	call	___wmul	;wreg free
  2436  001AD0  EC42  F010         	comf	(0+?___wmul),c
  2437  001AD4  1E01               	comf	(1+?___wmul),c
  2438  001AD6  1E02               	infsnz	(0+?___wmul),c
  2439  001AD8  4A01               	incf	(1+?___wmul),c
  2440  001ADA  2A02               	movf	((c:_temporal)),c,w
  2441  001ADC  5051               	addwf	(0+?___wmul),c,w
  2442  001ADE  2401               	movwf	((c:_temporal2)),c
  2443  001AE0  6E4F               	movf	((c:_temporal+1)),c,w
  2444  001AE2  5052               	addwfc	(1+?___wmul),c,w
  2445  001AE4  2002               	movwf	1+((c:_temporal2)),c
  2446  001AE6  6E50               	line	38
  2447                           ;isrmon.c: 38:     digdec = temporal2 / 10;
  2448                           	movff	(c:_temporal2),(c:___awdiv@dividend)
  2449  001AE8  C04F  F001         	movff	(c:_temporal2+1),(c:___awdiv@dividend+1)
  2450  001AEC  C050  F002         	movlw	high(0Ah)
  2451  001AF0  0E00               	movwf	((c:___awdiv@divisor+1)),c
  2452  001AF2  6E04               	movlw	low(0Ah)
  2453  001AF4  0E0A               	movwf	((c:___awdiv@divisor)),c
  2454  001AF6  6E03               	call	___awdiv	;wreg free
  2455  001AF8  EC20  F00E         	movff	0+?___awdiv,(c:_digdec)
  2456  001AFC  C001  F055         	movff	1+?___awdiv,(c:_digdec+1)
  2457  001B00  C002  F056         	line	39
  2458                           	
  2459                           l2300:
  2460  001B04                     ;isrmon.c: 39:     diguni = temporal2 - (digdec * 10);
  2461                           	movff	(c:_digdec),(c:___wmul@multiplier)
  2462  001B04  C055  F001         	movff	(c:_digdec+1),(c:___wmul@multiplier+1)
  2463  001B08  C056  F002         	movlw	high(0Ah)
  2464  001B0C  0E00               	movwf	((c:___wmul@multiplicand+1)),c
  2465  001B0E  6E04               	movlw	low(0Ah)
  2466  001B10  0E0A               	movwf	((c:___wmul@multiplicand)),c
  2467  001B12  6E03               	call	___wmul	;wreg free
  2468  001B14  EC42  F010         	comf	(0+?___wmul),c
  2469  001B18  1E01               	comf	(1+?___wmul),c
  2470  001B1A  1E02               	infsnz	(0+?___wmul),c
  2471  001B1C  4A01               	incf	(1+?___wmul),c
  2472  001B1E  2A02               	movf	((c:_temporal2)),c,w
  2473  001B20  504F               	addwf	(0+?___wmul),c,w
  2474  001B22  2401               	movwf	((c:_diguni)),c
  2475  001B24  6E53               	movf	((c:_temporal2+1)),c,w
  2476  001B26  5050               	addwfc	(1+?___wmul),c,w
  2477  001B28  2002               	movwf	1+((c:_diguni)),c
  2478  001B2A  6E54               	line	40
  2479                           	
  2480                           l71:
  2481  001B2C                     	return	;funcret
  2482  001B2C  0012               	opt stack 0
  2483                           GLOBAL	__end_of_conviertemon
  2484                           	__end_of_conviertemon:
  2485  001B2E                     	signat	_conviertemon,4217
  2486                           	global	_calculon2
  2487                           
  2488 ;; *************** function _calculon2 *****************
  2489 ;; Defined at:
  2490 ;;		line 57 in file "isrmon.c"
  2491 ;; Parameters:    Size  Location     Type
  2492 ;;		None
  2493 ;; Auto vars:     Size  Location     Type
  2494 ;;		None
  2495 ;; Return value:  Size  Location     Type
  2496 ;;                  1    wreg      void 
  2497 ;; Registers used:
  2498 ;;		wreg, status,2, status,0, prodl, prodh, cstack
  2499 ;; Tracked objects:
  2500 ;;		On entry : 0/0
  2501 ;;		On exit  : 0/0
  2502 ;;		Unchanged: 0/0
  2503 ;; Data sizes:     COMRAM   BANK0   BANK1   BANK2   BANK3   BANK4   BANK5   BANK6   BANK7
  2504 ;;      Params:         0       0       0       0       0       0       0       0       0
  2505 ;;      Locals:         0       0       0       0       0       0       0       0       0
  2506 ;;      Temps:          0       0       0       0       0       0       0       0       0
  2507 ;;      Totals:         0       0       0       0       0       0       0       0       0
  2508 ;;Total ram usage:        0 bytes
  2509 ;; Hardware stack levels used:    1
  2510 ;; Hardware stack levels required when called:    2
  2511 ;; This function calls:
  2512 ;;		___awdiv
  2513 ;;		___lwdiv
  2514 ;;		___wmul
  2515 ;; This function is called by:
  2516 ;;		_main
  2517 ;; This function uses a non-reentrant model
  2518 ;;
  2519                           psect	text2,class=CODE,space=0,reloc=2,group=0
  2520                           	line	57
  2521                           global __ptext2
  2522                           __ptext2:
  2523  001B2E                     psect	text2
  2524                           	file	"isrmon.c"
  2525                           	line	57
  2526                           	global	__size_of_calculon2
  2527                           	__size_of_calculon2	equ	__end_of_calculon2-_calculon2
  2528  0000                     	
  2529                           _calculon2:
  2530  001B2E                     ;incstack = 0
  2531                           	opt	stack 28
  2532                           	line	58
  2533                           	
  2534                           l2320:
  2535  001B2E                     ;isrmon.c: 58:     digdmi = cta_off / 10000;
  2536                           	movff	(c:_cta_off),(c:___lwdiv@dividend)
  2537  001B2E  C049  F001         	movff	(c:_cta_off+1),(c:___lwdiv@dividend+1)
  2538  001B32  C04A  F002         	movlw	high(02710h)
  2539  001B36  0E27               	movwf	((c:___lwdiv@divisor+1)),c
  2540  001B38  6E04               	movlw	low(02710h)
  2541  001B3A  0E10               	movwf	((c:___lwdiv@divisor)),c
  2542  001B3C  6E03               	call	___lwdiv	;wreg free
  2543  001B3E  EC96  F00E         	movff	0+?___lwdiv,(c:_digdmi)
  2544  001B42  C001  F05D         	movff	1+?___lwdiv,(c:_digdmi+1)
  2545  001B46  C002  F05E         	line	59
  2546                           	
  2547                           l2322:
  2548  001B4A                     ;isrmon.c: 59:     temporal3 = cta_off - (digdmi * 10000);
  2549                           	movff	(c:_digdmi),(c:___wmul@multiplier)
  2550  001B4A  C05D  F001         	movff	(c:_digdmi+1),(c:___wmul@multiplier+1)
  2551  001B4E  C05E  F002         	movlw	high(02710h)
  2552  001B52  0E27               	movwf	((c:___wmul@multiplicand+1)),c
  2553  001B54  6E04               	movlw	low(02710h)
  2554  001B56  0E10               	movwf	((c:___wmul@multiplicand)),c
  2555  001B58  6E03               	call	___wmul	;wreg free
  2556  001B5A  EC42  F010         	comf	(0+?___wmul),c
  2557  001B5E  1E01               	comf	(1+?___wmul),c
  2558  001B60  1E02               	infsnz	(0+?___wmul),c
  2559  001B62  4A01               	incf	(1+?___wmul),c
  2560  001B64  2A02               	movf	((c:_cta_off)),c,w
  2561  001B66  5049               	addwf	(0+?___wmul),c,w
  2562  001B68  2401               	movwf	((c:_temporal3)),c
  2563  001B6A  6E4D               	movf	((c:_cta_off+1)),c,w
  2564  001B6C  504A               	addwfc	(1+?___wmul),c,w
  2565  001B6E  2002               	movwf	1+((c:_temporal3)),c
  2566  001B70  6E4E               	line	60
  2567                           	
  2568                           l2324:
  2569  001B72                     ;isrmon.c: 60:     digmil = temporal3 / 1000;
  2570                           	movff	(c:_temporal3),(c:___awdiv@dividend)
  2571  001B72  C04D  F001         	movff	(c:_temporal3+1),(c:___awdiv@dividend+1)
  2572  001B76  C04E  F002         	movlw	high(03E8h)
  2573  001B7A  0E03               	movwf	((c:___awdiv@divisor+1)),c
  2574  001B7C  6E04               	movlw	low(03E8h)
  2575  001B7E  0EE8               	movwf	((c:___awdiv@divisor)),c
  2576  001B80  6E03               	call	___awdiv	;wreg free
  2577  001B82  EC20  F00E         	movff	0+?___awdiv,(c:_digmil)
  2578  001B86  C001  F059         	movff	1+?___awdiv,(c:_digmil+1)
  2579  001B8A  C002  F05A         	line	61
  2580                           ;isrmon.c: 61:     temporal = temporal3 - (digmil * 1000);
  2581                           	movff	(c:_digmil),(c:___wmul@multiplier)
  2582  001B8E  C059  F001         	movff	(c:_digmil+1),(c:___wmul@multiplier+1)
  2583  001B92  C05A  F002         	movlw	high(03E8h)
  2584  001B96  0E03               	movwf	((c:___wmul@multiplicand+1)),c
  2585  001B98  6E04               	movlw	low(03E8h)
  2586  001B9A  0EE8               	movwf	((c:___wmul@multiplicand)),c
  2587  001B9C  6E03               	call	___wmul	;wreg free
  2588  001B9E  EC42  F010         	comf	(0+?___wmul),c
  2589  001BA2  1E01               	comf	(1+?___wmul),c
  2590  001BA4  1E02               	infsnz	(0+?___wmul),c
  2591  001BA6  4A01               	incf	(1+?___wmul),c
  2592  001BA8  2A02               	movf	((c:_temporal3)),c,w
  2593  001BAA  504D               	addwf	(0+?___wmul),c,w
  2594  001BAC  2401               	movwf	((c:_temporal)),c
  2595  001BAE  6E51               	movf	((c:_temporal3+1)),c,w
  2596  001BB0  504E               	addwfc	(1+?___wmul),c,w
  2597  001BB2  2002               	movwf	1+((c:_temporal)),c
  2598  001BB4  6E52               	line	62
  2599                           	
  2600                           l2326:
  2601  001BB6                     ;isrmon.c: 62:     digcen = temporal / 100;
  2602                           	movff	(c:_temporal),(c:___awdiv@dividend)
  2603  001BB6  C051  F001         	movff	(c:_temporal+1),(c:___awdiv@dividend+1)
  2604  001BBA  C052  F002         	movlw	high(064h)
  2605  001BBE  0E00               	movwf	((c:___awdiv@divisor+1)),c
  2606  001BC0  6E04               	movlw	low(064h)
  2607  001BC2  0E64               	movwf	((c:___awdiv@divisor)),c
  2608  001BC4  6E03               	call	___awdiv	;wreg free
  2609  001BC6  EC20  F00E         	movff	0+?___awdiv,(c:_digcen)
  2610  001BCA  C001  F057         	movff	1+?___awdiv,(c:_digcen+1)
  2611  001BCE  C002  F058         	line	63
  2612                           	
  2613                           l2328:
  2614  001BD2                     ;isrmon.c: 63:     temporal2 = temporal - (digcen * 100);
  2615                           	movff	(c:_digcen),(c:___wmul@multiplier)
  2616  001BD2  C057  F001         	movff	(c:_digcen+1),(c:___wmul@multiplier+1)
  2617  001BD6  C058  F002         	movlw	high(064h)
  2618  001BDA  0E00               	movwf	((c:___wmul@multiplicand+1)),c
  2619  001BDC  6E04               	movlw	low(064h)
  2620  001BDE  0E64               	movwf	((c:___wmul@multiplicand)),c
  2621  001BE0  6E03               	call	___wmul	;wreg free
  2622  001BE2  EC42  F010         	comf	(0+?___wmul),c
  2623  001BE6  1E01               	comf	(1+?___wmul),c
  2624  001BE8  1E02               	infsnz	(0+?___wmul),c
  2625  001BEA  4A01               	incf	(1+?___wmul),c
  2626  001BEC  2A02               	movf	((c:_temporal)),c,w
  2627  001BEE  5051               	addwf	(0+?___wmul),c,w
  2628  001BF0  2401               	movwf	((c:_temporal2)),c
  2629  001BF2  6E4F               	movf	((c:_temporal+1)),c,w
  2630  001BF4  5052               	addwfc	(1+?___wmul),c,w
  2631  001BF6  2002               	movwf	1+((c:_temporal2)),c
  2632  001BF8  6E50               	line	64
  2633                           ;isrmon.c: 64:     digdec = temporal2 / 10;
  2634                           	movff	(c:_temporal2),(c:___awdiv@dividend)
  2635  001BFA  C04F  F001         	movff	(c:_temporal2+1),(c:___awdiv@dividend+1)
  2636  001BFE  C050  F002         	movlw	high(0Ah)
  2637  001C02  0E00               	movwf	((c:___awdiv@divisor+1)),c
  2638  001C04  6E04               	movlw	low(0Ah)
  2639  001C06  0E0A               	movwf	((c:___awdiv@divisor)),c
  2640  001C08  6E03               	call	___awdiv	;wreg free
  2641  001C0A  EC20  F00E         	movff	0+?___awdiv,(c:_digdec)
  2642  001C0E  C001  F055         	movff	1+?___awdiv,(c:_digdec+1)
  2643  001C12  C002  F056         	line	65
  2644                           	
  2645                           l2330:
  2646  001C16                     ;isrmon.c: 65:     diguni = temporal2 - (digdec * 10);
  2647                           	movff	(c:_digdec),(c:___wmul@multiplier)
  2648  001C16  C055  F001         	movff	(c:_digdec+1),(c:___wmul@multiplier+1)
  2649  001C1A  C056  F002         	movlw	high(0Ah)
  2650  001C1E  0E00               	movwf	((c:___wmul@multiplicand+1)),c
  2651  001C20  6E04               	movlw	low(0Ah)
  2652  001C22  0E0A               	movwf	((c:___wmul@multiplicand)),c
  2653  001C24  6E03               	call	___wmul	;wreg free
  2654  001C26  EC42  F010         	comf	(0+?___wmul),c
  2655  001C2A  1E01               	comf	(1+?___wmul),c
  2656  001C2C  1E02               	infsnz	(0+?___wmul),c
  2657  001C2E  4A01               	incf	(1+?___wmul),c
  2658  001C30  2A02               	movf	((c:_temporal2)),c,w
  2659  001C32  504F               	addwf	(0+?___wmul),c,w
  2660  001C34  2401               	movwf	((c:_diguni)),c
  2661  001C36  6E53               	movf	((c:_temporal2+1)),c,w
  2662  001C38  5050               	addwfc	(1+?___wmul),c,w
  2663  001C3A  2002               	movwf	1+((c:_diguni)),c
  2664  001C3C  6E54               	line	66
  2665                           	
  2666                           l77:
  2667  001C3E                     	return	;funcret
  2668  001C3E  0012               	opt stack 0
  2669                           GLOBAL	__end_of_calculon2
  2670                           	__end_of_calculon2:
  2671  001C40                     	signat	_calculon2,89
  2672                           	global	_calculon
  2673                           
  2674 ;; *************** function _calculon *****************
  2675 ;; Defined at:
  2676 ;;		line 42 in file "isrmon.c"
  2677 ;; Parameters:    Size  Location     Type
  2678 ;;  blablabla       2   63[COMRAM] int 
  2679 ;; Auto vars:     Size  Location     Type
  2680 ;;		None
  2681 ;; Return value:  Size  Location     Type
  2682 ;;                  1    wreg      void 
  2683 ;; Registers used:
  2684 ;;		wreg, status,2, status,0, prodl, prodh, cstack
  2685 ;; Tracked objects:
  2686 ;;		On entry : 0/0
  2687 ;;		On exit  : 0/0
  2688 ;;		Unchanged: 0/0
  2689 ;; Data sizes:     COMRAM   BANK0   BANK1   BANK2   BANK3   BANK4   BANK5   BANK6   BANK7
  2690 ;;      Params:         2       0       0       0       0       0       0       0       0
  2691 ;;      Locals:         0       0       0       0       0       0       0       0       0
  2692 ;;      Temps:          4       0       0       0       0       0       0       0       0
  2693 ;;      Totals:         6       0       0       0       0       0       0       0       0
  2694 ;;Total ram usage:        6 bytes
  2695 ;; Hardware stack levels used:    1
  2696 ;; Hardware stack levels required when called:    2
  2697 ;; This function calls:
  2698 ;;		___awdiv
  2699 ;;		___fladd
  2700 ;;		___flmul
  2701 ;;		___flneg
  2702 ;;		___fltol
  2703 ;;		___lwdiv
  2704 ;;		___wmul
  2705 ;;		___xxtofl
  2706 ;; This function is called by:
  2707 ;;		_main
  2708 ;; This function uses a non-reentrant model
  2709 ;;
  2710                           psect	text3,class=CODE,space=0,reloc=2,group=0
  2711                           	line	42
  2712                           global __ptext3
  2713                           __ptext3:
  2714  001204                     psect	text3
  2715                           	file	"isrmon.c"
  2716                           	line	42
  2717                           	global	__size_of_calculon
  2718                           	__size_of_calculon	equ	__end_of_calculon-_calculon
  2719  0000                     	
  2720                           _calculon:
  2721  001204                     ;incstack = 0
  2722                           	opt	stack 28
  2723                           	line	43
  2724                           	
  2725                           l2302:
  2726  001204                     ;isrmon.c: 43:     pre_cta_on = 63428 - (blablabla * 4.712);
  2727                           	movlw	low(normalize32(0x4096c8b4))
  2728  001204  0EB4               	movwf	((c:___flmul@a)),c
  2729  001206  6E13               	movlw	high(normalize32(0x4096c8b4))
  2730  001208  0EC8               	movwf	((c:___flmul@a+1)),c
  2731  00120A  6E14               	movlw	low highword(normalize32(0x4096c8b4))
  2732  00120C  0E96               	movwf	((c:___flmul@a+2)),c
  2733  00120E  6E15               	movlw	high highword(normalize32(0x4096c8b4))
  2734  001210  0E40               	movwf	((c:___flmul@a+3)),c
  2735  001212  6E16               	movff	(c:calculon@blablabla),(c:___xxtofl@val)
  2736  001214  C040  F001         	movff	(c:calculon@blablabla+1),(c:___xxtofl@val+1)
  2737  001218  C041  F002         	movlw	0
  2738  00121C  0E00               	btfsc	((c:___xxtofl@val+1)),c,7
  2739  00121E  BE02               	movlw	-1
  2740  001220  0EFF               	movwf	((c:___xxtofl@val+2)),c
  2741  001222  6E03               	movwf	((c:___xxtofl@val+3)),c
  2742  001224  6E04               	movlw	(01h)&0ffh
  2743  001226  0E01               	
  2744                           	call	___xxtofl
  2745  001228  EC0F  F00A         	movff	0+?___xxtofl,(c:___flmul@b)
  2746  00122C  C001  F00F         	movff	1+?___xxtofl,(c:___flmul@b+1)
  2747  001230  C002  F010         	movff	2+?___xxtofl,(c:___flmul@b+2)
  2748  001234  C003  F011         	movff	3+?___xxtofl,(c:___flmul@b+3)
  2749  001238  C004  F012         	
  2750                           	call	___flmul	;wreg free
  2751  00123C  ECCB  F006         	movff	0+?___flmul,(c:___flneg@f1)
  2752  001240  C00F  F028         	movff	1+?___flmul,(c:___flneg@f1+1)
  2753  001244  C010  F029         	movff	2+?___flmul,(c:___flneg@f1+2)
  2754  001248  C011  F02A         	movff	3+?___flmul,(c:___flneg@f1+3)
  2755  00124C  C012  F02B         	
  2756                           	call	___flneg	;wreg free
  2757  001250  ECD2  F00F         	movff	0+?___flneg,(c:___fladd@b)
  2758  001254  C028  F02C         	movff	1+?___flneg,(c:___fladd@b+1)
  2759  001258  C029  F02D         	movff	2+?___flneg,(c:___fladd@b+2)
  2760  00125C  C02A  F02E         	movff	3+?___flneg,(c:___fladd@b+3)
  2761  001260  C02B  F02F         	
  2762                           	movlw	low(normalize32(0x4777c400))
  2763  001264  0E00               	movwf	((c:___fladd@a)),c
  2764  001266  6E30               	movlw	high(normalize32(0x4777c400))
  2765  001268  0EC4               	movwf	((c:___fladd@a+1)),c
  2766  00126A  6E31               	movlw	low highword(normalize32(0x4777c400))
  2767  00126C  0E77               	movwf	((c:___fladd@a+2)),c
  2768  00126E  6E32               	movlw	high highword(normalize32(0x4777c400))
  2769  001270  0E47               	movwf	((c:___fladd@a+3)),c
  2770  001272  6E33               	call	___fladd	;wreg free
  2771  001274  EC09  F004         	movff	0+?___fladd,(_pre_cta_on)
  2772  001278  C02C  F064         	movff	1+?___fladd,(_pre_cta_on+1)
  2773  00127C  C02D  F065         	movff	2+?___fladd,(_pre_cta_on+2)
  2774  001280  C02E  F066         	movff	3+?___fladd,(_pre_cta_on+3)
  2775  001284  C02F  F067         	
  2776                           	line	44
  2777                           	
  2778                           l2304:
  2779  001288                     ;isrmon.c: 44:     pre_cta_off = 70832 - cta_on;
  2780                           	movf	((c:_cta_on)),c,w
  2781  001288  504B               	movwf	(??_calculon+0+0)&0ffh,c
  2782  00128A  6E42               	movf	((c:_cta_on+1)),c,w
  2783  00128C  504C               	movwf	1+(??_calculon+0+0)&0ffh,c
  2784  00128E  6E43               	
  2785                           	clrf	2+(??_calculon+0+0)&0ffh,c
  2786  001290  6A44               	
  2787                           	clrf	3+(??_calculon+0+0)&0ffh,c
  2788  001292  6A45               	comf	(??_calculon+0+0),c
  2789  001294  1E42               	comf	(??_calculon+0+1),c
  2790  001296  1E43               	comf	(??_calculon+0+2),c
  2791  001298  1E44               	comf	(??_calculon+0+3),c
  2792  00129A  1E45               	incf	(??_calculon+0+0),c
  2793  00129C  2A42               	movlw	0
  2794  00129E  0E00               	addwfc	(??_calculon+0+1),c
  2795  0012A0  2243               	addwfc	(??_calculon+0+2),c
  2796  0012A2  2244               	addwfc	(??_calculon+0+3),c
  2797  0012A4  2245               	movlw	0B0h
  2798  0012A6  0EB0               	addwf	(??_calculon+0+0),c,w
  2799  0012A8  2442               	movwf	((c:___xxtofl@val)),c
  2800  0012AA  6E01               	movlw	014h
  2801  0012AC  0E14               	addwfc	(??_calculon+0+1),c,w
  2802  0012AE  2043               	movwf	1+((c:___xxtofl@val)),c
  2803  0012B0  6E02               	
  2804                           	movlw	01h
  2805  0012B2  0E01               	addwfc	(??_calculon+0+2),c,w
  2806  0012B4  2044               	movwf	2+((c:___xxtofl@val)),c
  2807  0012B6  6E03               	
  2808                           	movlw	0
  2809  0012B8  0E00               	addwfc	(??_calculon+0+3),c,w
  2810  0012BA  2045               	movwf	3+((c:___xxtofl@val)),c
  2811  0012BC  6E04               	movlw	(01h)&0ffh
  2812  0012BE  0E01               	
  2813                           	call	___xxtofl
  2814  0012C0  EC0F  F00A         	movff	0+?___xxtofl,(_pre_cta_off)
  2815  0012C4  C001  F060         	movff	1+?___xxtofl,(_pre_cta_off+1)
  2816  0012C8  C002  F061         	movff	2+?___xxtofl,(_pre_cta_off+2)
  2817  0012CC  C003  F062         	movff	3+?___xxtofl,(_pre_cta_off+3)
  2818  0012D0  C004  F063         	
  2819                           	line	45
  2820                           	
  2821                           l2306:
  2822  0012D4                     ;isrmon.c: 45:     cta_on = pre_cta_on;
  2823                           	movff	(_pre_cta_on),(c:___fltol@f1)
  2824  0012D4  C064  F001         	movff	(_pre_cta_on+1),(c:___fltol@f1+1)
  2825  0012D8  C065  F002         	movff	(_pre_cta_on+2),(c:___fltol@f1+2)
  2826  0012DC  C066  F003         	movff	(_pre_cta_on+3),(c:___fltol@f1+3)
  2827  0012E0  C067  F004         	call	___fltol	;wreg free
  2828  0012E4  EC65  F00C         	movff	0+?___fltol,(c:_cta_on)
  2829  0012E8  C001  F04B         	movff	1+?___fltol,(c:_cta_on+1)
  2830  0012EC  C002  F04C         	line	46
  2831                           	
  2832                           l2308:
  2833  0012F0                     ;isrmon.c: 46:     cta_off = pre_cta_off;
  2834                           	movff	(_pre_cta_off),(c:___fltol@f1)
  2835  0012F0  C060  F001         	movff	(_pre_cta_off+1),(c:___fltol@f1+1)
  2836  0012F4  C061  F002         	movff	(_pre_cta_off+2),(c:___fltol@f1+2)
  2837  0012F8  C062  F003         	movff	(_pre_cta_off+3),(c:___fltol@f1+3)
  2838  0012FC  C063  F004         	call	___fltol	;wreg free
  2839  001300  EC65  F00C         	movff	0+?___fltol,(c:_cta_off)
  2840  001304  C001  F049         	movff	1+?___fltol,(c:_cta_off+1)
  2841  001308  C002  F04A         	line	47
  2842                           	
  2843                           l2310:
  2844  00130C                     ;isrmon.c: 47:     digdmi = cta_on / 10000;
  2845                           	movff	(c:_cta_on),(c:___lwdiv@dividend)
  2846  00130C  C04B  F001         	movff	(c:_cta_on+1),(c:___lwdiv@dividend+1)
  2847  001310  C04C  F002         	movlw	high(02710h)
  2848  001314  0E27               	movwf	((c:___lwdiv@divisor+1)),c
  2849  001316  6E04               	movlw	low(02710h)
  2850  001318  0E10               	movwf	((c:___lwdiv@divisor)),c
  2851  00131A  6E03               	call	___lwdiv	;wreg free
  2852  00131C  EC96  F00E         	movff	0+?___lwdiv,(c:_digdmi)
  2853  001320  C001  F05D         	movff	1+?___lwdiv,(c:_digdmi+1)
  2854  001324  C002  F05E         	line	48
  2855                           ;isrmon.c: 48:     temporal3 = cta_on - (digdmi * 10000);
  2856                           	movff	(c:_digdmi),(c:___wmul@multiplier)
  2857  001328  C05D  F001         	movff	(c:_digdmi+1),(c:___wmul@multiplier+1)
  2858  00132C  C05E  F002         	movlw	high(02710h)
  2859  001330  0E27               	movwf	((c:___wmul@multiplicand+1)),c
  2860  001332  6E04               	movlw	low(02710h)
  2861  001334  0E10               	movwf	((c:___wmul@multiplicand)),c
  2862  001336  6E03               	call	___wmul	;wreg free
  2863  001338  EC42  F010         	comf	(0+?___wmul),c
  2864  00133C  1E01               	comf	(1+?___wmul),c
  2865  00133E  1E02               	infsnz	(0+?___wmul),c
  2866  001340  4A01               	incf	(1+?___wmul),c
  2867  001342  2A02               	movf	((c:_cta_on)),c,w
  2868  001344  504B               	addwf	(0+?___wmul),c,w
  2869  001346  2401               	movwf	((c:_temporal3)),c
  2870  001348  6E4D               	movf	((c:_cta_on+1)),c,w
  2871  00134A  504C               	addwfc	(1+?___wmul),c,w
  2872  00134C  2002               	movwf	1+((c:_temporal3)),c
  2873  00134E  6E4E               	line	49
  2874                           	
  2875                           l2312:
  2876  001350                     ;isrmon.c: 49:     digmil = temporal3 / 1000;
  2877                           	movff	(c:_temporal3),(c:___awdiv@dividend)
  2878  001350  C04D  F001         	movff	(c:_temporal3+1),(c:___awdiv@dividend+1)
  2879  001354  C04E  F002         	movlw	high(03E8h)
  2880  001358  0E03               	movwf	((c:___awdiv@divisor+1)),c
  2881  00135A  6E04               	movlw	low(03E8h)
  2882  00135C  0EE8               	movwf	((c:___awdiv@divisor)),c
  2883  00135E  6E03               	call	___awdiv	;wreg free
  2884  001360  EC20  F00E         	movff	0+?___awdiv,(c:_digmil)
  2885  001364  C001  F059         	movff	1+?___awdiv,(c:_digmil+1)
  2886  001368  C002  F05A         	line	50
  2887                           	
  2888                           l2314:
  2889  00136C                     ;isrmon.c: 50:     temporal = temporal3 - (digmil * 1000);
  2890                           	movff	(c:_digmil),(c:___wmul@multiplier)
  2891  00136C  C059  F001         	movff	(c:_digmil+1),(c:___wmul@multiplier+1)
  2892  001370  C05A  F002         	movlw	high(03E8h)
  2893  001374  0E03               	movwf	((c:___wmul@multiplicand+1)),c
  2894  001376  6E04               	movlw	low(03E8h)
  2895  001378  0EE8               	movwf	((c:___wmul@multiplicand)),c
  2896  00137A  6E03               	call	___wmul	;wreg free
  2897  00137C  EC42  F010         	comf	(0+?___wmul),c
  2898  001380  1E01               	comf	(1+?___wmul),c
  2899  001382  1E02               	infsnz	(0+?___wmul),c
  2900  001384  4A01               	incf	(1+?___wmul),c
  2901  001386  2A02               	movf	((c:_temporal3)),c,w
  2902  001388  504D               	addwf	(0+?___wmul),c,w
  2903  00138A  2401               	movwf	((c:_temporal)),c
  2904  00138C  6E51               	movf	((c:_temporal3+1)),c,w
  2905  00138E  504E               	addwfc	(1+?___wmul),c,w
  2906  001390  2002               	movwf	1+((c:_temporal)),c
  2907  001392  6E52               	line	51
  2908                           ;isrmon.c: 51:     digcen = temporal / 100;
  2909                           	movff	(c:_temporal),(c:___awdiv@dividend)
  2910  001394  C051  F001         	movff	(c:_temporal+1),(c:___awdiv@dividend+1)
  2911  001398  C052  F002         	movlw	high(064h)
  2912  00139C  0E00               	movwf	((c:___awdiv@divisor+1)),c
  2913  00139E  6E04               	movlw	low(064h)
  2914  0013A0  0E64               	movwf	((c:___awdiv@divisor)),c
  2915  0013A2  6E03               	call	___awdiv	;wreg free
  2916  0013A4  EC20  F00E         	movff	0+?___awdiv,(c:_digcen)
  2917  0013A8  C001  F057         	movff	1+?___awdiv,(c:_digcen+1)
  2918  0013AC  C002  F058         	line	52
  2919                           	
  2920                           l2316:
  2921  0013B0                     ;isrmon.c: 52:     temporal2 = temporal - (digcen * 100);
  2922                           	movff	(c:_digcen),(c:___wmul@multiplier)
  2923  0013B0  C057  F001         	movff	(c:_digcen+1),(c:___wmul@multiplier+1)
  2924  0013B4  C058  F002         	movlw	high(064h)
  2925  0013B8  0E00               	movwf	((c:___wmul@multiplicand+1)),c
  2926  0013BA  6E04               	movlw	low(064h)
  2927  0013BC  0E64               	movwf	((c:___wmul@multiplicand)),c
  2928  0013BE  6E03               	call	___wmul	;wreg free
  2929  0013C0  EC42  F010         	comf	(0+?___wmul),c
  2930  0013C4  1E01               	comf	(1+?___wmul),c
  2931  0013C6  1E02               	infsnz	(0+?___wmul),c
  2932  0013C8  4A01               	incf	(1+?___wmul),c
  2933  0013CA  2A02               	movf	((c:_temporal)),c,w
  2934  0013CC  5051               	addwf	(0+?___wmul),c,w
  2935  0013CE  2401               	movwf	((c:_temporal2)),c
  2936  0013D0  6E4F               	movf	((c:_temporal+1)),c,w
  2937  0013D2  5052               	addwfc	(1+?___wmul),c,w
  2938  0013D4  2002               	movwf	1+((c:_temporal2)),c
  2939  0013D6  6E50               	line	53
  2940                           	
  2941                           l2318:
  2942  0013D8                     ;isrmon.c: 53:     digdec = temporal2 / 10;
  2943                           	movff	(c:_temporal2),(c:___awdiv@dividend)
  2944  0013D8  C04F  F001         	movff	(c:_temporal2+1),(c:___awdiv@dividend+1)
  2945  0013DC  C050  F002         	movlw	high(0Ah)
  2946  0013E0  0E00               	movwf	((c:___awdiv@divisor+1)),c
  2947  0013E2  6E04               	movlw	low(0Ah)
  2948  0013E4  0E0A               	movwf	((c:___awdiv@divisor)),c
  2949  0013E6  6E03               	call	___awdiv	;wreg free
  2950  0013E8  EC20  F00E         	movff	0+?___awdiv,(c:_digdec)
  2951  0013EC  C001  F055         	movff	1+?___awdiv,(c:_digdec+1)
  2952  0013F0  C002  F056         	line	54
  2953                           ;isrmon.c: 54:     diguni = temporal2 - (digdec * 10);
  2954                           	movff	(c:_digdec),(c:___wmul@multiplier)
  2955  0013F4  C055  F001         	movff	(c:_digdec+1),(c:___wmul@multiplier+1)
  2956  0013F8  C056  F002         	movlw	high(0Ah)
  2957  0013FC  0E00               	movwf	((c:___wmul@multiplicand+1)),c
  2958  0013FE  6E04               	movlw	low(0Ah)
  2959  001400  0E0A               	movwf	((c:___wmul@multiplicand)),c
  2960  001402  6E03               	call	___wmul	;wreg free
  2961  001404  EC42  F010         	comf	(0+?___wmul),c
  2962  001408  1E01               	comf	(1+?___wmul),c
  2963  00140A  1E02               	infsnz	(0+?___wmul),c
  2964  00140C  4A01               	incf	(1+?___wmul),c
  2965  00140E  2A02               	movf	((c:_temporal2)),c,w
  2966  001410  504F               	addwf	(0+?___wmul),c,w
  2967  001412  2401               	movwf	((c:_diguni)),c
  2968  001414  6E53               	movf	((c:_temporal2+1)),c,w
  2969  001416  5050               	addwfc	(1+?___wmul),c,w
  2970  001418  2002               	movwf	1+((c:_diguni)),c
  2971  00141A  6E54               	line	55
  2972                           	
  2973                           l74:
  2974  00141C                     	return	;funcret
  2975  00141C  0012               	opt stack 0
  2976                           GLOBAL	__end_of_calculon
  2977                           	__end_of_calculon:
  2978  00141E                     	signat	_calculon,4217
  2979                           	global	___xxtofl
  2980                           
  2981 ;; *************** function ___xxtofl *****************
  2982 ;; Defined at:
  2983 ;;		line 10 in file "C:\Program Files (x86)\Microchip\xc8\v2.00\pic\sources\c99\common\xxtofl.c"
  2984 ;; Parameters:    Size  Location     Type
  2985 ;;  sign            1    wreg     unsigned char 
  2986 ;;  val             4    0[COMRAM] long 
  2987 ;; Auto vars:     Size  Location     Type
  2988 ;;  sign            1    8[COMRAM] unsigned char 
  2989 ;;  arg             4   10[COMRAM] unsigned long 
  2990 ;;  exp             1    9[COMRAM] unsigned char 
  2991 ;; Return value:  Size  Location     Type
  2992 ;;                  4    0[COMRAM] unsigned char 
  2993 ;; Registers used:
  2994 ;;		wreg, status,2, status,0
  2995 ;; Tracked objects:
  2996 ;;		On entry : 0/0
  2997 ;;		On exit  : 0/0
  2998 ;;		Unchanged: 0/0
  2999 ;; Data sizes:     COMRAM   BANK0   BANK1   BANK2   BANK3   BANK4   BANK5   BANK6   BANK7
  3000 ;;      Params:         4       0       0       0       0       0       0       0       0
  3001 ;;      Locals:         6       0       0       0       0       0       0       0       0
  3002 ;;      Temps:          4       0       0       0       0       0       0       0       0
  3003 ;;      Totals:        14       0       0       0       0       0       0       0       0
  3004 ;;Total ram usage:       14 bytes
  3005 ;; Hardware stack levels used:    1
  3006 ;; Hardware stack levels required when called:    1
  3007 ;; This function calls:
  3008 ;;		Nothing
  3009 ;; This function is called by:
  3010 ;;		_calculon
  3011 ;; This function uses a non-reentrant model
  3012 ;;
  3013                           psect	text4,class=CODE,space=0,reloc=2,group=1
  3014                           	file	"C:\Program Files (x86)\Microchip\xc8\v2.00\pic\sources\c99\common\xxtofl.c"
  3015                           	line	10
  3016                           global __ptext4
  3017                           __ptext4:
  3018  00141E                     psect	text4
  3019                           	file	"C:\Program Files (x86)\Microchip\xc8\v2.00\pic\sources\c99\common\xxtofl.c"
  3020                           	line	10
  3021                           	global	__size_of___xxtofl
  3022                           	__size_of___xxtofl	equ	__end_of___xxtofl-___xxtofl
  3023  0000                     	
  3024                           ___xxtofl:
  3025  00141E                     ;incstack = 0
  3026                           	opt	stack 28
  3027                           ;___xxtofl@sign stored from wreg
  3028                           	movwf	((c:___xxtofl@sign)),c
  3029  00141E  6E09               	line	15
  3030                           	
  3031                           l2244:
  3032  001420                     	movf	((c:___xxtofl@sign)),c,w
  3033  001420  5009               	btfsc	status,2
  3034  001422  B4D8               	goto	u1751
  3035  001424  EF16  F00A         	goto	u1750
  3036  001428  EF18  F00A         u1751:
  3037  00142C                     	goto	l866
  3038  00142C  EF3A  F00A         u1750:
  3039  001430                     	
  3040                           l2246:
  3041  001430                     	btfsc	((c:___xxtofl@val+3)),c,7
  3042  001430  BE04               	goto	u1760
  3043  001432  EF1F  F00A         	goto	u1761
  3044  001436  EF1D  F00A         
  3045                           u1761:
  3046  00143A                     	goto	l866
  3047  00143A  EF3A  F00A         u1760:
  3048  00143E                     	line	16
  3049                           	
  3050                           l2248:
  3051  00143E                     	movff	(c:___xxtofl@val),??___xxtofl+0+0
  3052  00143E  C001  F005         	movff	(c:___xxtofl@val+1),??___xxtofl+0+0+1
  3053  001442  C002  F006         	movff	(c:___xxtofl@val+2),??___xxtofl+0+0+2
  3054  001446  C003  F007         	movff	(c:___xxtofl@val+3),??___xxtofl+0+0+3
  3055  00144A  C004  F008         	comf	(??___xxtofl+0+0),c
  3056  00144E  1E05               	comf	(??___xxtofl+0+1),c
  3057  001450  1E06               	comf	(??___xxtofl+0+2),c
  3058  001452  1E07               	comf	(??___xxtofl+0+3),c
  3059  001454  1E08               	incf	(??___xxtofl+0+0),c
  3060  001456  2A05               	movlw	0
  3061  001458  0E00               	addwfc	(??___xxtofl+0+1),c
  3062  00145A  2206               	addwfc	(??___xxtofl+0+2),c
  3063  00145C  2207               	addwfc	(??___xxtofl+0+3),c
  3064  00145E  2208               	movff	??___xxtofl+0+0,(c:___xxtofl@arg)
  3065  001460  C005  F00B         	movff	??___xxtofl+0+1,(c:___xxtofl@arg+1)
  3066  001464  C006  F00C         	movff	??___xxtofl+0+2,(c:___xxtofl@arg+2)
  3067  001468  C007  F00D         	movff	??___xxtofl+0+3,(c:___xxtofl@arg+3)
  3068  00146C  C008  F00E         	line	17
  3069                           	goto	l2250
  3070  001470  EF44  F00A         	line	18
  3071                           	
  3072                           l866:
  3073  001474                     	line	19
  3074                           	movff	(c:___xxtofl@val),(c:___xxtofl@arg)
  3075  001474  C001  F00B         	movff	(c:___xxtofl@val+1),(c:___xxtofl@arg+1)
  3076  001478  C002  F00C         	movff	(c:___xxtofl@val+2),(c:___xxtofl@arg+2)
  3077  00147C  C003  F00D         	movff	(c:___xxtofl@val+3),(c:___xxtofl@arg+3)
  3078  001480  C004  F00E         	goto	l2250
  3079  001484  EF44  F00A         	line	20
  3080                           	
  3081                           l867:
  3082  001488                     	line	21
  3083                           	
  3084                           l2250:
  3085  001488                     	movf	((c:___xxtofl@val)),c,w
  3086  001488  5001               iorwf	((c:___xxtofl@val+1)),c,w
  3087  00148A  1002               iorwf	((c:___xxtofl@val+2)),c,w
  3088  00148C  1003               iorwf	((c:___xxtofl@val+3)),c,w
  3089  00148E  1004               	btfss	status,2
  3090  001490  A4D8               	goto	u1771
  3091  001492  EF4D  F00A         	goto	u1770
  3092  001496  EF4F  F00A         
  3093                           u1771:
  3094  00149A                     	goto	l2256
  3095  00149A  EF5B  F00A         u1770:
  3096  00149E                     	line	22
  3097                           	
  3098                           l2252:
  3099  00149E                     	movlw	low(normalize32(0x0))
  3100  00149E  0E00               	movwf	((c:?___xxtofl)),c
  3101  0014A0  6E01               	movlw	high(normalize32(0x0))
  3102  0014A2  0E00               	movwf	((c:?___xxtofl+1)),c
  3103  0014A4  6E02               	movlw	low highword(normalize32(0x0))
  3104  0014A6  0E00               	movwf	((c:?___xxtofl+2)),c
  3105  0014A8  6E03               	movlw	high highword(normalize32(0x0))
  3106  0014AA  0E00               	movwf	((c:?___xxtofl+3)),c
  3107  0014AC  6E04               	goto	l869
  3108  0014AE  EFFC  F00A         	
  3109                           l2254:
  3110  0014B2                     	goto	l869
  3111  0014B2  EFFC  F00A         	
  3112                           l868:
  3113  0014B6                     	line	23
  3114                           	
  3115                           l2256:
  3116  0014B6                     	movlw	low(096h)
  3117  0014B6  0E96               	movwf	((c:___xxtofl@exp)),c
  3118  0014B8  6E0A               	line	24
  3119                           	goto	l2260
  3120  0014BA  EF67  F00A         	
  3121                           l871:
  3122  0014BE                     	line	25
  3123                           	
  3124                           l2258:
  3125  0014BE                     	incf	((c:___xxtofl@exp)),c
  3126  0014BE  2A0A               	line	26
  3127                           	bcf	status,0
  3128  0014C0  90D8               	rrcf	((c:___xxtofl@arg+3)),c
  3129  0014C2  320E               	rrcf	((c:___xxtofl@arg+2)),c
  3130  0014C4  320D               	rrcf	((c:___xxtofl@arg+1)),c
  3131  0014C6  320C               	rrcf	((c:___xxtofl@arg)),c
  3132  0014C8  320B               	goto	l2260
  3133  0014CA  EF67  F00A         	line	27
  3134                           	
  3135                           l870:
  3136  0014CE                     	line	24
  3137                           	
  3138                           l2260:
  3139  0014CE                     	movlw	0
  3140  0014CE  0E00               	andwf	((c:___xxtofl@arg)),c,w
  3141  0014D0  140B               	movwf	(??___xxtofl+0+0)&0ffh,c
  3142  0014D2  6E05               	movlw	0
  3143  0014D4  0E00               	andwf	((c:___xxtofl@arg+1)),c,w
  3144  0014D6  140C               	movwf	1+(??___xxtofl+0+0)&0ffh,c
  3145  0014D8  6E06               	
  3146                           	movlw	0
  3147  0014DA  0E00               	andwf	((c:___xxtofl@arg+2)),c,w
  3148  0014DC  140D               	movwf	2+(??___xxtofl+0+0)&0ffh,c
  3149  0014DE  6E07               	
  3150                           	movlw	0FEh
  3151  0014E0  0EFE               	andwf	((c:___xxtofl@arg+3)),c,w
  3152  0014E2  140E               	movwf	3+(??___xxtofl+0+0)&0ffh,c
  3153  0014E4  6E08               	movf	(??___xxtofl+0+0),c,w
  3154  0014E6  5005               iorwf	(??___xxtofl+0+1),c,w
  3155  0014E8  1006               iorwf	(??___xxtofl+0+2),c,w
  3156  0014EA  1007               iorwf	(??___xxtofl+0+3),c,w
  3157  0014EC  1008               	btfss	status,2
  3158  0014EE  A4D8               	goto	u1781
  3159  0014F0  EF7C  F00A         	goto	u1780
  3160  0014F4  EF7E  F00A         
  3161                           u1781:
  3162  0014F8                     	goto	l2258
  3163  0014F8  EF5F  F00A         u1780:
  3164  0014FC                     	goto	l873
  3165  0014FC  EF8E  F00A         	
  3166                           l872:
  3167  001500                     	line	28
  3168                           	goto	l873
  3169  001500  EF8E  F00A         	
  3170                           l874:
  3171  001504                     	line	29
  3172                           	
  3173                           l2262:
  3174  001504                     	incf	((c:___xxtofl@exp)),c
  3175  001504  2A0A               	line	30
  3176                           	
  3177                           l2264:
  3178  001506                     	movlw	low(01h)
  3179  001506  0E01               	addwf	((c:___xxtofl@arg)),c
  3180  001508  260B               	movlw	0
  3181  00150A  0E00               	addwfc	((c:___xxtofl@arg+1)),c
  3182  00150C  220C               	addwfc	((c:___xxtofl@arg+2)),c
  3183  00150E  220D               	addwfc	((c:___xxtofl@arg+3)),c
  3184  001510  220E               	line	31
  3185                           	
  3186                           l2266:
  3187  001512                     	bcf	status,0
  3188  001512  90D8               	rrcf	((c:___xxtofl@arg+3)),c
  3189  001514  320E               	rrcf	((c:___xxtofl@arg+2)),c
  3190  001516  320D               	rrcf	((c:___xxtofl@arg+1)),c
  3191  001518  320C               	rrcf	((c:___xxtofl@arg)),c
  3192  00151A  320B               	line	32
  3193                           	
  3194                           l873:
  3195  00151C                     	line	28
  3196                           	movlw	0
  3197  00151C  0E00               	andwf	((c:___xxtofl@arg)),c,w
  3198  00151E  140B               	movwf	(??___xxtofl+0+0)&0ffh,c
  3199  001520  6E05               	movlw	0
  3200  001522  0E00               	andwf	((c:___xxtofl@arg+1)),c,w
  3201  001524  140C               	movwf	1+(??___xxtofl+0+0)&0ffh,c
  3202  001526  6E06               	
  3203                           	movlw	0
  3204  001528  0E00               	andwf	((c:___xxtofl@arg+2)),c,w
  3205  00152A  140D               	movwf	2+(??___xxtofl+0+0)&0ffh,c
  3206  00152C  6E07               	
  3207                           	movlw	0FFh
  3208  00152E  0EFF               	andwf	((c:___xxtofl@arg+3)),c,w
  3209  001530  140E               	movwf	3+(??___xxtofl+0+0)&0ffh,c
  3210  001532  6E08               	movf	(??___xxtofl+0+0),c,w
  3211  001534  5005               iorwf	(??___xxtofl+0+1),c,w
  3212  001536  1006               iorwf	(??___xxtofl+0+2),c,w
  3213  001538  1007               iorwf	(??___xxtofl+0+3),c,w
  3214  00153A  1008               	btfss	status,2
  3215  00153C  A4D8               	goto	u1791
  3216  00153E  EFA3  F00A         	goto	u1790
  3217  001542  EFA5  F00A         
  3218                           u1791:
  3219  001546                     	goto	l2262
  3220  001546  EF82  F00A         u1790:
  3221  00154A                     	goto	l2270
  3222  00154A  EFB1  F00A         	
  3223                           l875:
  3224  00154E                     	line	33
  3225                           	goto	l2270
  3226  00154E  EFB1  F00A         	
  3227                           l877:
  3228  001552                     	line	34
  3229                           	
  3230                           l2268:
  3231  001552                     	decf	((c:___xxtofl@exp)),c
  3232  001552  060A               	line	35
  3233                           	bcf	status,0
  3234  001554  90D8               	rlcf	((c:___xxtofl@arg)),c
  3235  001556  360B               	rlcf	((c:___xxtofl@arg+1)),c
  3236  001558  360C               	rlcf	((c:___xxtofl@arg+2)),c
  3237  00155A  360D               	rlcf	((c:___xxtofl@arg+3)),c
  3238  00155C  360E               	goto	l2270
  3239  00155E  EFB1  F00A         	line	36
  3240                           	
  3241                           l876:
  3242  001562                     	line	33
  3243                           	
  3244                           l2270:
  3245  001562                     	
  3246                           	btfsc	((c:___xxtofl@arg+2)),c,(23)&7
  3247  001562  BE0D               	goto	u1801
  3248  001564  EFB6  F00A         	goto	u1800
  3249  001568  EFB8  F00A         u1801:
  3250  00156C                     	goto	l880
  3251  00156C  EFC2  F00A         u1800:
  3252  001570                     	
  3253                           l2272:
  3254  001570                     		movlw	02h-0
  3255  001570  0E02               	cpfslt	((c:___xxtofl@exp)),c
  3256  001572  600A               	goto	u1811
  3257  001574  EFBE  F00A         	goto	u1810
  3258  001578  EFC0  F00A         
  3259                           u1811:
  3260  00157C                     	goto	l2268
  3261  00157C  EFA9  F00A         u1810:
  3262  001580                     	goto	l880
  3263  001580  EFC2  F00A         	
  3264                           l879:
  3265  001584                     	
  3266                           l880:
  3267  001584                     	line	37
  3268                           	
  3269                           	btfsc	((c:___xxtofl@exp)),c,(0)&7
  3270  001584  B00A               	goto	u1821
  3271  001586  EFC7  F00A         	goto	u1820
  3272  00158A  EFC9  F00A         u1821:
  3273  00158E                     	goto	l2276
  3274  00158E  EFCC  F00A         u1820:
  3275  001592                     	line	38
  3276                           	
  3277                           l2274:
  3278  001592                     	bcf	(0+(23/8)+(c:___xxtofl@arg)),c,(23)&7
  3279  001592  9E0D               	goto	l2276
  3280  001594  EFCC  F00A         	
  3281                           l881:
  3282  001598                     	line	39
  3283                           	
  3284                           l2276:
  3285  001598                     	bcf status,0
  3286  001598  90D8               	rrcf	((c:___xxtofl@exp)),c
  3287  00159A  320A               
  3288                           	line	40
  3289                           	
  3290                           l2278:
  3291  00159C                     	movff	(c:___xxtofl@exp),??___xxtofl+0+0
  3292  00159C  C00A  F005         	clrf	(??___xxtofl+0+0+1)&0ffh,c
  3293  0015A0  6A06               	clrf	(??___xxtofl+0+0+2)&0ffh,c
  3294  0015A2  6A07               	clrf	(??___xxtofl+0+0+3)&0ffh,c
  3295  0015A4  6A08               	movff	??___xxtofl+0+0,??___xxtofl+0+3
  3296  0015A6  C005  F008         	clrf	(??___xxtofl+0+2),c
  3297  0015AA  6A07               	clrf	(??___xxtofl+0+1),c
  3298  0015AC  6A06               	clrf	(??___xxtofl+0+0),c
  3299  0015AE  6A05               	movf	(??___xxtofl+0+0),c,w
  3300  0015B0  5005               	iorwf	((c:___xxtofl@arg)),c
  3301  0015B2  120B               	movf	(??___xxtofl+0+1),c,w
  3302  0015B4  5006               	iorwf	((c:___xxtofl@arg+1)),c
  3303  0015B6  120C               	movf	(??___xxtofl+0+2),c,w
  3304  0015B8  5007               	iorwf	((c:___xxtofl@arg+2)),c
  3305  0015BA  120D               	movf	(??___xxtofl+0+3),c,w
  3306  0015BC  5008               	iorwf	((c:___xxtofl@arg+3)),c
  3307  0015BE  120E               
  3308                           	line	41
  3309                           	
  3310                           l2280:
  3311  0015C0                     	movf	((c:___xxtofl@sign)),c,w
  3312  0015C0  5009               	btfsc	status,2
  3313  0015C2  B4D8               	goto	u1831
  3314  0015C4  EFE6  F00A         	goto	u1830
  3315  0015C8  EFE8  F00A         u1831:
  3316  0015CC                     	goto	l2286
  3317  0015CC  EFF2  F00A         u1830:
  3318  0015D0                     	
  3319                           l2282:
  3320  0015D0                     	btfsc	((c:___xxtofl@val+3)),c,7
  3321  0015D0  BE04               	goto	u1840
  3322  0015D2  EFEF  F00A         	goto	u1841
  3323  0015D6  EFED  F00A         
  3324                           u1841:
  3325  0015DA                     	goto	l2286
  3326  0015DA  EFF2  F00A         u1840:
  3327  0015DE                     	line	42
  3328                           	
  3329                           l2284:
  3330  0015DE                     	bsf	(0+(31/8)+(c:___xxtofl@arg)),c,(31)&7
  3331  0015DE  8E0E               	goto	l2286
  3332  0015E0  EFF2  F00A         	
  3333                           l882:
  3334  0015E4                     	line	43
  3335                           	
  3336                           l2286:
  3337  0015E4                     	movff	(c:___xxtofl@arg),(c:?___xxtofl)
  3338  0015E4  C00B  F001         	movff	(c:___xxtofl@arg+1),(c:?___xxtofl+1)
  3339  0015E8  C00C  F002         	movff	(c:___xxtofl@arg+2),(c:?___xxtofl+2)
  3340  0015EC  C00D  F003         	movff	(c:___xxtofl@arg+3),(c:?___xxtofl+3)
  3341  0015F0  C00E  F004         	goto	l869
  3342  0015F4  EFFC  F00A         	
  3343                           l2288:
  3344  0015F8                     	line	44
  3345                           	
  3346                           l869:
  3347  0015F8                     	return	;funcret
  3348  0015F8  0012               	opt stack 0
  3349                           GLOBAL	__end_of___xxtofl
  3350                           	__end_of___xxtofl:
  3351  0015FA                     	signat	___xxtofl,8316
  3352                           	global	___wmul
  3353                           
  3354 ;; *************** function ___wmul *****************
  3355 ;; Defined at:
  3356 ;;		line 15 in file "C:\Program Files (x86)\Microchip\xc8\v2.00\pic\sources\c99\common\Umul16.c"
  3357 ;; Parameters:    Size  Location     Type
  3358 ;;  multiplier      2    0[COMRAM] unsigned int 
  3359 ;;  multiplicand    2    2[COMRAM] unsigned int 
  3360 ;; Auto vars:     Size  Location     Type
  3361 ;;  product         2    4[COMRAM] unsigned int 
  3362 ;; Return value:  Size  Location     Type
  3363 ;;                  2    0[COMRAM] unsigned int 
  3364 ;; Registers used:
  3365 ;;		wreg, status,2, status,0, prodl, prodh
  3366 ;; Tracked objects:
  3367 ;;		On entry : 0/0
  3368 ;;		On exit  : 0/0
  3369 ;;		Unchanged: 0/0
  3370 ;; Data sizes:     COMRAM   BANK0   BANK1   BANK2   BANK3   BANK4   BANK5   BANK6   BANK7
  3371 ;;      Params:         4       0       0       0       0       0       0       0       0
  3372 ;;      Locals:         2       0       0       0       0       0       0       0       0
  3373 ;;      Temps:          0       0       0       0       0       0       0       0       0
  3374 ;;      Totals:         6       0       0       0       0       0       0       0       0
  3375 ;;Total ram usage:        6 bytes
  3376 ;; Hardware stack levels used:    1
  3377 ;; Hardware stack levels required when called:    1
  3378 ;; This function calls:
  3379 ;;		Nothing
  3380 ;; This function is called by:
  3381 ;;		_conviertemon
  3382 ;;		_calculon
  3383 ;;		_calculon2
  3384 ;; This function uses a non-reentrant model
  3385 ;;
  3386                           psect	text5,class=CODE,space=0,reloc=2,group=1
  3387                           	file	"C:\Program Files (x86)\Microchip\xc8\v2.00\pic\sources\c99\common\Umul16.c"
  3388                           	line	15
  3389                           global __ptext5
  3390                           __ptext5:
  3391  002084                     psect	text5
  3392                           	file	"C:\Program Files (x86)\Microchip\xc8\v2.00\pic\sources\c99\common\Umul16.c"
  3393                           	line	15
  3394                           	global	__size_of___wmul
  3395                           	__size_of___wmul	equ	__end_of___wmul-___wmul
  3396  0000                     	
  3397                           ___wmul:
  3398  002084                     ;incstack = 0
  3399                           	opt	stack 28
  3400                           	line	37
  3401                           	
  3402                           l1788:
  3403  002084                     	movf	((c:___wmul@multiplier)),c,w
  3404  002084  5001               	mulwf	((c:___wmul@multiplicand)),c
  3405  002086  0203               	movff	prodl,(c:___wmul@product)
  3406  002088  CFF3 F005          	movff	prodh,(c:___wmul@product+1)
  3407  00208C  CFF4 F006          	line	38
  3408                           	movf	((c:___wmul@multiplier)),c,w
  3409  002090  5001               	mulwf	(0+((c:___wmul@multiplicand)+01h)),c
  3410  002092  0204               	movf	(prodl),c,w
  3411  002094  50F3               	addwf	((c:___wmul@product+1)),c
  3412  002096  2606               
  3413                           	line	39
  3414                           	movf	(0+((c:___wmul@multiplier)+01h)),c,w
  3415  002098  5002               	mulwf	((c:___wmul@multiplicand)),c
  3416  00209A  0203               	movf	(prodl),c,w
  3417  00209C  50F3               	addwf	((c:___wmul@product+1)),c
  3418  00209E  2606               
  3419                           	line	52
  3420                           	
  3421                           l1790:
  3422  0020A0                     	movff	(c:___wmul@product),(c:?___wmul)
  3423  0020A0  C005  F001         	movff	(c:___wmul@product+1),(c:?___wmul+1)
  3424  0020A4  C006  F002         	goto	l211
  3425  0020A8  EF56  F010         	
  3426                           l1792:
  3427  0020AC                     	line	53
  3428                           	
  3429                           l211:
  3430  0020AC                     	return	;funcret
  3431  0020AC  0012               	opt stack 0
  3432                           GLOBAL	__end_of___wmul
  3433                           	__end_of___wmul:
  3434  0020AE                     	signat	___wmul,8314
  3435                           	global	___lwdiv
  3436                           
  3437 ;; *************** function ___lwdiv *****************
  3438 ;; Defined at:
  3439 ;;		line 7 in file "C:\Program Files (x86)\Microchip\xc8\v2.00\pic\sources\c99\common\lwdiv.c"
  3440 ;; Parameters:    Size  Location     Type
  3441 ;;  dividend        2    0[COMRAM] unsigned int 
  3442 ;;  divisor         2    2[COMRAM] unsigned int 
  3443 ;; Auto vars:     Size  Location     Type
  3444 ;;  quotient        2    4[COMRAM] unsigned int 
  3445 ;;  counter         1    6[COMRAM] unsigned char 
  3446 ;; Return value:  Size  Location     Type
  3447 ;;                  2    0[COMRAM] unsigned int 
  3448 ;; Registers used:
  3449 ;;		wreg, status,2, status,0
  3450 ;; Tracked objects:
  3451 ;;		On entry : 0/0
  3452 ;;		On exit  : 0/0
  3453 ;;		Unchanged: 0/0
  3454 ;; Data sizes:     COMRAM   BANK0   BANK1   BANK2   BANK3   BANK4   BANK5   BANK6   BANK7
  3455 ;;      Params:         4       0       0       0       0       0       0       0       0
  3456 ;;      Locals:         3       0       0       0       0       0       0       0       0
  3457 ;;      Temps:          0       0       0       0       0       0       0       0       0
  3458 ;;      Totals:         7       0       0       0       0       0       0       0       0
  3459 ;;Total ram usage:        7 bytes
  3460 ;; Hardware stack levels used:    1
  3461 ;; Hardware stack levels required when called:    1
  3462 ;; This function calls:
  3463 ;;		Nothing
  3464 ;; This function is called by:
  3465 ;;		_calculon
  3466 ;;		_calculon2
  3467 ;; This function uses a non-reentrant model
  3468 ;;
  3469                           psect	text6,class=CODE,space=0,reloc=2,group=1
  3470                           	file	"C:\Program Files (x86)\Microchip\xc8\v2.00\pic\sources\c99\common\lwdiv.c"
  3471                           	line	7
  3472                           global __ptext6
  3473                           __ptext6:
  3474  001D2C                     psect	text6
  3475                           	file	"C:\Program Files (x86)\Microchip\xc8\v2.00\pic\sources\c99\common\lwdiv.c"
  3476                           	line	7
  3477                           	global	__size_of___lwdiv
  3478                           	__size_of___lwdiv	equ	__end_of___lwdiv-___lwdiv
  3479  0000                     	
  3480                           ___lwdiv:
  3481  001D2C                     ;incstack = 0
  3482                           	opt	stack 28
  3483                           	line	13
  3484                           	
  3485                           l2222:
  3486  001D2C                     	movlw	high(0)
  3487  001D2C  0E00               	movwf	((c:___lwdiv@quotient+1)),c
  3488  001D2E  6E06               	movlw	low(0)
  3489  001D30  0E00               	movwf	((c:___lwdiv@quotient)),c
  3490  001D32  6E05               	line	14
  3491                           	
  3492                           l2224:
  3493  001D34                     	movf	((c:___lwdiv@divisor)),c,w
  3494  001D34  5003               iorwf	((c:___lwdiv@divisor+1)),c,w
  3495  001D36  1004               	btfsc	status,2
  3496  001D38  B4D8               	goto	u1721
  3497  001D3A  EFA1  F00E         	goto	u1720
  3498  001D3E  EFA3  F00E         
  3499                           u1721:
  3500  001D42                     	goto	l702
  3501  001D42  EFD5  F00E         u1720:
  3502  001D46                     	line	15
  3503                           	
  3504                           l2226:
  3505  001D46                     	movlw	low(01h)
  3506  001D46  0E01               	movwf	((c:___lwdiv@counter)),c
  3507  001D48  6E07               	line	16
  3508                           	goto	l2230
  3509  001D4A  EFAD  F00E         	
  3510                           l704:
  3511  001D4E                     	line	17
  3512                           	
  3513                           l2228:
  3514  001D4E                     	bcf	status,0
  3515  001D4E  90D8               	rlcf	((c:___lwdiv@divisor)),c
  3516  001D50  3603               	rlcf	((c:___lwdiv@divisor+1)),c
  3517  001D52  3604               	line	18
  3518                           	incf	((c:___lwdiv@counter)),c
  3519  001D54  2A07               	goto	l2230
  3520  001D56  EFAD  F00E         	line	19
  3521                           	
  3522                           l703:
  3523  001D5A                     	line	16
  3524                           	
  3525                           l2230:
  3526  001D5A                     	
  3527                           	btfss	((c:___lwdiv@divisor+1)),c,(15)&7
  3528  001D5A  AE04               	goto	u1731
  3529  001D5C  EFB2  F00E         	goto	u1730
  3530  001D60  EFB4  F00E         u1731:
  3531  001D64                     	goto	l2228
  3532  001D64  EFA7  F00E         u1730:
  3533  001D68                     	goto	l2232
  3534  001D68  EFB8  F00E         	
  3535                           l705:
  3536  001D6C                     	goto	l2232
  3537  001D6C  EFB8  F00E         	line	20
  3538                           	
  3539                           l706:
  3540  001D70                     	line	21
  3541                           	
  3542                           l2232:
  3543  001D70                     	bcf	status,0
  3544  001D70  90D8               	rlcf	((c:___lwdiv@quotient)),c
  3545  001D72  3605               	rlcf	((c:___lwdiv@quotient+1)),c
  3546  001D74  3606               	line	22
  3547                           	
  3548                           l2234:
  3549  001D76                     		movf	((c:___lwdiv@divisor)),c,w
  3550  001D76  5003               	subwf	((c:___lwdiv@dividend)),c,w
  3551  001D78  5C01               	movf	((c:___lwdiv@divisor+1)),c,w
  3552  001D7A  5004               	subwfb	((c:___lwdiv@dividend+1)),c,w
  3553  001D7C  5802               	btfss	status,0
  3554  001D7E  A0D8               	goto	u1741
  3555  001D80  EFC4  F00E         	goto	u1740
  3556  001D84  EFC6  F00E         
  3557                           u1741:
  3558  001D88                     	goto	l2240
  3559  001D88  EFCD  F00E         u1740:
  3560  001D8C                     	line	23
  3561                           	
  3562                           l2236:
  3563  001D8C                     	movf	((c:___lwdiv@divisor)),c,w
  3564  001D8C  5003               	subwf	((c:___lwdiv@dividend)),c
  3565  001D8E  5E01               	movf	((c:___lwdiv@divisor+1)),c,w
  3566  001D90  5004               	subwfb	((c:___lwdiv@dividend+1)),c
  3567  001D92  5A02               
  3568                           	line	24
  3569                           	
  3570                           l2238:
  3571  001D94                     	bsf	(0+(0/8)+(c:___lwdiv@quotient)),c,(0)&7
  3572  001D94  8005               	goto	l2240
  3573  001D96  EFCD  F00E         	line	25
  3574                           	
  3575                           l707:
  3576  001D9A                     	line	26
  3577                           	
  3578                           l2240:
  3579  001D9A                     	bcf	status,0
  3580  001D9A  90D8               	rrcf	((c:___lwdiv@divisor+1)),c
  3581  001D9C  3204               	rrcf	((c:___lwdiv@divisor)),c
  3582  001D9E  3203               	line	27
  3583                           	
  3584                           l2242:
  3585  001DA0                     	decfsz	((c:___lwdiv@counter)),c
  3586  001DA0  2E07               	
  3587                           	goto	l2232
  3588  001DA2  EFB8  F00E         	goto	l702
  3589  001DA6  EFD5  F00E         	
  3590                           l708:
  3591  001DAA                     	line	28
  3592                           	
  3593                           l702:
  3594  001DAA                     	line	29
  3595                           	movff	(c:___lwdiv@quotient),(c:?___lwdiv)
  3596  001DAA  C005  F001         	movff	(c:___lwdiv@quotient+1),(c:?___lwdiv+1)
  3597  001DAE  C006  F002         	line	30
  3598                           	
  3599                           l709:
  3600  001DB2                     	return	;funcret
  3601  001DB2  0012               	opt stack 0
  3602                           GLOBAL	__end_of___lwdiv
  3603                           	__end_of___lwdiv:
  3604  001DB4                     	signat	___lwdiv,8314
  3605                           	global	___fltol
  3606                           
  3607 ;; *************** function ___fltol *****************
  3608 ;; Defined at:
  3609 ;;		line 43 in file "C:\Program Files (x86)\Microchip\xc8\v2.00\pic\sources\c99\common\fltol.c"
  3610 ;; Parameters:    Size  Location     Type
  3611 ;;  f1              4    0[COMRAM] unsigned int 
  3612 ;; Auto vars:     Size  Location     Type
  3613 ;;  exp1            1    9[COMRAM] unsigned char 
  3614 ;;  sign1           1    8[COMRAM] unsigned char 
  3615 ;; Return value:  Size  Location     Type
  3616 ;;                  4    0[COMRAM] long 
  3617 ;; Registers used:
  3618 ;;		wreg, status,2, status,0
  3619 ;; Tracked objects:
  3620 ;;		On entry : 0/0
  3621 ;;		On exit  : 0/0
  3622 ;;		Unchanged: 0/0
  3623 ;; Data sizes:     COMRAM   BANK0   BANK1   BANK2   BANK3   BANK4   BANK5   BANK6   BANK7
  3624 ;;      Params:         4       0       0       0       0       0       0       0       0
  3625 ;;      Locals:         2       0       0       0       0       0       0       0       0
  3626 ;;      Temps:          4       0       0       0       0       0       0       0       0
  3627 ;;      Totals:        10       0       0       0       0       0       0       0       0
  3628 ;;Total ram usage:       10 bytes
  3629 ;; Hardware stack levels used:    1
  3630 ;; Hardware stack levels required when called:    1
  3631 ;; This function calls:
  3632 ;;		Nothing
  3633 ;; This function is called by:
  3634 ;;		_calculon
  3635 ;; This function uses a non-reentrant model
  3636 ;;
  3637                           psect	text7,class=CODE,space=0,reloc=2,group=1
  3638                           	file	"C:\Program Files (x86)\Microchip\xc8\v2.00\pic\sources\c99\common\fltol.c"
  3639                           	line	43
  3640                           global __ptext7
  3641                           __ptext7:
  3642  0018CA                     psect	text7
  3643                           	file	"C:\Program Files (x86)\Microchip\xc8\v2.00\pic\sources\c99\common\fltol.c"
  3644                           	line	43
  3645                           	global	__size_of___fltol
  3646                           	__size_of___fltol	equ	__end_of___fltol-___fltol
  3647  0000                     	
  3648                           ___fltol:
  3649  0018CA                     ;incstack = 0
  3650                           	opt	stack 28
  3651                           	line	47
  3652                           	
  3653                           l2178:
  3654  0018CA                     	rlcf	((c:___fltol@f1+2)),c,w
  3655  0018CA  3403               	rlcf	((c:___fltol@f1+3)),c,w
  3656  0018CC  3404               	movwf	((c:___fltol@exp1)),c
  3657  0018CE  6E0A               	movf	((c:___fltol@exp1)),c,w
  3658  0018D0  500A               	btfss	status,2
  3659  0018D2  A4D8               	goto	u1651
  3660  0018D4  EF6E  F00C         	goto	u1650
  3661  0018D8  EF70  F00C         u1651:
  3662  0018DC                     	goto	l2184
  3663  0018DC  EF7C  F00C         u1650:
  3664  0018E0                     	line	48
  3665                           	
  3666                           l2180:
  3667  0018E0                     	movlw	low(0)
  3668  0018E0  0E00               	movwf	((c:?___fltol)),c
  3669  0018E2  6E01               	movlw	high(0)
  3670  0018E4  0E00               	movwf	((c:?___fltol+1)),c
  3671  0018E6  6E02               	movlw	low highword(0)
  3672  0018E8  0E00               	movwf	((c:?___fltol+2)),c
  3673  0018EA  6E03               	movlw	high highword(0)
  3674  0018EC  0E00               	movwf	((c:?___fltol+3)),c
  3675  0018EE  6E04               	goto	l508
  3676  0018F0  EF0D  F00D         	
  3677                           l2182:
  3678  0018F4                     	goto	l508
  3679  0018F4  EF0D  F00D         	
  3680                           l507:
  3681  0018F8                     	line	49
  3682                           	
  3683                           l2184:
  3684  0018F8                     	movff	(c:___fltol@f1),??___fltol+0+0
  3685  0018F8  C001  F005         	movff	(c:___fltol@f1+1),??___fltol+0+0+1
  3686  0018FC  C002  F006         	movff	(c:___fltol@f1+2),??___fltol+0+0+2
  3687  001900  C003  F007         	movff	(c:___fltol@f1+3),??___fltol+0+0+3
  3688  001904  C004  F008         	movlw	01Fh+1
  3689  001908  0E20               	goto	u1660
  3690  00190A  EF8C  F00C         u1665:
  3691  00190E                     	bcf	status,0
  3692  00190E  90D8               	rrcf	(??___fltol+0+3),c
  3693  001910  3208               	rrcf	(??___fltol+0+2),c
  3694  001912  3207               	rrcf	(??___fltol+0+1),c
  3695  001914  3206               	rrcf	(??___fltol+0+0),c
  3696  001916  3205               u1660:
  3697  001918                     	decfsz	wreg
  3698  001918  2EE8               	goto	u1665
  3699  00191A  EF87  F00C         	movf	(??___fltol+0+0),c,w
  3700  00191E  5005               	movwf	((c:___fltol@sign1)),c
  3701  001920  6E09               	line	50
  3702                           	
  3703                           l2186:
  3704  001922                     	bsf	(0+(23/8)+(c:___fltol@f1)),c,(23)&7
  3705  001922  8E03               	line	51
  3706                           	
  3707                           l2188:
  3708  001924                     	movlw	0FFh
  3709  001924  0EFF               	andwf	((c:___fltol@f1)),c
  3710  001926  1601               	movlw	0FFh
  3711  001928  0EFF               	andwf	((c:___fltol@f1+1)),c
  3712  00192A  1602               	movlw	0FFh
  3713  00192C  0EFF               	andwf	((c:___fltol@f1+2)),c
  3714  00192E  1603               	movlw	0
  3715  001930  0E00               	andwf	((c:___fltol@f1+3)),c
  3716  001932  1604               	line	52
  3717                           	
  3718                           l2190:
  3719  001934                     	movlw	(096h)&0ffh
  3720  001934  0E96               	subwf	((c:___fltol@exp1)),c
  3721  001936  5E0A               	line	53
  3722                           	
  3723                           l2192:
  3724  001938                     	btfsc	((c:___fltol@exp1)),c,7
  3725  001938  BE0A               	goto	u1670
  3726  00193A  EFA3  F00C         	goto	u1671
  3727  00193E  EFA1  F00C         
  3728                           u1671:
  3729  001942                     	goto	l2204
  3730  001942  EFC7  F00C         u1670:
  3731  001946                     	line	54
  3732                           	
  3733                           l2194:
  3734  001946                     		movf	((c:___fltol@exp1)),c,w
  3735  001946  500A               	xorlw	80h
  3736  001948  0A80               	addlw	-(80h^-23)
  3737  00194A  0F97               	btfsc	status,0
  3738  00194C  B0D8               	goto	u1681
  3739  00194E  EFAB  F00C         	goto	u1680
  3740  001952  EFAD  F00C         
  3741                           u1681:
  3742  001956                     	goto	l2200
  3743  001956  EFBB  F00C         u1680:
  3744  00195A                     	line	55
  3745                           	
  3746                           l2196:
  3747  00195A                     	movlw	low(0)
  3748  00195A  0E00               	movwf	((c:?___fltol)),c
  3749  00195C  6E01               	movlw	high(0)
  3750  00195E  0E00               	movwf	((c:?___fltol+1)),c
  3751  001960  6E02               	movlw	low highword(0)
  3752  001962  0E00               	movwf	((c:?___fltol+2)),c
  3753  001964  6E03               	movlw	high highword(0)
  3754  001966  0E00               	movwf	((c:?___fltol+3)),c
  3755  001968  6E04               	goto	l508
  3756  00196A  EF0D  F00D         	
  3757                           l2198:
  3758  00196E                     	goto	l508
  3759  00196E  EF0D  F00D         	
  3760                           l510:
  3761  001972                     	goto	l2200
  3762  001972  EFBB  F00C         	line	56
  3763                           	
  3764                           l511:
  3765  001976                     	line	57
  3766                           	
  3767                           l2200:
  3768  001976                     	bcf	status,0
  3769  001976  90D8               	rrcf	((c:___fltol@f1+3)),c
  3770  001978  3204               	rrcf	((c:___fltol@f1+2)),c
  3771  00197A  3203               	rrcf	((c:___fltol@f1+1)),c
  3772  00197C  3202               	rrcf	((c:___fltol@f1)),c
  3773  00197E  3201               	
  3774                           l2202:
  3775  001980                     	incfsz	((c:___fltol@exp1)),c
  3776  001980  3E0A               	
  3777                           	goto	l2200
  3778  001982  EFBB  F00C         	goto	l2214
  3779  001986  EFF1  F00C         	
  3780                           l512:
  3781  00198A                     	line	59
  3782                           	goto	l2214
  3783  00198A  EFF1  F00C         	
  3784                           l509:
  3785  00198E                     	line	60
  3786                           	
  3787                           l2204:
  3788  00198E                     		movlw	020h-1
  3789  00198E  0E1F               	cpfsgt	((c:___fltol@exp1)),c
  3790  001990  640A               	goto	u1691
  3791  001992  EFCD  F00C         	goto	u1690
  3792  001996  EFCF  F00C         
  3793                           u1691:
  3794  00199A                     	goto	l2212
  3795  00199A  EFE5  F00C         u1690:
  3796  00199E                     	line	61
  3797                           	
  3798                           l2206:
  3799  00199E                     	movlw	low(0)
  3800  00199E  0E00               	movwf	((c:?___fltol)),c
  3801  0019A0  6E01               	movlw	high(0)
  3802  0019A2  0E00               	movwf	((c:?___fltol+1)),c
  3803  0019A4  6E02               	movlw	low highword(0)
  3804  0019A6  0E00               	movwf	((c:?___fltol+2)),c
  3805  0019A8  6E03               	movlw	high highword(0)
  3806  0019AA  0E00               	movwf	((c:?___fltol+3)),c
  3807  0019AC  6E04               	goto	l508
  3808  0019AE  EF0D  F00D         	
  3809                           l2208:
  3810  0019B2                     	goto	l508
  3811  0019B2  EF0D  F00D         	
  3812                           l514:
  3813  0019B6                     	line	62
  3814                           	goto	l2212
  3815  0019B6  EFE5  F00C         	
  3816                           l516:
  3817  0019BA                     	line	63
  3818                           	
  3819                           l2210:
  3820  0019BA                     	bcf	status,0
  3821  0019BA  90D8               	rlcf	((c:___fltol@f1)),c
  3822  0019BC  3601               	rlcf	((c:___fltol@f1+1)),c
  3823  0019BE  3602               	rlcf	((c:___fltol@f1+2)),c
  3824  0019C0  3603               	rlcf	((c:___fltol@f1+3)),c
  3825  0019C2  3604               	line	64
  3826                           	decf	((c:___fltol@exp1)),c
  3827  0019C4  060A               	goto	l2212
  3828  0019C6  EFE5  F00C         	line	65
  3829                           	
  3830                           l515:
  3831  0019CA                     	line	62
  3832                           	
  3833                           l2212:
  3834  0019CA                     	movf	((c:___fltol@exp1)),c,w
  3835  0019CA  500A               	btfss	status,2
  3836  0019CC  A4D8               	goto	u1701
  3837  0019CE  EFEB  F00C         	goto	u1700
  3838  0019D2  EFED  F00C         u1701:
  3839  0019D6                     	goto	l2210
  3840  0019D6  EFDD  F00C         u1700:
  3841  0019DA                     	goto	l2214
  3842  0019DA  EFF1  F00C         	
  3843                           l517:
  3844  0019DE                     	goto	l2214
  3845  0019DE  EFF1  F00C         	line	66
  3846                           	
  3847                           l513:
  3848  0019E2                     	line	67
  3849                           	
  3850                           l2214:
  3851  0019E2                     	movf	((c:___fltol@sign1)),c,w
  3852  0019E2  5009               	btfsc	status,2
  3853  0019E4  B4D8               	goto	u1711
  3854  0019E6  EFF7  F00C         	goto	u1710
  3855  0019EA  EFF9  F00C         u1711:
  3856  0019EE                     	goto	l2218
  3857  0019EE  EF03  F00D         u1710:
  3858  0019F2                     	line	68
  3859                           	
  3860                           l2216:
  3861  0019F2                     	comf	((c:___fltol@f1+3)),c
  3862  0019F2  1E04               	comf	((c:___fltol@f1+2)),c
  3863  0019F4  1E03               	comf	((c:___fltol@f1+1)),c
  3864  0019F6  1E02               	negf	((c:___fltol@f1)),c
  3865  0019F8  6C01               	movlw	0
  3866  0019FA  0E00               	addwfc	((c:___fltol@f1+1)),c
  3867  0019FC  2202               	addwfc	((c:___fltol@f1+2)),c
  3868  0019FE  2203               	addwfc	((c:___fltol@f1+3)),c
  3869  001A00  2204               	goto	l2218
  3870  001A02  EF03  F00D         	
  3871                           l518:
  3872  001A06                     	line	69
  3873                           	
  3874                           l2218:
  3875  001A06                     	movff	(c:___fltol@f1),(c:?___fltol)
  3876  001A06  C001  F001         	movff	(c:___fltol@f1+1),(c:?___fltol+1)
  3877  001A0A  C002  F002         	movff	(c:___fltol@f1+2),(c:?___fltol+2)
  3878  001A0E  C003  F003         	movff	(c:___fltol@f1+3),(c:?___fltol+3)
  3879  001A12  C004  F004         	goto	l508
  3880  001A16  EF0D  F00D         	
  3881                           l2220:
  3882  001A1A                     	line	70
  3883                           	
  3884                           l508:
  3885  001A1A                     	return	;funcret
  3886  001A1A  0012               	opt stack 0
  3887                           GLOBAL	__end_of___fltol
  3888                           	__end_of___fltol:
  3889  001A1C                     	signat	___fltol,4220
  3890                           	global	___flneg
  3891                           
  3892 ;; *************** function ___flneg *****************
  3893 ;; Defined at:
  3894 ;;		line 15 in file "C:\Program Files (x86)\Microchip\xc8\v2.00\pic\sources\c99\common\flneg.c"
  3895 ;; Parameters:    Size  Location     Type
  3896 ;;  f1              4   39[COMRAM] long 
  3897 ;; Auto vars:     Size  Location     Type
  3898 ;;		None
  3899 ;; Return value:  Size  Location     Type
  3900 ;;                  4   39[COMRAM] long 
  3901 ;; Registers used:
  3902 ;;		wreg, status,2, status,0
  3903 ;; Tracked objects:
  3904 ;;		On entry : 0/0
  3905 ;;		On exit  : 0/0
  3906 ;;		Unchanged: 0/0
  3907 ;; Data sizes:     COMRAM   BANK0   BANK1   BANK2   BANK3   BANK4   BANK5   BANK6   BANK7
  3908 ;;      Params:         4       0       0       0       0       0       0       0       0
  3909 ;;      Locals:         0       0       0       0       0       0       0       0       0
  3910 ;;      Temps:          0       0       0       0       0       0       0       0       0
  3911 ;;      Totals:         4       0       0       0       0       0       0       0       0
  3912 ;;Total ram usage:        4 bytes
  3913 ;; Hardware stack levels used:    1
  3914 ;; Hardware stack levels required when called:    1
  3915 ;; This function calls:
  3916 ;;		Nothing
  3917 ;; This function is called by:
  3918 ;;		_calculon
  3919 ;; This function uses a non-reentrant model
  3920 ;;
  3921                           psect	text8,class=CODE,space=0,reloc=2,group=1
  3922                           	file	"C:\Program Files (x86)\Microchip\xc8\v2.00\pic\sources\c99\common\flneg.c"
  3923                           	line	15
  3924                           global __ptext8
  3925                           __ptext8:
  3926  001FA4                     psect	text8
  3927                           	file	"C:\Program Files (x86)\Microchip\xc8\v2.00\pic\sources\c99\common\flneg.c"
  3928                           	line	15
  3929                           	global	__size_of___flneg
  3930                           	__size_of___flneg	equ	__end_of___flneg-___flneg
  3931  0000                     	
  3932                           ___flneg:
  3933  001FA4                     ;incstack = 0
  3934                           	opt	stack 28
  3935                           	line	17
  3936                           	
  3937                           l2170:
  3938  001FA4                     	movf	((c:___flneg@f1)),c,w
  3939  001FA4  5028               iorwf	((c:___flneg@f1+1)),c,w
  3940  001FA6  1029               iorwf	((c:___flneg@f1+2)),c,w
  3941  001FA8  102A               iorwf	((c:___flneg@f1+3)),c,w
  3942  001FAA  102B               	btfsc	status,2
  3943  001FAC  B4D8               	goto	u1641
  3944  001FAE  EFDB  F00F         	goto	u1640
  3945  001FB2  EFDD  F00F         
  3946                           u1641:
  3947  001FB6                     	goto	l2174
  3948  001FB6  EFE7  F00F         u1640:
  3949  001FBA                     	line	18
  3950                           	
  3951                           l2172:
  3952  001FBA                     	movlw	0
  3953  001FBA  0E00               	xorwf	((c:___flneg@f1)),c
  3954  001FBC  1A28               	movlw	0
  3955  001FBE  0E00               	xorwf	((c:___flneg@f1+1)),c
  3956  001FC0  1A29               	movlw	0
  3957  001FC2  0E00               	xorwf	((c:___flneg@f1+2)),c
  3958  001FC4  1A2A               	movlw	080h
  3959  001FC6  0E80               	xorwf	((c:___flneg@f1+3)),c
  3960  001FC8  1A2B               	goto	l2174
  3961  001FCA  EFE7  F00F         	
  3962                           l484:
  3963  001FCE                     	line	19
  3964                           	
  3965                           l2174:
  3966  001FCE                     	movff	(c:___flneg@f1),(c:?___flneg)
  3967  001FCE  C028  F028         	movff	(c:___flneg@f1+1),(c:?___flneg+1)
  3968  001FD2  C029  F029         	movff	(c:___flneg@f1+2),(c:?___flneg+2)
  3969  001FD6  C02A  F02A         	movff	(c:___flneg@f1+3),(c:?___flneg+3)
  3970  001FDA  C02B  F02B         	goto	l485
  3971  001FDE  EFF1  F00F         	
  3972                           l2176:
  3973  001FE2                     	line	20
  3974                           	
  3975                           l485:
  3976  001FE2                     	return	;funcret
  3977  001FE2  0012               	opt stack 0
  3978                           GLOBAL	__end_of___flneg
  3979                           	__end_of___flneg:
  3980  001FE4                     	signat	___flneg,4220
  3981                           	global	___flmul
  3982                           
  3983 ;; *************** function ___flmul *****************
  3984 ;; Defined at:
  3985 ;;		line 8 in file "C:\Program Files (x86)\Microchip\xc8\v2.00\pic\sources\c99\common\sprcmul.c"
  3986 ;; Parameters:    Size  Location     Type
  3987 ;;  b               4   14[COMRAM] long 
  3988 ;;  a               4   18[COMRAM] long 
  3989 ;; Auto vars:     Size  Location     Type
  3990 ;;  prod            4   33[COMRAM] struct .
  3991 ;;  grs             4   27[COMRAM] unsigned long 
  3992 ;;  temp            2   37[COMRAM] struct .
  3993 ;;  bexp            1   32[COMRAM] unsigned char 
  3994 ;;  aexp            1   31[COMRAM] unsigned char 
  3995 ;;  sign            1   26[COMRAM] unsigned char 
  3996 ;; Return value:  Size  Location     Type
  3997 ;;                  4   14[COMRAM] unsigned char 
  3998 ;; Registers used:
  3999 ;;		wreg, status,2, status,0, prodl, prodh
  4000 ;; Tracked objects:
  4001 ;;		On entry : 0/0
  4002 ;;		On exit  : 0/0
  4003 ;;		Unchanged: 0/0
  4004 ;; Data sizes:     COMRAM   BANK0   BANK1   BANK2   BANK3   BANK4   BANK5   BANK6   BANK7
  4005 ;;      Params:         8       0       0       0       0       0       0       0       0
  4006 ;;      Locals:        13       0       0       0       0       0       0       0       0
  4007 ;;      Temps:          4       0       0       0       0       0       0       0       0
  4008 ;;      Totals:        25       0       0       0       0       0       0       0       0
  4009 ;;Total ram usage:       25 bytes
  4010 ;; Hardware stack levels used:    1
  4011 ;; Hardware stack levels required when called:    1
  4012 ;; This function calls:
  4013 ;;		Nothing
  4014 ;; This function is called by:
  4015 ;;		_calculon
  4016 ;; This function uses a non-reentrant model
  4017 ;;
  4018                           psect	text9,class=CODE,space=0,reloc=2,group=1
  4019                           	file	"C:\Program Files (x86)\Microchip\xc8\v2.00\pic\sources\c99\common\sprcmul.c"
  4020                           	line	8
  4021                           global __ptext9
  4022                           __ptext9:
  4023  000D96                     psect	text9
  4024                           	file	"C:\Program Files (x86)\Microchip\xc8\v2.00\pic\sources\c99\common\sprcmul.c"
  4025                           	line	8
  4026                           	global	__size_of___flmul
  4027                           	__size_of___flmul	equ	__end_of___flmul-___flmul
  4028  0000                     	
  4029                           ___flmul:
  4030  000D96                     ;incstack = 0
  4031                           	opt	stack 28
  4032                           	line	17
  4033                           	
  4034                           l1996:
  4035  000D96                     	movf	(0+((c:___flmul@b)+03h)),c,w
  4036  000D96  5012               	andlw	low(080h)
  4037  000D98  0B80               	movwf	((c:___flmul@sign)),c
  4038  000D9A  6E1B               	line	18
  4039                           	movf	(0+((c:___flmul@b)+03h)),c,w
  4040  000D9C  5012               	addwf	(0+((c:___flmul@b)+03h)),c,w
  4041  000D9E  2412               	movwf	((c:___flmul@bexp)),c
  4042  000DA0  6E21               	line	19
  4043                           	
  4044                           l1998:
  4045  000DA2                     	
  4046                           	btfss	(0+((c:___flmul@b)+02h)),c,(7)&7
  4047  000DA2  AE11               	goto	u1391
  4048  000DA4  EFD6  F006         	goto	u1390
  4049  000DA8  EFD8  F006         u1391:
  4050  000DAC                     	goto	l2002
  4051  000DAC  EFDB  F006         u1390:
  4052  000DB0                     	line	20
  4053                           	
  4054                           l2000:
  4055  000DB0                     	bsf	(0+(0/8)+(c:___flmul@bexp)),c,(0)&7
  4056  000DB0  8021               	goto	l2002
  4057  000DB2  EFDB  F006         	line	21
  4058                           	
  4059                           l818:
  4060  000DB6                     	line	24
  4061                           	
  4062                           l2002:
  4063  000DB6                     	movf	((c:___flmul@bexp)),c,w
  4064  000DB6  5021               	btfsc	status,2
  4065  000DB8  B4D8               	goto	u1401
  4066  000DBA  EFE1  F006         	goto	u1400
  4067  000DBE  EFE3  F006         u1401:
  4068  000DC2                     	goto	l2010
  4069  000DC2  EFF8  F006         u1400:
  4070  000DC6                     	line	26
  4071                           	
  4072                           l2004:
  4073  000DC6                     		incf	((c:___flmul@bexp)),c,w
  4074  000DC6  2821               	btfss	status,2
  4075  000DC8  A4D8               	goto	u1411
  4076  000DCA  EFE9  F006         	goto	u1410
  4077  000DCE  EFEB  F006         
  4078                           u1411:
  4079  000DD2                     	goto	l2008
  4080  000DD2  EFF5  F006         u1410:
  4081  000DD6                     	line	28
  4082                           	
  4083                           l2006:
  4084  000DD6                     	movlw	low(normalize32(0x0))
  4085  000DD6  0E00               	movwf	((c:___flmul@b)),c
  4086  000DD8  6E0F               	movlw	high(normalize32(0x0))
  4087  000DDA  0E00               	movwf	((c:___flmul@b+1)),c
  4088  000DDC  6E10               	movlw	low highword(normalize32(0x0))
  4089  000DDE  0E00               	movwf	((c:___flmul@b+2)),c
  4090  000DE0  6E11               	movlw	high highword(normalize32(0x0))
  4091  000DE2  0E00               	movwf	((c:___flmul@b+3)),c
  4092  000DE4  6E12               	goto	l2008
  4093  000DE6  EFF5  F006         	line	29
  4094                           	
  4095                           l820:
  4096  000DEA                     	line	31
  4097                           	
  4098                           l2008:
  4099  000DEA                     	bsf	(0+(23/8)+(c:___flmul@b)),c,(23)&7
  4100  000DEA  8E11               	line	33
  4101                           	goto	l2012
  4102  000DEC  EF02  F007         	line	34
  4103                           	
  4104                           l819:
  4105  000DF0                     	line	36
  4106                           	
  4107                           l2010:
  4108  000DF0                     	movlw	low(normalize32(0x0))
  4109  000DF0  0E00               	movwf	((c:___flmul@b)),c
  4110  000DF2  6E0F               	movlw	high(normalize32(0x0))
  4111  000DF4  0E00               	movwf	((c:___flmul@b+1)),c
  4112  000DF6  6E10               	movlw	low highword(normalize32(0x0))
  4113  000DF8  0E00               	movwf	((c:___flmul@b+2)),c
  4114  000DFA  6E11               	movlw	high highword(normalize32(0x0))
  4115  000DFC  0E00               	movwf	((c:___flmul@b+3)),c
  4116  000DFE  6E12               	goto	l2012
  4117  000E00  EF02  F007         	line	37
  4118                           	
  4119                           l821:
  4120  000E04                     	line	39
  4121                           	
  4122                           l2012:
  4123  000E04                     	movf	(0+((c:___flmul@a)+03h)),c,w
  4124  000E04  5016               	andlw	low(080h)
  4125  000E06  0B80               	xorwf	((c:___flmul@sign)),c
  4126  000E08  1A1B               	line	40
  4127                           	
  4128                           l2014:
  4129  000E0A                     	movf	(0+((c:___flmul@a)+03h)),c,w
  4130  000E0A  5016               	addwf	(0+((c:___flmul@a)+03h)),c,w
  4131  000E0C  2416               	movwf	((c:___flmul@aexp)),c
  4132  000E0E  6E20               	line	41
  4133                           	
  4134                           l2016:
  4135  000E10                     	
  4136                           	btfss	(0+((c:___flmul@a)+02h)),c,(7)&7
  4137  000E10  AE15               	goto	u1421
  4138  000E12  EF0D  F007         	goto	u1420
  4139  000E16  EF0F  F007         u1421:
  4140  000E1A                     	goto	l2020
  4141  000E1A  EF12  F007         u1420:
  4142  000E1E                     	line	42
  4143                           	
  4144                           l2018:
  4145  000E1E                     	bsf	(0+(0/8)+(c:___flmul@aexp)),c,(0)&7
  4146  000E1E  8020               	goto	l2020
  4147  000E20  EF12  F007         	line	43
  4148                           	
  4149                           l822:
  4150  000E24                     	line	45
  4151                           	
  4152                           l2020:
  4153  000E24                     	movf	((c:___flmul@aexp)),c,w
  4154  000E24  5020               	btfsc	status,2
  4155  000E26  B4D8               	goto	u1431
  4156  000E28  EF18  F007         	goto	u1430
  4157  000E2C  EF1A  F007         u1431:
  4158  000E30                     	goto	l2028
  4159  000E30  EF2F  F007         u1430:
  4160  000E34                     	line	48
  4161                           	
  4162                           l2022:
  4163  000E34                     		incf	((c:___flmul@aexp)),c,w
  4164  000E34  2820               	btfss	status,2
  4165  000E36  A4D8               	goto	u1441
  4166  000E38  EF20  F007         	goto	u1440
  4167  000E3C  EF22  F007         
  4168                           u1441:
  4169  000E40                     	goto	l2026
  4170  000E40  EF2C  F007         u1440:
  4171  000E44                     	line	50
  4172                           	
  4173                           l2024:
  4174  000E44                     	movlw	low(normalize32(0x0))
  4175  000E44  0E00               	movwf	((c:___flmul@a)),c
  4176  000E46  6E13               	movlw	high(normalize32(0x0))
  4177  000E48  0E00               	movwf	((c:___flmul@a+1)),c
  4178  000E4A  6E14               	movlw	low highword(normalize32(0x0))
  4179  000E4C  0E00               	movwf	((c:___flmul@a+2)),c
  4180  000E4E  6E15               	movlw	high highword(normalize32(0x0))
  4181  000E50  0E00               	movwf	((c:___flmul@a+3)),c
  4182  000E52  6E16               	goto	l2026
  4183  000E54  EF2C  F007         	line	51
  4184                           	
  4185                           l824:
  4186  000E58                     	line	53
  4187                           	
  4188                           l2026:
  4189  000E58                     	bsf	(0+(23/8)+(c:___flmul@a)),c,(23)&7
  4190  000E58  8E15               	line	54
  4191                           	goto	l825
  4192  000E5A  EF37  F007         	line	55
  4193                           	
  4194                           l823:
  4195  000E5E                     	line	57
  4196                           	
  4197                           l2028:
  4198  000E5E                     	movlw	low(normalize32(0x0))
  4199  000E5E  0E00               	movwf	((c:___flmul@a)),c
  4200  000E60  6E13               	movlw	high(normalize32(0x0))
  4201  000E62  0E00               	movwf	((c:___flmul@a+1)),c
  4202  000E64  6E14               	movlw	low highword(normalize32(0x0))
  4203  000E66  0E00               	movwf	((c:___flmul@a+2)),c
  4204  000E68  6E15               	movlw	high highword(normalize32(0x0))
  4205  000E6A  0E00               	movwf	((c:___flmul@a+3)),c
  4206  000E6C  6E16               	line	58
  4207                           	
  4208                           l825:
  4209  000E6E                     	line	65
  4210                           	movf	((c:___flmul@aexp)),c,w
  4211  000E6E  5020               	btfsc	status,2
  4212  000E70  B4D8               	goto	u1451
  4213  000E72  EF3D  F007         	goto	u1450
  4214  000E76  EF3F  F007         u1451:
  4215  000E7A                     	goto	l2032
  4216  000E7A  EF49  F007         u1450:
  4217  000E7E                     	
  4218                           l2030:
  4219  000E7E                     	movf	((c:___flmul@bexp)),c,w
  4220  000E7E  5021               	btfss	status,2
  4221  000E80  A4D8               	goto	u1461
  4222  000E82  EF45  F007         	goto	u1460
  4223  000E86  EF47  F007         u1461:
  4224  000E8A                     	goto	l2036
  4225  000E8A  EF55  F007         u1460:
  4226  000E8E                     	goto	l2032
  4227  000E8E  EF49  F007         	
  4228                           l828:
  4229  000E92                     	line	66
  4230                           	
  4231                           l2032:
  4232  000E92                     	movlw	low(normalize32(0x0))
  4233  000E92  0E00               	movwf	((c:?___flmul)),c
  4234  000E94  6E0F               	movlw	high(normalize32(0x0))
  4235  000E96  0E00               	movwf	((c:?___flmul+1)),c
  4236  000E98  6E10               	movlw	low highword(normalize32(0x0))
  4237  000E9A  0E00               	movwf	((c:?___flmul+2)),c
  4238  000E9C  6E11               	movlw	high highword(normalize32(0x0))
  4239  000E9E  0E00               	movwf	((c:?___flmul+3)),c
  4240  000EA0  6E12               	goto	l829
  4241  000EA2  EF01  F009         	
  4242                           l2034:
  4243  000EA6                     	goto	l829
  4244  000EA6  EF01  F009         	line	67
  4245                           	
  4246                           l826:
  4247  000EAA                     	line	95
  4248                           	
  4249                           l2036:
  4250  000EAA                     	movf	(0+((c:___flmul@a)+02h)),c,w
  4251  000EAA  5015               	mulwf	((c:___flmul@b)),c
  4252  000EAC  020F               	movff	prodl,(c:___flmul@temp)
  4253  000EAE  CFF3 F026          	movff	prodh,(c:___flmul@temp+1)
  4254  000EB2  CFF4 F027          	line	96
  4255                           	
  4256                           l2038:
  4257  000EB6                     	movf	((c:___flmul@temp)),c,w
  4258  000EB6  5026               	movwf	((c:___flmul@grs)),c
  4259  000EB8  6E1C               	clrf	((c:___flmul@grs+1)),c
  4260  000EBA  6A1D               	clrf	((c:___flmul@grs+2)),c
  4261  000EBC  6A1E               	clrf	((c:___flmul@grs+3)),c
  4262  000EBE  6A1F               
  4263                           	line	97
  4264                           	
  4265                           l2040:
  4266  000EC0                     	movf	(0+((c:___flmul@temp)+01h)),c,w
  4267  000EC0  5027               	movwf	((c:___flmul@prod)),c
  4268  000EC2  6E22               	clrf	((c:___flmul@prod+1)),c
  4269  000EC4  6A23               	clrf	((c:___flmul@prod+2)),c
  4270  000EC6  6A24               	clrf	((c:___flmul@prod+3)),c
  4271  000EC8  6A25               
  4272                           	line	98
  4273                           	movf	(0+((c:___flmul@a)+01h)),c,w
  4274  000ECA  5014               	mulwf	(0+((c:___flmul@b)+01h)),c
  4275  000ECC  0210               	movff	prodl,(c:___flmul@temp)
  4276  000ECE  CFF3 F026          	movff	prodh,(c:___flmul@temp+1)
  4277  000ED2  CFF4 F027          	line	99
  4278                           	
  4279                           l2042:
  4280  000ED6                     	movf	((c:___flmul@temp)),c,w
  4281  000ED6  5026               	addwf	((c:___flmul@grs)),c
  4282  000ED8  261C               	movlw	0
  4283  000EDA  0E00               	addwfc	((c:___flmul@grs+1)),c
  4284  000EDC  221D               	addwfc	((c:___flmul@grs+2)),c
  4285  000EDE  221E               	addwfc	((c:___flmul@grs+3)),c
  4286  000EE0  221F               	line	100
  4287                           	
  4288                           l2044:
  4289  000EE2                     	movf	(0+((c:___flmul@temp)+01h)),c,w
  4290  000EE2  5027               	addwf	((c:___flmul@prod)),c
  4291  000EE4  2622               	movlw	0
  4292  000EE6  0E00               	addwfc	((c:___flmul@prod+1)),c
  4293  000EE8  2223               	addwfc	((c:___flmul@prod+2)),c
  4294  000EEA  2224               	addwfc	((c:___flmul@prod+3)),c
  4295  000EEC  2225               	line	101
  4296                           	movf	((c:___flmul@a)),c,w
  4297  000EEE  5013               	mulwf	(0+((c:___flmul@b)+02h)),c
  4298  000EF0  0211               	movff	prodl,(c:___flmul@temp)
  4299  000EF2  CFF3 F026          	movff	prodh,(c:___flmul@temp+1)
  4300  000EF6  CFF4 F027          	line	102
  4301                           	
  4302                           l2046:
  4303  000EFA                     	movf	((c:___flmul@temp)),c,w
  4304  000EFA  5026               	addwf	((c:___flmul@grs)),c
  4305  000EFC  261C               	movlw	0
  4306  000EFE  0E00               	addwfc	((c:___flmul@grs+1)),c
  4307  000F00  221D               	addwfc	((c:___flmul@grs+2)),c
  4308  000F02  221E               	addwfc	((c:___flmul@grs+3)),c
  4309  000F04  221F               	line	103
  4310                           	
  4311                           l2048:
  4312  000F06                     	movf	(0+((c:___flmul@temp)+01h)),c,w
  4313  000F06  5027               	addwf	((c:___flmul@prod)),c
  4314  000F08  2622               	movlw	0
  4315  000F0A  0E00               	addwfc	((c:___flmul@prod+1)),c
  4316  000F0C  2223               	addwfc	((c:___flmul@prod+2)),c
  4317  000F0E  2224               	addwfc	((c:___flmul@prod+3)),c
  4318  000F10  2225               	line	104
  4319                           	
  4320                           l2050:
  4321  000F12                     	movff	(c:___flmul@grs+2),(c:___flmul@grs+3)
  4322  000F12  C01E  F01F         	movff	(c:___flmul@grs+1),(c:___flmul@grs+2)
  4323  000F16  C01D  F01E         	movff	(c:___flmul@grs),(c:___flmul@grs+1)
  4324  000F1A  C01C  F01D         	clrf	((c:___flmul@grs)),c
  4325  000F1E  6A1C               	line	105
  4326                           	
  4327                           l2052:
  4328  000F20                     	movf	((c:___flmul@a)),c,w
  4329  000F20  5013               	mulwf	(0+((c:___flmul@b)+01h)),c
  4330  000F22  0210               	movff	prodl,(c:___flmul@temp)
  4331  000F24  CFF3 F026          	movff	prodh,(c:___flmul@temp+1)
  4332  000F28  CFF4 F027          	line	106
  4333                           	
  4334                           l2054:
  4335  000F2C                     	movf	((c:___flmul@temp)),c,w
  4336  000F2C  5026               	addwf	((c:___flmul@grs)),c
  4337  000F2E  261C               	movf	((c:___flmul@temp+1)),c,w
  4338  000F30  5027               	addwfc	((c:___flmul@grs+1)),c
  4339  000F32  221D               	movlw	0
  4340  000F34  0E00               	addwfc	((c:___flmul@grs+2)),c
  4341  000F36  221E               	movlw	0
  4342  000F38  0E00               	addwfc	((c:___flmul@grs+3)),c
  4343  000F3A  221F               
  4344                           	line	107
  4345                           	
  4346                           l2056:
  4347  000F3C                     	movf	(0+((c:___flmul@a)+01h)),c,w
  4348  000F3C  5014               	mulwf	((c:___flmul@b)),c
  4349  000F3E  020F               	movff	prodl,(c:___flmul@temp)
  4350  000F40  CFF3 F026          	movff	prodh,(c:___flmul@temp+1)
  4351  000F44  CFF4 F027          	line	108
  4352                           	
  4353                           l2058:
  4354  000F48                     	movf	((c:___flmul@temp)),c,w
  4355  000F48  5026               	addwf	((c:___flmul@grs)),c
  4356  000F4A  261C               	movf	((c:___flmul@temp+1)),c,w
  4357  000F4C  5027               	addwfc	((c:___flmul@grs+1)),c
  4358  000F4E  221D               	movlw	0
  4359  000F50  0E00               	addwfc	((c:___flmul@grs+2)),c
  4360  000F52  221E               	movlw	0
  4361  000F54  0E00               	addwfc	((c:___flmul@grs+3)),c
  4362  000F56  221F               
  4363                           	line	109
  4364                           	
  4365                           l2060:
  4366  000F58                     	movff	(c:___flmul@grs+2),(c:___flmul@grs+3)
  4367  000F58  C01E  F01F         	movff	(c:___flmul@grs+1),(c:___flmul@grs+2)
  4368  000F5C  C01D  F01E         	movff	(c:___flmul@grs),(c:___flmul@grs+1)
  4369  000F60  C01C  F01D         	clrf	((c:___flmul@grs)),c
  4370  000F64  6A1C               	line	110
  4371                           	movf	((c:___flmul@a)),c,w
  4372  000F66  5013               	mulwf	((c:___flmul@b)),c
  4373  000F68  020F               	movff	prodl,(c:___flmul@temp)
  4374  000F6A  CFF3 F026          	movff	prodh,(c:___flmul@temp+1)
  4375  000F6E  CFF4 F027          	line	111
  4376                           	
  4377                           l2062:
  4378  000F72                     	movf	((c:___flmul@temp)),c,w
  4379  000F72  5026               	addwf	((c:___flmul@grs)),c
  4380  000F74  261C               	movf	((c:___flmul@temp+1)),c,w
  4381  000F76  5027               	addwfc	((c:___flmul@grs+1)),c
  4382  000F78  221D               	movlw	0
  4383  000F7A  0E00               	addwfc	((c:___flmul@grs+2)),c
  4384  000F7C  221E               	movlw	0
  4385  000F7E  0E00               	addwfc	((c:___flmul@grs+3)),c
  4386  000F80  221F               
  4387                           	line	112
  4388                           	
  4389                           l2064:
  4390  000F82                     	movf	(0+((c:___flmul@a)+02h)),c,w
  4391  000F82  5015               	mulwf	(0+((c:___flmul@b)+01h)),c
  4392  000F84  0210               	movff	prodl,(c:___flmul@temp)
  4393  000F86  CFF3 F026          	movff	prodh,(c:___flmul@temp+1)
  4394  000F8A  CFF4 F027          	line	113
  4395                           	movf	((c:___flmul@temp)),c,w
  4396  000F8E  5026               	addwf	((c:___flmul@prod)),c
  4397  000F90  2622               	movf	((c:___flmul@temp+1)),c,w
  4398  000F92  5027               	addwfc	((c:___flmul@prod+1)),c
  4399  000F94  2223               	movlw	0
  4400  000F96  0E00               	addwfc	((c:___flmul@prod+2)),c
  4401  000F98  2224               	movlw	0
  4402  000F9A  0E00               	addwfc	((c:___flmul@prod+3)),c
  4403  000F9C  2225               
  4404                           	line	114
  4405                           	
  4406                           l2066:
  4407  000F9E                     	movf	(0+((c:___flmul@a)+01h)),c,w
  4408  000F9E  5014               	mulwf	(0+((c:___flmul@b)+02h)),c
  4409  000FA0  0211               	movff	prodl,(c:___flmul@temp)
  4410  000FA2  CFF3 F026          	movff	prodh,(c:___flmul@temp+1)
  4411  000FA6  CFF4 F027          	line	115
  4412                           	
  4413                           l2068:
  4414  000FAA                     	movf	((c:___flmul@temp)),c,w
  4415  000FAA  5026               	addwf	((c:___flmul@prod)),c
  4416  000FAC  2622               	movf	((c:___flmul@temp+1)),c,w
  4417  000FAE  5027               	addwfc	((c:___flmul@prod+1)),c
  4418  000FB0  2223               	movlw	0
  4419  000FB2  0E00               	addwfc	((c:___flmul@prod+2)),c
  4420  000FB4  2224               	movlw	0
  4421  000FB6  0E00               	addwfc	((c:___flmul@prod+3)),c
  4422  000FB8  2225               
  4423                           	line	116
  4424                           	movf	(0+((c:___flmul@a)+02h)),c,w
  4425  000FBA  5015               	mulwf	(0+((c:___flmul@b)+02h)),c
  4426  000FBC  0211               	movff	prodl,(c:___flmul@temp)
  4427  000FBE  CFF3 F026          	movff	prodh,(c:___flmul@temp+1)
  4428  000FC2  CFF4 F027          	line	117
  4429                           	
  4430                           l2070:
  4431  000FC6                     	movf	((c:___flmul@temp)),c,w
  4432  000FC6  5026               	movwf	(??___flmul+0+0)&0ffh,c
  4433  000FC8  6E17               	movf	((c:___flmul@temp+1)),c,w
  4434  000FCA  5027               	movwf	1+(??___flmul+0+0)&0ffh,c
  4435  000FCC  6E18               	
  4436                           	clrf	2+(??___flmul+0+0)&0ffh,c
  4437  000FCE  6A19               	
  4438                           	clrf	3+(??___flmul+0+0)&0ffh,c
  4439  000FD0  6A1A               	movff	??___flmul+0+2,??___flmul+0+3
  4440  000FD2  C019  F01A         	movff	??___flmul+0+1,??___flmul+0+2
  4441  000FD6  C018  F019         	movff	??___flmul+0+0,??___flmul+0+1
  4442  000FDA  C017  F018         	clrf	(??___flmul+0+0),c
  4443  000FDE  6A17               	movf	(??___flmul+0+0),c,w
  4444  000FE0  5017               	addwf	((c:___flmul@prod)),c
  4445  000FE2  2622               	movf	(??___flmul+0+1),c,w
  4446  000FE4  5018               	addwfc	((c:___flmul@prod+1)),c
  4447  000FE6  2223               	movf	(??___flmul+0+2),c,w
  4448  000FE8  5019               	addwfc	((c:___flmul@prod+2)),c
  4449  000FEA  2224               	movf	(??___flmul+0+3),c,w
  4450  000FEC  501A               	addwfc	((c:___flmul@prod+3)),c
  4451  000FEE  2225               
  4452                           	line	145
  4453                           	
  4454                           l2072:
  4455  000FF0                     	movff	(c:___flmul@grs),??___flmul+0+0
  4456  000FF0  C01C  F017         	movff	(c:___flmul@grs+1),??___flmul+0+0+1
  4457  000FF4  C01D  F018         	movff	(c:___flmul@grs+2),??___flmul+0+0+2
  4458  000FF8  C01E  F019         	movff	(c:___flmul@grs+3),??___flmul+0+0+3
  4459  000FFC  C01F  F01A         	movlw	018h+1
  4460  001000  0E19               	goto	u1470
  4461  001002  EF08  F008         u1475:
  4462  001006                     	bcf	status,0
  4463  001006  90D8               	rrcf	(??___flmul+0+3),c
  4464  001008  321A               	rrcf	(??___flmul+0+2),c
  4465  00100A  3219               	rrcf	(??___flmul+0+1),c
  4466  00100C  3218               	rrcf	(??___flmul+0+0),c
  4467  00100E  3217               u1470:
  4468  001010                     	decfsz	wreg
  4469  001010  2EE8               	goto	u1475
  4470  001012  EF03  F008         	movf	(??___flmul+0+0),c,w
  4471  001016  5017               	addwf	((c:___flmul@prod)),c
  4472  001018  2622               	movf	(??___flmul+0+1),c,w
  4473  00101A  5018               	addwfc	((c:___flmul@prod+1)),c
  4474  00101C  2223               	movf	(??___flmul+0+2),c,w
  4475  00101E  5019               	addwfc	((c:___flmul@prod+2)),c
  4476  001020  2224               	movf	(??___flmul+0+3),c,w
  4477  001022  501A               	addwfc	((c:___flmul@prod+3)),c
  4478  001024  2225               
  4479                           	line	146
  4480                           	
  4481                           l2074:
  4482  001026                     	movff	(c:___flmul@grs+2),(c:___flmul@grs+3)
  4483  001026  C01E  F01F         	movff	(c:___flmul@grs+1),(c:___flmul@grs+2)
  4484  00102A  C01D  F01E         	movff	(c:___flmul@grs),(c:___flmul@grs+1)
  4485  00102E  C01C  F01D         	clrf	((c:___flmul@grs)),c
  4486  001032  6A1C               	line	149
  4487                           	
  4488                           l2076:
  4489  001034                     	movf	((c:___flmul@aexp)),c,w
  4490  001034  5020               	movff	(c:___flmul@bexp),??___flmul+0+0
  4491  001036  C021  F017         	clrf	(??___flmul+0+0+1)&0ffh,c
  4492  00103A  6A18               	addwf	(??___flmul+0+0),c
  4493  00103C  2617               	movlw	0
  4494  00103E  0E00               	addwfc	(??___flmul+0+1),c
  4495  001040  2218               	movlw	low(-126)
  4496  001042  0E82               	addwf	(??___flmul+0+0),c,w
  4497  001044  2417               	movwf	((c:___flmul@temp)),c
  4498  001046  6E26               	movlw	high(-126)
  4499  001048  0EFF               	addwfc	(??___flmul+0+1),c,w
  4500  00104A  2018               	movwf	1+((c:___flmul@temp)),c
  4501  00104C  6E27               	line	152
  4502                           	goto	l2084
  4503  00104E  EF40  F008         	
  4504                           l831:
  4505  001052                     	line	153
  4506                           	
  4507                           l2078:
  4508  001052                     	bcf	status,0
  4509  001052  90D8               	rlcf	((c:___flmul@prod)),c
  4510  001054  3622               	rlcf	((c:___flmul@prod+1)),c
  4511  001056  3623               	rlcf	((c:___flmul@prod+2)),c
  4512  001058  3624               	rlcf	((c:___flmul@prod+3)),c
  4513  00105A  3625               	line	154
  4514                           	
  4515                           l2080:
  4516  00105C                     	
  4517                           	btfss	((c:___flmul@grs+3)),c,(31)&7
  4518  00105C  AE1F               	goto	u1481
  4519  00105E  EF33  F008         	goto	u1480
  4520  001062  EF35  F008         u1481:
  4521  001066                     	goto	l832
  4522  001066  EF36  F008         u1480:
  4523  00106A                     	line	155
  4524                           	
  4525                           l2082:
  4526  00106A                     	bsf	(0+(0/8)+(c:___flmul@prod)),c,(0)&7
  4527  00106A  8022               	line	156
  4528                           	
  4529                           l832:
  4530  00106C                     	line	157
  4531                           	bcf	status,0
  4532  00106C  90D8               	rlcf	((c:___flmul@grs)),c
  4533  00106E  361C               	rlcf	((c:___flmul@grs+1)),c
  4534  001070  361D               	rlcf	((c:___flmul@grs+2)),c
  4535  001072  361E               	rlcf	((c:___flmul@grs+3)),c
  4536  001074  361F               	line	158
  4537                           	decf	((c:___flmul@temp)),c
  4538  001076  0626               	btfss	status,0
  4539  001078  A0D8               	decf	((c:___flmul@temp+1)),c
  4540  00107A  0627               	goto	l2084
  4541  00107C  EF40  F008         	line	159
  4542                           	
  4543                           l830:
  4544  001080                     	line	152
  4545                           	
  4546                           l2084:
  4547  001080                     	
  4548                           	btfss	((c:___flmul@prod+2)),c,(23)&7
  4549  001080  AE24               	goto	u1491
  4550  001082  EF45  F008         	goto	u1490
  4551  001086  EF47  F008         u1491:
  4552  00108A                     	goto	l2078
  4553  00108A  EF29  F008         u1490:
  4554  00108E                     	goto	l2086
  4555  00108E  EF49  F008         	
  4556                           l833:
  4557  001092                     	line	163
  4558                           	
  4559                           l2086:
  4560  001092                     	movlw	low(0)
  4561  001092  0E00               	movwf	((c:___flmul@aexp)),c
  4562  001094  6E20               	line	164
  4563                           	
  4564                           l2088:
  4565  001096                     	
  4566                           	btfss	((c:___flmul@grs+3)),c,(31)&7
  4567  001096  AE1F               	goto	u1501
  4568  001098  EF50  F008         	goto	u1500
  4569  00109C  EF52  F008         u1501:
  4570  0010A0                     	goto	l834
  4571  0010A0  EF7A  F008         u1500:
  4572  0010A4                     	line	165
  4573                           	
  4574                           l2090:
  4575  0010A4                     	movlw	0FFh
  4576  0010A4  0EFF               	andwf	((c:___flmul@grs)),c,w
  4577  0010A6  141C               	movwf	(??___flmul+0+0)&0ffh,c
  4578  0010A8  6E17               	movlw	0FFh
  4579  0010AA  0EFF               	andwf	((c:___flmul@grs+1)),c,w
  4580  0010AC  141D               	movwf	1+(??___flmul+0+0)&0ffh,c
  4581  0010AE  6E18               	
  4582                           	movlw	0FFh
  4583  0010B0  0EFF               	andwf	((c:___flmul@grs+2)),c,w
  4584  0010B2  141E               	movwf	2+(??___flmul+0+0)&0ffh,c
  4585  0010B4  6E19               	
  4586                           	movlw	07Fh
  4587  0010B6  0E7F               	andwf	((c:___flmul@grs+3)),c,w
  4588  0010B8  141F               	movwf	3+(??___flmul+0+0)&0ffh,c
  4589  0010BA  6E1A               	movf	(??___flmul+0+0),c,w
  4590  0010BC  5017               iorwf	(??___flmul+0+1),c,w
  4591  0010BE  1018               iorwf	(??___flmul+0+2),c,w
  4592  0010C0  1019               iorwf	(??___flmul+0+3),c,w
  4593  0010C2  101A               	btfsc	status,2
  4594  0010C4  B4D8               	goto	u1511
  4595  0010C6  EF67  F008         	goto	u1510
  4596  0010CA  EF69  F008         
  4597                           u1511:
  4598  0010CE                     	goto	l835
  4599  0010CE  EF6D  F008         u1510:
  4600  0010D2                     	line	166
  4601                           	
  4602                           l2092:
  4603  0010D2                     	movlw	low(01h)
  4604  0010D2  0E01               	movwf	((c:___flmul@aexp)),c
  4605  0010D4  6E20               	line	167
  4606                           	goto	l834
  4607  0010D6  EF7A  F008         	line	168
  4608                           	
  4609                           l835:
  4610  0010DA                     	line	169
  4611                           	
  4612                           	btfss	((c:___flmul@prod)),c,(0)&7
  4613  0010DA  A022               	goto	u1521
  4614  0010DC  EF72  F008         	goto	u1520
  4615  0010E0  EF74  F008         u1521:
  4616  0010E4                     	goto	l834
  4617  0010E4  EF7A  F008         u1520:
  4618  0010E8                     	line	170
  4619                           	
  4620                           l2094:
  4621  0010E8                     	movlw	low(01h)
  4622  0010E8  0E01               	movwf	((c:___flmul@aexp)),c
  4623  0010EA  6E20               	goto	l834
  4624  0010EC  EF7A  F008         	line	171
  4625                           	
  4626                           l837:
  4627  0010F0                     	goto	l834
  4628  0010F0  EF7A  F008         	line	172
  4629                           	
  4630                           l836:
  4631  0010F4                     	line	173
  4632                           	
  4633                           l834:
  4634  0010F4                     	line	174
  4635                           	movf	((c:___flmul@aexp)),c,w
  4636  0010F4  5020               	btfsc	status,2
  4637  0010F6  B4D8               	goto	u1531
  4638  0010F8  EF80  F008         	goto	u1530
  4639  0010FC  EF82  F008         u1531:
  4640  001100                     	goto	l2104
  4641  001100  EFAA  F008         u1530:
  4642  001104                     	line	175
  4643                           	
  4644                           l2096:
  4645  001104                     	movlw	low(01h)
  4646  001104  0E01               	addwf	((c:___flmul@prod)),c
  4647  001106  2622               	movlw	0
  4648  001108  0E00               	addwfc	((c:___flmul@prod+1)),c
  4649  00110A  2223               	addwfc	((c:___flmul@prod+2)),c
  4650  00110C  2224               	addwfc	((c:___flmul@prod+3)),c
  4651  00110E  2225               	line	176
  4652                           	
  4653                           l2098:
  4654  001110                     	
  4655                           	btfss	((c:___flmul@prod+3)),c,(24)&7
  4656  001110  A025               	goto	u1541
  4657  001112  EF8D  F008         	goto	u1540
  4658  001116  EF8F  F008         u1541:
  4659  00111A                     	goto	l2104
  4660  00111A  EFAA  F008         u1540:
  4661  00111E                     	line	177
  4662                           	
  4663                           l2100:
  4664  00111E                     	movff	(c:___flmul@prod),??___flmul+0+0
  4665  00111E  C022  F017         	movff	(c:___flmul@prod+1),??___flmul+0+0+1
  4666  001122  C023  F018         	movff	(c:___flmul@prod+2),??___flmul+0+0+2
  4667  001126  C024  F019         	movff	(c:___flmul@prod+3),??___flmul+0+0+3
  4668  00112A  C025  F01A         	rlcf	(??___flmul+0+3),c,w
  4669  00112E  341A               	rrcf	(??___flmul+0+3),c
  4670  001130  321A               	rrcf	(??___flmul+0+2),c
  4671  001132  3219               	rrcf	(??___flmul+0+1),c
  4672  001134  3218               	rrcf	(??___flmul+0+0),c
  4673  001136  3217               	movff	??___flmul+0+0,(c:___flmul@prod)
  4674  001138  C017  F022         	movff	??___flmul+0+1,(c:___flmul@prod+1)
  4675  00113C  C018  F023         	movff	??___flmul+0+2,(c:___flmul@prod+2)
  4676  001140  C019  F024         	movff	??___flmul+0+3,(c:___flmul@prod+3)
  4677  001144  C01A  F025         	line	178
  4678                           	
  4679                           l2102:
  4680  001148                     	infsnz	((c:___flmul@temp)),c
  4681  001148  4A26               	incf	((c:___flmul@temp+1)),c
  4682  00114A  2A27               	goto	l2104
  4683  00114C  EFAA  F008         	line	179
  4684                           	
  4685                           l839:
  4686  001150                     	goto	l2104
  4687  001150  EFAA  F008         	line	180
  4688                           	
  4689                           l838:
  4690  001154                     	line	183
  4691                           	
  4692                           l2104:
  4693  001154                     	btfsc	((c:___flmul@temp+1)),c,7
  4694  001154  BE27               	goto	u1551
  4695  001156  EFB5  F008         	movf	((c:___flmul@temp+1)),c,w
  4696  00115A  5027               	bnz	u1550
  4697  00115C  E108               	incf	((c:___flmul@temp)),c,w
  4698  00115E  2826               	btfss	status,0
  4699  001160  A0D8               	goto	u1551
  4700  001162  EFB5  F008         	goto	u1550
  4701  001166  EFB7  F008         
  4702                           u1551:
  4703  00116A                     	goto	l2108
  4704  00116A  EFC1  F008         u1550:
  4705  00116E                     	line	184
  4706                           	
  4707                           l2106:
  4708  00116E                     	movlw	low(07F800000h)
  4709  00116E  0E00               	movwf	((c:___flmul@prod)),c
  4710  001170  6E22               	movlw	high(07F800000h)
  4711  001172  0E00               	movwf	((c:___flmul@prod+1)),c
  4712  001174  6E23               	movlw	low highword(07F800000h)
  4713  001176  0E80               	movwf	((c:___flmul@prod+2)),c
  4714  001178  6E24               	movlw	high highword(07F800000h)
  4715  00117A  0E7F               	movwf	((c:___flmul@prod+3)),c
  4716  00117C  6E25               	line	185
  4717                           	goto	l2120
  4718  00117E  EFF5  F008         	line	187
  4719                           	
  4720                           l840:
  4721  001182                     	
  4722                           l2108:
  4723  001182                     	btfsc	((c:___flmul@temp+1)),c,7
  4724  001182  BE27               	goto	u1560
  4725  001184  EFCE  F008         	movf	((c:___flmul@temp+1)),c,w
  4726  001188  5027               	bnz	u1561
  4727  00118A  E106               	decf	((c:___flmul@temp)),c,w
  4728  00118C  0426               	btfsc	status,0
  4729  00118E  B0D8               	goto	u1561
  4730  001190  EFCC  F008         	goto	u1560
  4731  001194  EFCE  F008         
  4732                           u1561:
  4733  001198                     	goto	l842
  4734  001198  EFDA  F008         u1560:
  4735  00119C                     	line	188
  4736                           	
  4737                           l2110:
  4738  00119C                     	movlw	low(0)
  4739  00119C  0E00               	movwf	((c:___flmul@prod)),c
  4740  00119E  6E22               	movlw	high(0)
  4741  0011A0  0E00               	movwf	((c:___flmul@prod+1)),c
  4742  0011A2  6E23               	movlw	low highword(0)
  4743  0011A4  0E00               	movwf	((c:___flmul@prod+2)),c
  4744  0011A6  6E24               	movlw	high highword(0)
  4745  0011A8  0E00               	movwf	((c:___flmul@prod+3)),c
  4746  0011AA  6E25               	line	190
  4747                           	movlw	low(0)
  4748  0011AC  0E00               	movwf	((c:___flmul@sign)),c
  4749  0011AE  6E1B               	line	191
  4750                           	goto	l2120
  4751  0011B0  EFF5  F008         	line	192
  4752                           	
  4753                           l842:
  4754  0011B4                     	line	194
  4755                           	movff	(c:___flmul@temp),(c:___flmul@bexp)
  4756  0011B4  C026  F021         	line	195
  4757                           	
  4758                           l2112:
  4759  0011B8                     	movlw	0FFh
  4760  0011B8  0EFF               	andwf	((c:___flmul@prod)),c
  4761  0011BA  1622               	movlw	0FFh
  4762  0011BC  0EFF               	andwf	((c:___flmul@prod+1)),c
  4763  0011BE  1623               	movlw	07Fh
  4764  0011C0  0E7F               	andwf	((c:___flmul@prod+2)),c
  4765  0011C2  1624               	movlw	0
  4766  0011C4  0E00               	andwf	((c:___flmul@prod+3)),c
  4767  0011C6  1625               	line	196
  4768                           	
  4769                           l2114:
  4770  0011C8                     	
  4771                           	btfss	((c:___flmul@bexp)),c,(0)&7
  4772  0011C8  A021               	goto	u1571
  4773  0011CA  EFE9  F008         	goto	u1570
  4774  0011CE  EFEB  F008         u1571:
  4775  0011D2                     	goto	l2118
  4776  0011D2  EFEE  F008         u1570:
  4777  0011D6                     	line	197
  4778                           	
  4779                           l2116:
  4780  0011D6                     	bsf	(0+(7/8)+0+((c:___flmul@prod)+02h)),c,(7)&7
  4781  0011D6  8E24               	goto	l2118
  4782  0011D8  EFEE  F008         	line	198
  4783                           	
  4784                           l844:
  4785  0011DC                     	line	199
  4786                           	
  4787                           l2118:
  4788  0011DC                     	bcf	status,0
  4789  0011DC  90D8               	rrcf	((c:___flmul@bexp)),c,w
  4790  0011DE  3021               	movwf	(0+((c:___flmul@prod)+03h)),c
  4791  0011E0  6E25               	goto	l2120
  4792  0011E2  EFF5  F008         	line	200
  4793                           	
  4794                           l843:
  4795  0011E6                     	goto	l2120
  4796  0011E6  EFF5  F008         	
  4797                           l841:
  4798  0011EA                     	line	201
  4799                           	
  4800                           l2120:
  4801  0011EA                     	movf	((c:___flmul@sign)),c,w
  4802  0011EA  501B               	iorwf	(0+((c:___flmul@prod)+03h)),c
  4803  0011EC  1225               	line	203
  4804                           	
  4805                           l2122:
  4806  0011EE                     	movff	(c:___flmul@prod),(c:?___flmul)
  4807  0011EE  C022  F00F         	movff	(c:___flmul@prod+1),(c:?___flmul+1)
  4808  0011F2  C023  F010         	movff	(c:___flmul@prod+2),(c:?___flmul+2)
  4809  0011F6  C024  F011         	movff	(c:___flmul@prod+3),(c:?___flmul+3)
  4810  0011FA  C025  F012         	goto	l829
  4811  0011FE  EF01  F009         	
  4812                           l2124:
  4813  001202                     	line	205
  4814                           	
  4815                           l829:
  4816  001202                     	return	;funcret
  4817  001202  0012               	opt stack 0
  4818                           GLOBAL	__end_of___flmul
  4819                           	__end_of___flmul:
  4820  001204                     	signat	___flmul,8316
  4821                           	global	___fladd
  4822                           
  4823 ;; *************** function ___fladd *****************
  4824 ;; Defined at:
  4825 ;;		line 10 in file "C:\Program Files (x86)\Microchip\xc8\v2.00\pic\sources\c99\common\sprcadd.c"
  4826 ;; Parameters:    Size  Location     Type
  4827 ;;  b               4   43[COMRAM] unsigned char 
  4828 ;;  a               4   47[COMRAM] unsigned char 
  4829 ;; Auto vars:     Size  Location     Type
  4830 ;;  grs             1   62[COMRAM] unsigned char 
  4831 ;;  bexp            1   61[COMRAM] unsigned char 
  4832 ;;  aexp            1   60[COMRAM] unsigned char 
  4833 ;;  signs           1   59[COMRAM] unsigned char 
  4834 ;; Return value:  Size  Location     Type
  4835 ;;                  4   43[COMRAM] unsigned char 
  4836 ;; Registers used:
  4837 ;;		wreg, status,2, status,0
  4838 ;; Tracked objects:
  4839 ;;		On entry : 0/0
  4840 ;;		On exit  : 0/0
  4841 ;;		Unchanged: 0/0
  4842 ;; Data sizes:     COMRAM   BANK0   BANK1   BANK2   BANK3   BANK4   BANK5   BANK6   BANK7
  4843 ;;      Params:         8       0       0       0       0       0       0       0       0
  4844 ;;      Locals:         4       0       0       0       0       0       0       0       0
  4845 ;;      Temps:          8       0       0       0       0       0       0       0       0
  4846 ;;      Totals:        20       0       0       0       0       0       0       0       0
  4847 ;;Total ram usage:       20 bytes
  4848 ;; Hardware stack levels used:    1
  4849 ;; Hardware stack levels required when called:    1
  4850 ;; This function calls:
  4851 ;;		Nothing
  4852 ;; This function is called by:
  4853 ;;		_calculon
  4854 ;; This function uses a non-reentrant model
  4855 ;;
  4856                           psect	text10,class=CODE,space=0,reloc=2,group=1
  4857                           	file	"C:\Program Files (x86)\Microchip\xc8\v2.00\pic\sources\c99\common\sprcadd.c"
  4858                           	line	10
  4859                           global __ptext10
  4860                           __ptext10:
  4861  000812                     psect	text10
  4862                           	file	"C:\Program Files (x86)\Microchip\xc8\v2.00\pic\sources\c99\common\sprcadd.c"
  4863                           	line	10
  4864                           	global	__size_of___fladd
  4865                           	__size_of___fladd	equ	__end_of___fladd-___fladd
  4866  0000                     	
  4867                           ___fladd:
  4868  000812                     ;incstack = 0
  4869                           	opt	stack 28
  4870                           	line	21
  4871                           	
  4872                           l1794:
  4873  000812                     	movf	(0+((c:___fladd@b)+03h)),c,w
  4874  000812  502F               	andlw	low(080h)
  4875  000814  0B80               	movwf	((c:___fladd@signs)),c
  4876  000816  6E3C               	line	22
  4877                           	movf	(0+((c:___fladd@b)+03h)),c,w
  4878  000818  502F               	addwf	(0+((c:___fladd@b)+03h)),c,w
  4879  00081A  242F               	movwf	((c:___fladd@bexp)),c
  4880  00081C  6E3E               	line	23
  4881                           	
  4882                           l1796:
  4883  00081E                     	
  4884                           	btfss	(0+((c:___fladd@b)+02h)),c,(7)&7
  4885  00081E  AE2E               	goto	u1001
  4886  000820  EF14  F004         	goto	u1000
  4887  000824  EF16  F004         u1001:
  4888  000828                     	goto	l1800
  4889  000828  EF19  F004         u1000:
  4890  00082C                     	line	24
  4891                           	
  4892                           l1798:
  4893  00082C                     	bsf	(0+(0/8)+(c:___fladd@bexp)),c,(0)&7
  4894  00082C  803E               	goto	l1800
  4895  00082E  EF19  F004         	line	25
  4896                           	
  4897                           l727:
  4898  000832                     	line	28
  4899                           	
  4900                           l1800:
  4901  000832                     	movf	((c:___fladd@bexp)),c,w
  4902  000832  503E               	btfsc	status,2
  4903  000834  B4D8               	goto	u1011
  4904  000836  EF1F  F004         	goto	u1010
  4905  00083A  EF21  F004         u1011:
  4906  00083E                     	goto	l1810
  4907  00083E  EF38  F004         u1010:
  4908  000842                     	line	30
  4909                           	
  4910                           l1802:
  4911  000842                     		incf	((c:___fladd@bexp)),c,w
  4912  000842  283E               	btfss	status,2
  4913  000844  A4D8               	goto	u1021
  4914  000846  EF27  F004         	goto	u1020
  4915  00084A  EF29  F004         
  4916                           u1021:
  4917  00084E                     	goto	l1806
  4918  00084E  EF33  F004         u1020:
  4919  000852                     	line	32
  4920                           	
  4921                           l1804:
  4922  000852                     	movlw	low(normalize32(0x0))
  4923  000852  0E00               	movwf	((c:___fladd@b)),c
  4924  000854  6E2C               	movlw	high(normalize32(0x0))
  4925  000856  0E00               	movwf	((c:___fladd@b+1)),c
  4926  000858  6E2D               	movlw	low highword(normalize32(0x0))
  4927  00085A  0E00               	movwf	((c:___fladd@b+2)),c
  4928  00085C  6E2E               	movlw	high highword(normalize32(0x0))
  4929  00085E  0E00               	movwf	((c:___fladd@b+3)),c
  4930  000860  6E2F               	goto	l1806
  4931  000862  EF33  F004         	line	33
  4932                           	
  4933                           l729:
  4934  000866                     	line	35
  4935                           	
  4936                           l1806:
  4937  000866                     	bsf	(0+(23/8)+(c:___fladd@b)),c,(23)&7
  4938  000866  8E2E               	line	37
  4939                           	
  4940                           l1808:
  4941  000868                     	movlw	low(0)
  4942  000868  0E00               	movwf	(0+((c:___fladd@b)+03h)),c
  4943  00086A  6E2F               	line	38
  4944                           	goto	l1812
  4945  00086C  EF42  F004         	line	39
  4946                           	
  4947                           l728:
  4948  000870                     	line	41
  4949                           	
  4950                           l1810:
  4951  000870                     	movlw	low(normalize32(0x0))
  4952  000870  0E00               	movwf	((c:___fladd@b)),c
  4953  000872  6E2C               	movlw	high(normalize32(0x0))
  4954  000874  0E00               	movwf	((c:___fladd@b+1)),c
  4955  000876  6E2D               	movlw	low highword(normalize32(0x0))
  4956  000878  0E00               	movwf	((c:___fladd@b+2)),c
  4957  00087A  6E2E               	movlw	high highword(normalize32(0x0))
  4958  00087C  0E00               	movwf	((c:___fladd@b+3)),c
  4959  00087E  6E2F               	goto	l1812
  4960  000880  EF42  F004         	line	42
  4961                           	
  4962                           l730:
  4963  000884                     	line	44
  4964                           	
  4965                           l1812:
  4966  000884                     	movf	(0+((c:___fladd@a)+03h)),c,w
  4967  000884  5033               	andlw	low(080h)
  4968  000886  0B80               	movwf	((c:___fladd@aexp)),c
  4969  000888  6E3D               	line	46
  4970                           	
  4971                           l1814:
  4972  00088A                     	movf	((c:___fladd@signs)),c,w
  4973  00088A  503C               xorwf	((c:___fladd@aexp)),c,w
  4974  00088C  183D               	btfsc	status,2
  4975  00088E  B4D8               	goto	u1031
  4976  000890  EF4C  F004         	goto	u1030
  4977  000894  EF4E  F004         
  4978                           u1031:
  4979  000898                     	goto	l1818
  4980  000898  EF51  F004         u1030:
  4981  00089C                     	line	47
  4982                           	
  4983                           l1816:
  4984  00089C                     	bsf	(0+(6/8)+(c:___fladd@signs)),c,(6)&7
  4985  00089C  8C3C               	goto	l1818
  4986  00089E  EF51  F004         	line	48
  4987                           	
  4988                           l731:
  4989  0008A2                     	line	49
  4990                           	
  4991                           l1818:
  4992  0008A2                     	movf	(0+((c:___fladd@a)+03h)),c,w
  4993  0008A2  5033               	addwf	(0+((c:___fladd@a)+03h)),c,w
  4994  0008A4  2433               	movwf	((c:___fladd@aexp)),c
  4995  0008A6  6E3D               	line	50
  4996                           	
  4997                           l1820:
  4998  0008A8                     	
  4999                           	btfss	(0+((c:___fladd@a)+02h)),c,(7)&7
  5000  0008A8  AE32               	goto	u1041
  5001  0008AA  EF59  F004         	goto	u1040
  5002  0008AE  EF5B  F004         u1041:
  5003  0008B2                     	goto	l1824
  5004  0008B2  EF5E  F004         u1040:
  5005  0008B6                     	line	51
  5006                           	
  5007                           l1822:
  5008  0008B6                     	bsf	(0+(0/8)+(c:___fladd@aexp)),c,(0)&7
  5009  0008B6  803D               	goto	l1824
  5010  0008B8  EF5E  F004         	line	52
  5011                           	
  5012                           l732:
  5013  0008BC                     	line	55
  5014                           	
  5015                           l1824:
  5016  0008BC                     	movf	((c:___fladd@aexp)),c,w
  5017  0008BC  503D               	btfsc	status,2
  5018  0008BE  B4D8               	goto	u1051
  5019  0008C0  EF64  F004         	goto	u1050
  5020  0008C4  EF66  F004         u1051:
  5021  0008C8                     	goto	l1834
  5022  0008C8  EF7D  F004         u1050:
  5023  0008CC                     	line	57
  5024                           	
  5025                           l1826:
  5026  0008CC                     		incf	((c:___fladd@aexp)),c,w
  5027  0008CC  283D               	btfss	status,2
  5028  0008CE  A4D8               	goto	u1061
  5029  0008D0  EF6C  F004         	goto	u1060
  5030  0008D4  EF6E  F004         
  5031                           u1061:
  5032  0008D8                     	goto	l1830
  5033  0008D8  EF78  F004         u1060:
  5034  0008DC                     	line	59
  5035                           	
  5036                           l1828:
  5037  0008DC                     	movlw	low(normalize32(0x0))
  5038  0008DC  0E00               	movwf	((c:___fladd@a)),c
  5039  0008DE  6E30               	movlw	high(normalize32(0x0))
  5040  0008E0  0E00               	movwf	((c:___fladd@a+1)),c
  5041  0008E2  6E31               	movlw	low highword(normalize32(0x0))
  5042  0008E4  0E00               	movwf	((c:___fladd@a+2)),c
  5043  0008E6  6E32               	movlw	high highword(normalize32(0x0))
  5044  0008E8  0E00               	movwf	((c:___fladd@a+3)),c
  5045  0008EA  6E33               	goto	l1830
  5046  0008EC  EF78  F004         	line	60
  5047                           	
  5048                           l734:
  5049  0008F0                     	line	62
  5050                           	
  5051                           l1830:
  5052  0008F0                     	bsf	(0+(23/8)+(c:___fladd@a)),c,(23)&7
  5053  0008F0  8E32               	line	64
  5054                           	
  5055                           l1832:
  5056  0008F2                     	movlw	low(0)
  5057  0008F2  0E00               	movwf	(0+((c:___fladd@a)+03h)),c
  5058  0008F4  6E33               	line	65
  5059                           	goto	l1836
  5060  0008F6  EF87  F004         	line	66
  5061                           	
  5062                           l733:
  5063  0008FA                     	line	68
  5064                           	
  5065                           l1834:
  5066  0008FA                     	movlw	low(normalize32(0x0))
  5067  0008FA  0E00               	movwf	((c:___fladd@a)),c
  5068  0008FC  6E30               	movlw	high(normalize32(0x0))
  5069  0008FE  0E00               	movwf	((c:___fladd@a+1)),c
  5070  000900  6E31               	movlw	low highword(normalize32(0x0))
  5071  000902  0E00               	movwf	((c:___fladd@a+2)),c
  5072  000904  6E32               	movlw	high highword(normalize32(0x0))
  5073  000906  0E00               	movwf	((c:___fladd@a+3)),c
  5074  000908  6E33               	goto	l1836
  5075  00090A  EF87  F004         	line	69
  5076                           	
  5077                           l735:
  5078  00090E                     	line	75
  5079                           	
  5080                           l1836:
  5081  00090E                     		movf	((c:___fladd@bexp)),c,w
  5082  00090E  503E               	subwf	((c:___fladd@aexp)),c,w
  5083  000910  5C3D               	btfsc	status,0
  5084  000912  B0D8               	goto	u1071
  5085  000914  EF8E  F004         	goto	u1070
  5086  000918  EF90  F004         
  5087                           u1071:
  5088  00091C                     	goto	l1872
  5089  00091C  EFBB  F004         u1070:
  5090  000920                     	line	77
  5091                           	
  5092                           l1838:
  5093  000920                     	
  5094                           	btfss	((c:___fladd@signs)),c,(6)&7
  5095  000920  AC3C               	goto	u1081
  5096  000922  EF95  F004         	goto	u1080
  5097  000926  EF97  F004         u1081:
  5098  00092A                     	goto	l1842
  5099  00092A  EF9B  F004         u1080:
  5100  00092E                     	line	78
  5101                           	
  5102                           l1840:
  5103  00092E                     	movlw	(080h)&0ffh
  5104  00092E  0E80               	xorwf	((c:___fladd@signs)),c
  5105  000930  1A3C               	goto	l1842
  5106  000932  EF9B  F004         	line	79
  5107                           	
  5108                           l737:
  5109  000936                     	line	81
  5110                           	
  5111                           l1842:
  5112  000936                     	movff	(c:___fladd@bexp),(c:___fladd@grs)
  5113  000936  C03E  F03F         	line	82
  5114                           	
  5115                           l1844:
  5116  00093A                     	movff	(c:___fladd@aexp),(c:___fladd@bexp)
  5117  00093A  C03D  F03E         	line	83
  5118                           	
  5119                           l1846:
  5120  00093E                     	movff	(c:___fladd@grs),(c:___fladd@aexp)
  5121  00093E  C03F  F03D         	line	84
  5122                           	
  5123                           l1848:
  5124  000942                     	movff	(c:___fladd@b),(c:___fladd@grs)
  5125  000942  C02C  F03F         	line	85
  5126                           	
  5127                           l1850:
  5128  000946                     	movff	(c:___fladd@a),(c:___fladd@b)
  5129  000946  C030  F02C         	line	86
  5130                           	
  5131                           l1852:
  5132  00094A                     	movff	(c:___fladd@grs),(c:___fladd@a)
  5133  00094A  C03F  F030         	line	87
  5134                           	
  5135                           l1854:
  5136  00094E                     	movff	0+((c:___fladd@b)+01h),(c:___fladd@grs)
  5137  00094E  C02D  F03F         	line	88
  5138                           	
  5139                           l1856:
  5140  000952                     	movff	0+((c:___fladd@a)+01h),0+((c:___fladd@b)+01h)
  5141  000952  C031  F02D         	line	89
  5142                           	
  5143                           l1858:
  5144  000956                     	movff	(c:___fladd@grs),0+((c:___fladd@a)+01h)
  5145  000956  C03F  F031         	line	90
  5146                           	
  5147                           l1860:
  5148  00095A                     	movff	0+((c:___fladd@b)+02h),(c:___fladd@grs)
  5149  00095A  C02E  F03F         	line	91
  5150                           	
  5151                           l1862:
  5152  00095E                     	movff	0+((c:___fladd@a)+02h),0+((c:___fladd@b)+02h)
  5153  00095E  C032  F02E         	line	92
  5154                           	
  5155                           l1864:
  5156  000962                     	movff	(c:___fladd@grs),0+((c:___fladd@a)+02h)
  5157  000962  C03F  F032         	line	93
  5158                           	
  5159                           l1866:
  5160  000966                     	movff	0+((c:___fladd@b)+03h),(c:___fladd@grs)
  5161  000966  C02F  F03F         	line	94
  5162                           	
  5163                           l1868:
  5164  00096A                     	movff	0+((c:___fladd@a)+03h),0+((c:___fladd@b)+03h)
  5165  00096A  C033  F02F         	line	95
  5166                           	
  5167                           l1870:
  5168  00096E                     	movff	(c:___fladd@grs),0+((c:___fladd@a)+03h)
  5169  00096E  C03F  F033         	goto	l1872
  5170  000972  EFBB  F004         	line	96
  5171                           	
  5172                           l736:
  5173  000976                     	line	98
  5174                           	
  5175                           l1872:
  5176  000976                     	movlw	low(0)
  5177  000976  0E00               	movwf	((c:___fladd@grs)),c
  5178  000978  6E3F               	line	100
  5179                           	
  5180                           l1874:
  5181  00097A                     	movf	((c:___fladd@bexp)),c,w
  5182  00097A  503E               	movwf	(??___fladd+0+0)&0ffh,c
  5183  00097C  6E34               	clrf	(??___fladd+0+0+1)&0ffh,c
  5184  00097E  6A35               
  5185                           	comf	(??___fladd+0+0),c
  5186  000980  1E34               	comf	(??___fladd+0+1),c
  5187  000982  1E35               	infsnz	(??___fladd+0+0),c
  5188  000984  4A34               	incf	(??___fladd+0+1),c
  5189  000986  2A35               	movf	((c:___fladd@aexp)),c,w
  5190  000988  503D               	movwf	(??___fladd+2+0)&0ffh,c
  5191  00098A  6E36               	clrf	(??___fladd+2+0+1)&0ffh,c
  5192  00098C  6A37               
  5193                           	movf	(??___fladd+0+0),c,w
  5194  00098E  5034               	addwf	(??___fladd+2+0),c
  5195  000990  2636               	movf	(??___fladd+0+1),c,w
  5196  000992  5035               	addwfc	(??___fladd+2+1),c
  5197  000994  2237               	btfsc	(??___fladd+2+1),c,7
  5198  000996  BE37               	goto	u1091
  5199  000998  EFD7  F004         	movf	(??___fladd+2+1),c,w
  5200  00099C  5037               	bnz	u1090
  5201  00099E  E109               	movlw	26
  5202  0009A0  0E1A               	subwf	 (??___fladd+2+0),c,w
  5203  0009A2  5C36               	btfss	status,0
  5204  0009A4  A0D8               	goto	u1091
  5205  0009A6  EFD7  F004         	goto	u1090
  5206  0009AA  EFD9  F004         
  5207                           u1091:
  5208  0009AE                     	goto	l740
  5209  0009AE  EF16  F005         u1090:
  5210  0009B2                     	line	101
  5211                           	
  5212                           l1876:
  5213  0009B2                     	movf	((c:___fladd@b)),c,w
  5214  0009B2  502C               iorwf	((c:___fladd@b+1)),c,w
  5215  0009B4  102D               iorwf	((c:___fladd@b+2)),c,w
  5216  0009B6  102E               iorwf	((c:___fladd@b+3)),c,w
  5217  0009B8  102F               	btfss	status,2
  5218  0009BA  A4D8               	goto	u1101
  5219  0009BC  EFE2  F004         	goto	u1100
  5220  0009C0  EFE5  F004         
  5221                           u1101:
  5222  0009C4                     	movlw	1
  5223  0009C4  0E01               	goto	u1110
  5224  0009C6  EFE6  F004         u1100:
  5225  0009CA                     	movlw	0
  5226  0009CA  0E00               u1110:
  5227  0009CC                     	movwf	((c:___fladd@grs)),c
  5228  0009CC  6E3F               	line	102
  5229                           	
  5230                           l1878:
  5231  0009CE                     	movlw	low(0)
  5232  0009CE  0E00               	movwf	((c:___fladd@b)),c
  5233  0009D0  6E2C               	movlw	high(0)
  5234  0009D2  0E00               	movwf	((c:___fladd@b+1)),c
  5235  0009D4  6E2D               	movlw	low highword(0)
  5236  0009D6  0E00               	movwf	((c:___fladd@b+2)),c
  5237  0009D8  6E2E               	movlw	high highword(0)
  5238  0009DA  0E00               	movwf	((c:___fladd@b+3)),c
  5239  0009DC  6E2F               	line	103
  5240                           	
  5241                           l1880:
  5242  0009DE                     	movff	(c:___fladd@aexp),(c:___fladd@bexp)
  5243  0009DE  C03D  F03E         	line	104
  5244                           	goto	l739
  5245  0009E2  EF21  F005         	line	105
  5246                           	
  5247                           l738:
  5248  0009E6                     	line	106
  5249                           	goto	l740
  5250  0009E6  EF16  F005         	
  5251                           l741:
  5252  0009EA                     	line	109
  5253                           	
  5254                           	btfss	((c:___fladd@grs)),c,(0)&7
  5255  0009EA  A03F               	goto	u1121
  5256  0009EC  EFFA  F004         	goto	u1120
  5257  0009F0  EFFC  F004         u1121:
  5258  0009F4                     	goto	l1884
  5259  0009F4  EF02  F005         u1120:
  5260  0009F8                     	line	110
  5261                           	
  5262                           l1882:
  5263  0009F8                     	bcf	status,0
  5264  0009F8  90D8               	rrcf	((c:___fladd@grs)),c,w
  5265  0009FA  303F               	iorlw	low(01h)
  5266  0009FC  0901               	movwf	((c:___fladd@grs)),c
  5267  0009FE  6E3F               	line	111
  5268                           	goto	l1886
  5269  000A00  EF06  F005         	line	112
  5270                           	
  5271                           l742:
  5272  000A04                     	line	113
  5273                           	
  5274                           l1884:
  5275  000A04                     	bcf status,0
  5276  000A04  90D8               	rrcf	((c:___fladd@grs)),c
  5277  000A06  323F               
  5278                           	goto	l1886
  5279  000A08  EF06  F005         	line	114
  5280                           	
  5281                           l743:
  5282  000A0C                     	line	115
  5283                           	
  5284                           l1886:
  5285  000A0C                     	
  5286                           	btfss	((c:___fladd@b)),c,(0)&7
  5287  000A0C  A02C               	goto	u1131
  5288  000A0E  EF0B  F005         	goto	u1130
  5289  000A12  EF0D  F005         u1131:
  5290  000A16                     	goto	l1890
  5291  000A16  EF10  F005         u1130:
  5292  000A1A                     	line	116
  5293                           	
  5294                           l1888:
  5295  000A1A                     	bsf	(0+(7/8)+(c:___fladd@grs)),c,(7)&7
  5296  000A1A  8E3F               	goto	l1890
  5297  000A1C  EF10  F005         	line	117
  5298                           	
  5299                           l744:
  5300  000A20                     	line	118
  5301                           	
  5302                           l1890:
  5303  000A20                     	rlcf	((c:___fladd@b+3)),c,w
  5304  000A20  342F               	rrcf	((c:___fladd@b+3)),c
  5305  000A22  322F               	rrcf	((c:___fladd@b+2)),c
  5306  000A24  322E               	rrcf	((c:___fladd@b+1)),c
  5307  000A26  322D               	rrcf	((c:___fladd@b)),c
  5308  000A28  322C               	line	119
  5309                           	
  5310                           l1892:
  5311  000A2A                     	incf	((c:___fladd@bexp)),c
  5312  000A2A  2A3E               	line	120
  5313                           	
  5314                           l740:
  5315  000A2C                     	line	106
  5316                           		movf	((c:___fladd@aexp)),c,w
  5317  000A2C  503D               	subwf	((c:___fladd@bexp)),c,w
  5318  000A2E  5C3E               	btfss	status,0
  5319  000A30  A0D8               	goto	u1141
  5320  000A32  EF1D  F005         	goto	u1140
  5321  000A36  EF1F  F005         
  5322                           u1141:
  5323  000A3A                     	goto	l741
  5324  000A3A  EFF5  F004         u1140:
  5325  000A3E                     	goto	l739
  5326  000A3E  EF21  F005         	
  5327                           l745:
  5328  000A42                     	line	121
  5329                           	
  5330                           l739:
  5331  000A42                     	line	124
  5332                           	
  5333                           	btfsc	((c:___fladd@signs)),c,(6)&7
  5334  000A42  BC3C               	goto	u1151
  5335  000A44  EF26  F005         	goto	u1150
  5336  000A48  EF28  F005         u1151:
  5337  000A4C                     	goto	l1918
  5338  000A4C  EF70  F005         u1150:
  5339  000A50                     	line	127
  5340                           	
  5341                           l1894:
  5342  000A50                     	movf	((c:___fladd@bexp)),c,w
  5343  000A50  503E               	btfss	status,2
  5344  000A52  A4D8               	goto	u1161
  5345  000A54  EF2E  F005         	goto	u1160
  5346  000A58  EF30  F005         u1161:
  5347  000A5C                     	goto	l1900
  5348  000A5C  EF3C  F005         u1160:
  5349  000A60                     	line	128
  5350                           	
  5351                           l1896:
  5352  000A60                     	movlw	low(normalize32(0x0))
  5353  000A60  0E00               	movwf	((c:?___fladd)),c
  5354  000A62  6E2C               	movlw	high(normalize32(0x0))
  5355  000A64  0E00               	movwf	((c:?___fladd+1)),c
  5356  000A66  6E2D               	movlw	low highword(normalize32(0x0))
  5357  000A68  0E00               	movwf	((c:?___fladd+2)),c
  5358  000A6A  6E2E               	movlw	high highword(normalize32(0x0))
  5359  000A6C  0E00               	movwf	((c:?___fladd+3)),c
  5360  000A6E  6E2F               	goto	l748
  5361  000A70  EFCA  F006         	
  5362                           l1898:
  5363  000A74                     	goto	l748
  5364  000A74  EFCA  F006         	line	129
  5365                           	
  5366                           l747:
  5367  000A78                     	line	132
  5368                           	
  5369                           l1900:
  5370  000A78                     	movf	((c:___fladd@a)),c,w
  5371  000A78  5030               	addwf	((c:___fladd@b)),c
  5372  000A7A  262C               	movf	((c:___fladd@a+1)),c,w
  5373  000A7C  5031               	addwfc	((c:___fladd@b+1)),c
  5374  000A7E  222D               	movf	((c:___fladd@a+2)),c,w
  5375  000A80  5032               	addwfc	((c:___fladd@b+2)),c
  5376  000A82  222E               	movf	((c:___fladd@a+3)),c,w
  5377  000A84  5033               	addwfc	((c:___fladd@b+3)),c
  5378  000A86  222F               	line	134
  5379                           	
  5380                           l1902:
  5381  000A88                     	
  5382                           	btfss	((c:___fladd@b+3)),c,(24)&7
  5383  000A88  A02F               	goto	u1171
  5384  000A8A  EF49  F005         	goto	u1170
  5385  000A8E  EF4B  F005         u1171:
  5386  000A92                     	goto	l1954
  5387  000A92  EF20  F006         u1170:
  5388  000A96                     	line	135
  5389                           	
  5390                           l1904:
  5391  000A96                     	
  5392                           	btfss	((c:___fladd@grs)),c,(0)&7
  5393  000A96  A03F               	goto	u1181
  5394  000A98  EF50  F005         	goto	u1180
  5395  000A9C  EF52  F005         u1181:
  5396  000AA0                     	goto	l1908
  5397  000AA0  EF58  F005         u1180:
  5398  000AA4                     	line	136
  5399                           	
  5400                           l1906:
  5401  000AA4                     	bcf	status,0
  5402  000AA4  90D8               	rrcf	((c:___fladd@grs)),c,w
  5403  000AA6  303F               	iorlw	low(01h)
  5404  000AA8  0901               	movwf	((c:___fladd@grs)),c
  5405  000AAA  6E3F               	line	137
  5406                           	goto	l1910
  5407  000AAC  EF5C  F005         	line	138
  5408                           	
  5409                           l750:
  5410  000AB0                     	line	139
  5411                           	
  5412                           l1908:
  5413  000AB0                     	bcf status,0
  5414  000AB0  90D8               	rrcf	((c:___fladd@grs)),c
  5415  000AB2  323F               
  5416                           	goto	l1910
  5417  000AB4  EF5C  F005         	line	140
  5418                           	
  5419                           l751:
  5420  000AB8                     	line	141
  5421                           	
  5422                           l1910:
  5423  000AB8                     	
  5424                           	btfss	((c:___fladd@b)),c,(0)&7
  5425  000AB8  A02C               	goto	u1191
  5426  000ABA  EF61  F005         	goto	u1190
  5427  000ABE  EF63  F005         u1191:
  5428  000AC2                     	goto	l1914
  5429  000AC2  EF66  F005         u1190:
  5430  000AC6                     	line	142
  5431                           	
  5432                           l1912:
  5433  000AC6                     	bsf	(0+(7/8)+(c:___fladd@grs)),c,(7)&7
  5434  000AC6  8E3F               	goto	l1914
  5435  000AC8  EF66  F005         	line	143
  5436                           	
  5437                           l752:
  5438  000ACC                     	line	144
  5439                           	
  5440                           l1914:
  5441  000ACC                     	rlcf	((c:___fladd@b+3)),c,w
  5442  000ACC  342F               	rrcf	((c:___fladd@b+3)),c
  5443  000ACE  322F               	rrcf	((c:___fladd@b+2)),c
  5444  000AD0  322E               	rrcf	((c:___fladd@b+1)),c
  5445  000AD2  322D               	rrcf	((c:___fladd@b)),c
  5446  000AD4  322C               	line	145
  5447                           	
  5448                           l1916:
  5449  000AD6                     	incf	((c:___fladd@bexp)),c
  5450  000AD6  2A3E               	goto	l1954
  5451  000AD8  EF20  F006         	line	146
  5452                           	
  5453                           l749:
  5454  000ADC                     	line	148
  5455                           	goto	l1954
  5456  000ADC  EF20  F006         	line	149
  5457                           	
  5458                           l746:
  5459  000AE0                     	line	153
  5460                           	
  5461                           l1918:
  5462  000AE0                     		movf	((c:___fladd@a)),c,w
  5463  000AE0  5030               	subwf	((c:___fladd@b)),c,w
  5464  000AE2  5C2C               	movf	((c:___fladd@a+1)),c,w
  5465  000AE4  5031               	subwfb	((c:___fladd@b+1)),c,w
  5466  000AE6  582D               	movf	((c:___fladd@a+2)),c,w
  5467  000AE8  5032               	subwfb	((c:___fladd@b+2)),c,w
  5468  000AEA  582E               	movf	((c:___fladd@b+3)),c,w
  5469  000AEC  502F               	xorlw	80h
  5470  000AEE  0A80               	movwf	(??___fladd+0+0)&0ffh,c
  5471  000AF0  6E34               	movf	((c:___fladd@a+3)),c,w
  5472  000AF2  5033               	xorlw	80h
  5473  000AF4  0A80               	subwfb	(??___fladd+0+0)&0ffh,c,w
  5474  000AF6  5834               	btfsc	status,0
  5475  000AF8  B0D8               	goto	u1201
  5476  000AFA  EF81  F005         	goto	u1200
  5477  000AFE  EF83  F005         
  5478                           u1201:
  5479  000B02                     	goto	l1928
  5480  000B02  EFC1  F005         u1200:
  5481  000B06                     	line	154
  5482                           	
  5483                           l1920:
  5484  000B06                     	movff	(c:___fladd@b),??___fladd+0+0
  5485  000B06  C02C  F034         	movff	(c:___fladd@b+1),??___fladd+0+0+1
  5486  000B0A  C02D  F035         	movff	(c:___fladd@b+2),??___fladd+0+0+2
  5487  000B0E  C02E  F036         	movff	(c:___fladd@b+3),??___fladd+0+0+3
  5488  000B12  C02F  F037         	comf	(??___fladd+0+0),c
  5489  000B16  1E34               	comf	(??___fladd+0+1),c
  5490  000B18  1E35               	comf	(??___fladd+0+2),c
  5491  000B1A  1E36               	comf	(??___fladd+0+3),c
  5492  000B1C  1E37               	incf	(??___fladd+0+0),c
  5493  000B1E  2A34               	movlw	0
  5494  000B20  0E00               	addwfc	(??___fladd+0+1),c
  5495  000B22  2235               	addwfc	(??___fladd+0+2),c
  5496  000B24  2236               	addwfc	(??___fladd+0+3),c
  5497  000B26  2237               	movf	((c:___fladd@a)),c,w
  5498  000B28  5030               	addwf	(??___fladd+0+0),c,w
  5499  000B2A  2434               	movwf	(??___fladd+4+0)&0ffh,c
  5500  000B2C  6E38               	movf	((c:___fladd@a+1)),c,w
  5501  000B2E  5031               	addwfc	(??___fladd+0+1),c,w
  5502  000B30  2035               	movwf	1+(??___fladd+4+0)&0ffh,c
  5503  000B32  6E39               	
  5504                           	movf	((c:___fladd@a+2)),c,w
  5505  000B34  5032               	addwfc	(??___fladd+0+2),c,w
  5506  000B36  2036               	movwf	2+(??___fladd+4+0)&0ffh,c
  5507  000B38  6E3A               	
  5508                           	movf	((c:___fladd@a+3)),c,w
  5509  000B3A  5033               	addwfc	(??___fladd+0+3),c,w
  5510  000B3C  2037               	movwf	3+(??___fladd+4+0)&0ffh,c
  5511  000B3E  6E3B               	movlw	0FFh
  5512  000B40  0EFF               	addwf	(??___fladd+4+0),c,w
  5513  000B42  2438               	movwf	((c:___fladd@b)),c
  5514  000B44  6E2C               	movlw	0FFh
  5515  000B46  0EFF               	addwfc	(??___fladd+4+1),c,w
  5516  000B48  2039               	movwf	1+((c:___fladd@b)),c
  5517  000B4A  6E2D               	
  5518                           	movlw	0FFh
  5519  000B4C  0EFF               	addwfc	(??___fladd+4+2),c,w
  5520  000B4E  203A               	movwf	2+((c:___fladd@b)),c
  5521  000B50  6E2E               	
  5522                           	movlw	0FFh
  5523  000B52  0EFF               	addwfc	(??___fladd+4+3),c,w
  5524  000B54  203B               	movwf	3+((c:___fladd@b)),c
  5525  000B56  6E2F               	line	155
  5526                           	movlw	(080h)&0ffh
  5527  000B58  0E80               	xorwf	((c:___fladd@signs)),c
  5528  000B5A  1A3C               	line	156
  5529                           	
  5530                           l1922:
  5531  000B5C                     	negf	((c:___fladd@grs)),c
  5532  000B5C  6C3F               	line	157
  5533                           	
  5534                           l1924:
  5535  000B5E                     	movf	((c:___fladd@grs)),c,w
  5536  000B5E  503F               	btfss	status,2
  5537  000B60  A4D8               	goto	u1211
  5538  000B62  EFB5  F005         	goto	u1210
  5539  000B66  EFB7  F005         u1211:
  5540  000B6A                     	goto	l756
  5541  000B6A  EFC9  F005         u1210:
  5542  000B6E                     	line	158
  5543                           	
  5544                           l1926:
  5545  000B6E                     	movlw	low(01h)
  5546  000B6E  0E01               	addwf	((c:___fladd@b)),c
  5547  000B70  262C               	movlw	0
  5548  000B72  0E00               	addwfc	((c:___fladd@b+1)),c
  5549  000B74  222D               	addwfc	((c:___fladd@b+2)),c
  5550  000B76  222E               	addwfc	((c:___fladd@b+3)),c
  5551  000B78  222F               	goto	l756
  5552  000B7A  EFC9  F005         	line	159
  5553                           	
  5554                           l755:
  5555  000B7E                     	line	160
  5556                           	goto	l756
  5557  000B7E  EFC9  F005         	line	161
  5558                           	
  5559                           l754:
  5560  000B82                     	line	162
  5561                           	
  5562                           l1928:
  5563  000B82                     	movf	((c:___fladd@a)),c,w
  5564  000B82  5030               	subwf	((c:___fladd@b)),c
  5565  000B84  5E2C               	movf	((c:___fladd@a+1)),c,w
  5566  000B86  5031               	subwfb	((c:___fladd@b+1)),c
  5567  000B88  5A2D               	movf	((c:___fladd@a+2)),c,w
  5568  000B8A  5032               	subwfb	((c:___fladd@b+2)),c
  5569  000B8C  5A2E               	movf	((c:___fladd@a+3)),c,w
  5570  000B8E  5033               	subwfb	((c:___fladd@b+3)),c
  5571  000B90  5A2F               	line	163
  5572                           	
  5573                           l756:
  5574  000B92                     	line	166
  5575                           	movf	((c:___fladd@b)),c,w
  5576  000B92  502C               iorwf	((c:___fladd@b+1)),c,w
  5577  000B94  102D               iorwf	((c:___fladd@b+2)),c,w
  5578  000B96  102E               iorwf	((c:___fladd@b+3)),c,w
  5579  000B98  102F               	btfss	status,2
  5580  000B9A  A4D8               	goto	u1221
  5581  000B9C  EFD2  F005         	goto	u1220
  5582  000BA0  EFD4  F005         
  5583                           u1221:
  5584  000BA4                     	goto	l1952
  5585  000BA4  EF15  F006         u1220:
  5586  000BA8                     	
  5587                           l1930:
  5588  000BA8                     	movf	((c:___fladd@grs)),c,w
  5589  000BA8  503F               	btfss	status,2
  5590  000BAA  A4D8               	goto	u1231
  5591  000BAC  EFDA  F005         	goto	u1230
  5592  000BB0  EFDC  F005         u1231:
  5593  000BB4                     	goto	l1952
  5594  000BB4  EF15  F006         u1230:
  5595  000BB8                     	line	167
  5596                           	
  5597                           l1932:
  5598  000BB8                     	movlw	low(normalize32(0x0))
  5599  000BB8  0E00               	movwf	((c:?___fladd)),c
  5600  000BBA  6E2C               	movlw	high(normalize32(0x0))
  5601  000BBC  0E00               	movwf	((c:?___fladd+1)),c
  5602  000BBE  6E2D               	movlw	low highword(normalize32(0x0))
  5603  000BC0  0E00               	movwf	((c:?___fladd+2)),c
  5604  000BC2  6E2E               	movlw	high highword(normalize32(0x0))
  5605  000BC4  0E00               	movwf	((c:?___fladd+3)),c
  5606  000BC6  6E2F               	goto	l748
  5607  000BC8  EFCA  F006         	
  5608                           l1934:
  5609  000BCC                     	goto	l748
  5610  000BCC  EFCA  F006         	line	168
  5611                           	
  5612                           l757:
  5613  000BD0                     	line	171
  5614                           	goto	l1952
  5615  000BD0  EF15  F006         	
  5616                           l759:
  5617  000BD4                     	line	172
  5618                           	
  5619                           l1936:
  5620  000BD4                     	bcf	status,0
  5621  000BD4  90D8               	rlcf	((c:___fladd@b)),c
  5622  000BD6  362C               	rlcf	((c:___fladd@b+1)),c
  5623  000BD8  362D               	rlcf	((c:___fladd@b+2)),c
  5624  000BDA  362E               	rlcf	((c:___fladd@b+3)),c
  5625  000BDC  362F               	line	173
  5626                           	
  5627                           l1938:
  5628  000BDE                     	
  5629                           	btfss	((c:___fladd@grs)),c,(7)&7
  5630  000BDE  AE3F               	goto	u1241
  5631  000BE0  EFF4  F005         	goto	u1240
  5632  000BE4  EFF6  F005         u1241:
  5633  000BE8                     	goto	l1942
  5634  000BE8  EFF9  F005         u1240:
  5635  000BEC                     	line	174
  5636                           	
  5637                           l1940:
  5638  000BEC                     	bsf	(0+(0/8)+(c:___fladd@b)),c,(0)&7
  5639  000BEC  802C               	goto	l1942
  5640  000BEE  EFF9  F005         	line	175
  5641                           	
  5642                           l760:
  5643  000BF2                     	line	176
  5644                           	
  5645                           l1942:
  5646  000BF2                     	
  5647                           	btfss	((c:___fladd@grs)),c,(0)&7
  5648  000BF2  A03F               	goto	u1251
  5649  000BF4  EFFE  F005         	goto	u1250
  5650  000BF8  EF00  F006         u1251:
  5651  000BFC                     	goto	l1946
  5652  000BFC  EF04  F006         u1250:
  5653  000C00                     	line	177
  5654                           	
  5655                           l1944:
  5656  000C00                     	bsf	status,0
  5657  000C00  80D8               	
  5658                           	rlcf	((c:___fladd@grs)),c
  5659  000C02  363F               	line	178
  5660                           	goto	l1948
  5661  000C04  EF08  F006         	line	179
  5662                           	
  5663                           l761:
  5664  000C08                     	line	180
  5665                           	
  5666                           l1946:
  5667  000C08                     	bcf status,0
  5668  000C08  90D8               	rlcf	((c:___fladd@grs)),c
  5669  000C0A  363F               
  5670                           	goto	l1948
  5671  000C0C  EF08  F006         	line	181
  5672                           	
  5673                           l762:
  5674  000C10                     	line	182
  5675                           	
  5676                           l1948:
  5677  000C10                     	movf	((c:___fladd@bexp)),c,w
  5678  000C10  503E               	btfsc	status,2
  5679  000C12  B4D8               	goto	u1261
  5680  000C14  EF0E  F006         	goto	u1260
  5681  000C18  EF10  F006         u1261:
  5682  000C1C                     	goto	l1952
  5683  000C1C  EF15  F006         u1260:
  5684  000C20                     	line	183
  5685                           	
  5686                           l1950:
  5687  000C20                     	decf	((c:___fladd@bexp)),c
  5688  000C20  063E               	goto	l1952
  5689  000C22  EF15  F006         	line	184
  5690                           	
  5691                           l763:
  5692  000C26                     	goto	l1952
  5693  000C26  EF15  F006         	line	185
  5694                           	
  5695                           l758:
  5696  000C2A                     	line	171
  5697                           	
  5698                           l1952:
  5699  000C2A                     	
  5700                           	btfss	((c:___fladd@b+2)),c,(23)&7
  5701  000C2A  AE2E               	goto	u1271
  5702  000C2C  EF1A  F006         	goto	u1270
  5703  000C30  EF1C  F006         u1271:
  5704  000C34                     	goto	l1936
  5705  000C34  EFEA  F005         u1270:
  5706  000C38                     	goto	l1954
  5707  000C38  EF20  F006         	
  5708                           l764:
  5709  000C3C                     	goto	l1954
  5710  000C3C  EF20  F006         	line	186
  5711                           	
  5712                           l753:
  5713  000C40                     	line	192
  5714                           	
  5715                           l1954:
  5716  000C40                     	movlw	low(0)
  5717  000C40  0E00               	movwf	((c:___fladd@aexp)),c
  5718  000C42  6E3D               	line	193
  5719                           	
  5720                           l1956:
  5721  000C44                     	
  5722                           	btfss	((c:___fladd@grs)),c,(7)&7
  5723  000C44  AE3F               	goto	u1281
  5724  000C46  EF27  F006         	goto	u1280
  5725  000C4A  EF29  F006         u1281:
  5726  000C4E                     	goto	l765
  5727  000C4E  EF45  F006         u1280:
  5728  000C52                     	line	194
  5729                           	
  5730                           l1958:
  5731  000C52                     	movff	(c:___fladd@grs),??___fladd+0+0
  5732  000C52  C03F  F034         	movlw	07Fh
  5733  000C56  0E7F               	andwf	(??___fladd+0+0),c
  5734  000C58  1634               	btfsc	status,2
  5735  000C5A  B4D8               	goto	u1291
  5736  000C5C  EF32  F006         	goto	u1290
  5737  000C60  EF34  F006         u1291:
  5738  000C64                     	goto	l766
  5739  000C64  EF38  F006         u1290:
  5740  000C68                     	line	195
  5741                           	
  5742                           l1960:
  5743  000C68                     	movlw	low(01h)
  5744  000C68  0E01               	movwf	((c:___fladd@aexp)),c
  5745  000C6A  6E3D               	line	196
  5746                           	goto	l765
  5747  000C6C  EF45  F006         	line	197
  5748                           	
  5749                           l766:
  5750  000C70                     	line	198
  5751                           	
  5752                           	btfss	((c:___fladd@b)),c,(0)&7
  5753  000C70  A02C               	goto	u1301
  5754  000C72  EF3D  F006         	goto	u1300
  5755  000C76  EF3F  F006         u1301:
  5756  000C7A                     	goto	l765
  5757  000C7A  EF45  F006         u1300:
  5758  000C7E                     	line	199
  5759                           	
  5760                           l1962:
  5761  000C7E                     	movlw	low(01h)
  5762  000C7E  0E01               	movwf	((c:___fladd@aexp)),c
  5763  000C80  6E3D               	goto	l765
  5764  000C82  EF45  F006         	line	200
  5765                           	
  5766                           l768:
  5767  000C86                     	goto	l765
  5768  000C86  EF45  F006         	line	201
  5769                           	
  5770                           l767:
  5771  000C8A                     	line	202
  5772                           	
  5773                           l765:
  5774  000C8A                     	line	203
  5775                           	movf	((c:___fladd@aexp)),c,w
  5776  000C8A  503D               	btfsc	status,2
  5777  000C8C  B4D8               	goto	u1311
  5778  000C8E  EF4B  F006         	goto	u1310
  5779  000C92  EF4D  F006         u1311:
  5780  000C96                     	goto	l1972
  5781  000C96  EF7E  F006         u1310:
  5782  000C9A                     	line	204
  5783                           	
  5784                           l1964:
  5785  000C9A                     	movlw	low(01h)
  5786  000C9A  0E01               	addwf	((c:___fladd@b)),c
  5787  000C9C  262C               	movlw	0
  5788  000C9E  0E00               	addwfc	((c:___fladd@b+1)),c
  5789  000CA0  222D               	addwfc	((c:___fladd@b+2)),c
  5790  000CA2  222E               	addwfc	((c:___fladd@b+3)),c
  5791  000CA4  222F               	line	205
  5792                           	
  5793                           l1966:
  5794  000CA6                     	
  5795                           	btfss	((c:___fladd@b+3)),c,(24)&7
  5796  000CA6  A02F               	goto	u1321
  5797  000CA8  EF58  F006         	goto	u1320
  5798  000CAC  EF5A  F006         u1321:
  5799  000CB0                     	goto	l1972
  5800  000CB0  EF7E  F006         u1320:
  5801  000CB4                     	line	206
  5802                           	
  5803                           l1968:
  5804  000CB4                     	movff	(c:___fladd@b),??___fladd+0+0
  5805  000CB4  C02C  F034         	movff	(c:___fladd@b+1),??___fladd+0+0+1
  5806  000CB8  C02D  F035         	movff	(c:___fladd@b+2),??___fladd+0+0+2
  5807  000CBC  C02E  F036         	movff	(c:___fladd@b+3),??___fladd+0+0+3
  5808  000CC0  C02F  F037         	rlcf	(??___fladd+0+3),c,w
  5809  000CC4  3437               	rrcf	(??___fladd+0+3),c
  5810  000CC6  3237               	rrcf	(??___fladd+0+2),c
  5811  000CC8  3236               	rrcf	(??___fladd+0+1),c
  5812  000CCA  3235               	rrcf	(??___fladd+0+0),c
  5813  000CCC  3234               	movff	??___fladd+0+0,(c:___fladd@b)
  5814  000CCE  C034  F02C         	movff	??___fladd+0+1,(c:___fladd@b+1)
  5815  000CD2  C035  F02D         	movff	??___fladd+0+2,(c:___fladd@b+2)
  5816  000CD6  C036  F02E         	movff	??___fladd+0+3,(c:___fladd@b+3)
  5817  000CDA  C037  F02F         	line	207
  5818                           		incf	((c:___fladd@bexp)),c,w
  5819  000CDE  283E               	btfsc	status,2
  5820  000CE0  B4D8               	goto	u1331
  5821  000CE2  EF75  F006         	goto	u1330
  5822  000CE6  EF77  F006         
  5823                           u1331:
  5824  000CEA                     	goto	l1972
  5825  000CEA  EF7E  F006         u1330:
  5826  000CEE                     	line	208
  5827                           	
  5828                           l1970:
  5829  000CEE                     	incf	((c:___fladd@bexp)),c
  5830  000CEE  2A3E               	goto	l1972
  5831  000CF0  EF7E  F006         	line	209
  5832                           	
  5833                           l771:
  5834  000CF4                     	goto	l1972
  5835  000CF4  EF7E  F006         	line	210
  5836                           	
  5837                           l770:
  5838  000CF8                     	goto	l1972
  5839  000CF8  EF7E  F006         	line	211
  5840                           	
  5841                           l769:
  5842  000CFC                     	line	215
  5843                           	
  5844                           l1972:
  5845  000CFC                     		incf	((c:___fladd@bexp)),c,w
  5846  000CFC  283E               	btfsc	status,2
  5847  000CFE  B4D8               	goto	u1341
  5848  000D00  EF84  F006         	goto	u1340
  5849  000D04  EF86  F006         
  5850                           u1341:
  5851  000D08                     	goto	l1976
  5852  000D08  EF90  F006         u1340:
  5853  000D0C                     	
  5854                           l1974:
  5855  000D0C                     	movf	((c:___fladd@bexp)),c,w
  5856  000D0C  503E               	btfss	status,2
  5857  000D0E  A4D8               	goto	u1351
  5858  000D10  EF8C  F006         	goto	u1350
  5859  000D14  EF8E  F006         u1351:
  5860  000D18                     	goto	l1980
  5861  000D18  EFA6  F006         u1350:
  5862  000D1C                     	goto	l1976
  5863  000D1C  EF90  F006         	
  5864                           l774:
  5865  000D20                     	line	216
  5866                           	
  5867                           l1976:
  5868  000D20                     	movlw	low(0)
  5869  000D20  0E00               	movwf	((c:___fladd@b)),c
  5870  000D22  6E2C               	movlw	high(0)
  5871  000D24  0E00               	movwf	((c:___fladd@b+1)),c
  5872  000D26  6E2D               	movlw	low highword(0)
  5873  000D28  0E00               	movwf	((c:___fladd@b+2)),c
  5874  000D2A  6E2E               	movlw	high highword(0)
  5875  000D2C  0E00               	movwf	((c:___fladd@b+3)),c
  5876  000D2E  6E2F               	line	218
  5877                           	movf	((c:___fladd@bexp)),c,w
  5878  000D30  503E               	btfss	status,2
  5879  000D32  A4D8               	goto	u1361
  5880  000D34  EF9E  F006         	goto	u1360
  5881  000D38  EFA0  F006         u1361:
  5882  000D3C                     	goto	l1980
  5883  000D3C  EFA6  F006         u1360:
  5884  000D40                     	line	219
  5885                           	
  5886                           l1978:
  5887  000D40                     	movlw	low(0)
  5888  000D40  0E00               	movwf	((c:___fladd@signs)),c
  5889  000D42  6E3C               	goto	l1980
  5890  000D44  EFA6  F006         	line	220
  5891                           	
  5892                           l775:
  5893  000D48                     	goto	l1980
  5894  000D48  EFA6  F006         	line	221
  5895                           	
  5896                           l772:
  5897  000D4C                     	line	225
  5898                           	
  5899                           l1980:
  5900  000D4C                     	
  5901                           	btfss	((c:___fladd@bexp)),c,(0)&7
  5902  000D4C  A03E               	goto	u1371
  5903  000D4E  EFAB  F006         	goto	u1370
  5904  000D52  EFAD  F006         u1371:
  5905  000D56                     	goto	l1984
  5906  000D56  EFB0  F006         u1370:
  5907  000D5A                     	line	226
  5908                           	
  5909                           l1982:
  5910  000D5A                     	bsf	(0+(7/8)+0+((c:___fladd@b)+02h)),c,(7)&7
  5911  000D5A  8E2E               	line	227
  5912                           	goto	l1986
  5913  000D5C  EFB3  F006         	line	229
  5914                           	
  5915                           l776:
  5916  000D60                     	line	230
  5917                           	
  5918                           l1984:
  5919  000D60                     	bcf	(0+(7/8)+0+((c:___fladd@b)+02h)),c,(7)&7
  5920  000D60  9E2E               	goto	l1986
  5921  000D62  EFB3  F006         	line	231
  5922                           	
  5923                           l777:
  5924  000D66                     	line	232
  5925                           	
  5926                           l1986:
  5927  000D66                     	bcf	status,0
  5928  000D66  90D8               	rrcf	((c:___fladd@bexp)),c,w
  5929  000D68  303E               	movwf	(0+((c:___fladd@b)+03h)),c
  5930  000D6A  6E2F               	line	233
  5931                           	
  5932                           l1988:
  5933  000D6C                     	
  5934                           	btfss	((c:___fladd@signs)),c,(7)&7
  5935  000D6C  AE3C               	goto	u1381
  5936  000D6E  EFBB  F006         	goto	u1380
  5937  000D72  EFBD  F006         u1381:
  5938  000D76                     	goto	l1992
  5939  000D76  EFC0  F006         u1380:
  5940  000D7A                     	line	234
  5941                           	
  5942                           l1990:
  5943  000D7A                     	bsf	(0+(7/8)+0+((c:___fladd@b)+03h)),c,(7)&7
  5944  000D7A  8E2F               	goto	l1992
  5945  000D7C  EFC0  F006         	line	235
  5946                           	
  5947                           l778:
  5948  000D80                     	line	236
  5949                           	
  5950                           l1992:
  5951  000D80                     	movff	(c:___fladd@b),(c:?___fladd)
  5952  000D80  C02C  F02C         	movff	(c:___fladd@b+1),(c:?___fladd+1)
  5953  000D84  C02D  F02D         	movff	(c:___fladd@b+2),(c:?___fladd+2)
  5954  000D88  C02E  F02E         	movff	(c:___fladd@b+3),(c:?___fladd+3)
  5955  000D8C  C02F  F02F         	goto	l748
  5956  000D90  EFCA  F006         	
  5957                           l1994:
  5958  000D94                     	line	237
  5959                           	
  5960                           l748:
  5961  000D94                     	return	;funcret
  5962  000D94  0012               	opt stack 0
  5963                           GLOBAL	__end_of___fladd
  5964                           	__end_of___fladd:
  5965  000D96                     	signat	___fladd,8316
  5966                           	global	___awdiv
  5967                           
  5968 ;; *************** function ___awdiv *****************
  5969 ;; Defined at:
  5970 ;;		line 7 in file "C:\Program Files (x86)\Microchip\xc8\v2.00\pic\sources\c99\common\awdiv.c"
  5971 ;; Parameters:    Size  Location     Type
  5972 ;;  dividend        2    0[COMRAM] int 
  5973 ;;  divisor         2    2[COMRAM] int 
  5974 ;; Auto vars:     Size  Location     Type
  5975 ;;  quotient        2    6[COMRAM] int 
  5976 ;;  sign            1    5[COMRAM] unsigned char 
  5977 ;;  counter         1    4[COMRAM] unsigned char 
  5978 ;; Return value:  Size  Location     Type
  5979 ;;                  2    0[COMRAM] int 
  5980 ;; Registers used:
  5981 ;;		wreg, status,2, status,0
  5982 ;; Tracked objects:
  5983 ;;		On entry : 0/0
  5984 ;;		On exit  : 0/0
  5985 ;;		Unchanged: 0/0
  5986 ;; Data sizes:     COMRAM   BANK0   BANK1   BANK2   BANK3   BANK4   BANK5   BANK6   BANK7
  5987 ;;      Params:         4       0       0       0       0       0       0       0       0
  5988 ;;      Locals:         4       0       0       0       0       0       0       0       0
  5989 ;;      Temps:          0       0       0       0       0       0       0       0       0
  5990 ;;      Totals:         8       0       0       0       0       0       0       0       0
  5991 ;;Total ram usage:        8 bytes
  5992 ;; Hardware stack levels used:    1
  5993 ;; Hardware stack levels required when called:    1
  5994 ;; This function calls:
  5995 ;;		Nothing
  5996 ;; This function is called by:
  5997 ;;		_conviertemon
  5998 ;;		_calculon
  5999 ;;		_calculon2
  6000 ;; This function uses a non-reentrant model
  6001 ;;
  6002                           psect	text11,class=CODE,space=0,reloc=2,group=1
  6003                           	file	"C:\Program Files (x86)\Microchip\xc8\v2.00\pic\sources\c99\common\awdiv.c"
  6004                           	line	7
  6005                           global __ptext11
  6006                           __ptext11:
  6007  001C40                     psect	text11
  6008                           	file	"C:\Program Files (x86)\Microchip\xc8\v2.00\pic\sources\c99\common\awdiv.c"
  6009                           	line	7
  6010                           	global	__size_of___awdiv
  6011                           	__size_of___awdiv	equ	__end_of___awdiv-___awdiv
  6012  0000                     	
  6013                           ___awdiv:
  6014  001C40                     ;incstack = 0
  6015                           	opt	stack 28
  6016                           	line	13
  6017                           	
  6018                           l2126:
  6019  001C40                     	movlw	low(0)
  6020  001C40  0E00               	movwf	((c:___awdiv@sign)),c
  6021  001C42  6E06               	line	14
  6022                           	
  6023                           l2128:
  6024  001C44                     	btfsc	((c:___awdiv@divisor+1)),c,7
  6025  001C44  BE04               	goto	u1580
  6026  001C46  EF29  F00E         	goto	u1581
  6027  001C4A  EF27  F00E         
  6028                           u1581:
  6029  001C4E                     	goto	l2134
  6030  001C4E  EF31  F00E         u1580:
  6031  001C52                     	line	15
  6032                           	
  6033                           l2130:
  6034  001C52                     	negf	((c:___awdiv@divisor)),c
  6035  001C52  6C03               	comf	((c:___awdiv@divisor+1)),c
  6036  001C54  1E04               	btfsc	status,0
  6037  001C56  B0D8               	incf	((c:___awdiv@divisor+1)),c
  6038  001C58  2A04               	line	16
  6039                           	
  6040                           l2132:
  6041  001C5A                     	movlw	low(01h)
  6042  001C5A  0E01               	movwf	((c:___awdiv@sign)),c
  6043  001C5C  6E06               	goto	l2134
  6044  001C5E  EF31  F00E         	line	17
  6045                           	
  6046                           l432:
  6047  001C62                     	line	18
  6048                           	
  6049                           l2134:
  6050  001C62                     	btfsc	((c:___awdiv@dividend+1)),c,7
  6051  001C62  BE02               	goto	u1590
  6052  001C64  EF38  F00E         	goto	u1591
  6053  001C68  EF36  F00E         
  6054                           u1591:
  6055  001C6C                     	goto	l2140
  6056  001C6C  EF40  F00E         u1590:
  6057  001C70                     	line	19
  6058                           	
  6059                           l2136:
  6060  001C70                     	negf	((c:___awdiv@dividend)),c
  6061  001C70  6C01               	comf	((c:___awdiv@dividend+1)),c
  6062  001C72  1E02               	btfsc	status,0
  6063  001C74  B0D8               	incf	((c:___awdiv@dividend+1)),c
  6064  001C76  2A02               	line	20
  6065                           	
  6066                           l2138:
  6067  001C78                     	movlw	(01h)&0ffh
  6068  001C78  0E01               	xorwf	((c:___awdiv@sign)),c
  6069  001C7A  1A06               	goto	l2140
  6070  001C7C  EF40  F00E         	line	21
  6071                           	
  6072                           l433:
  6073  001C80                     	line	22
  6074                           	
  6075                           l2140:
  6076  001C80                     	movlw	high(0)
  6077  001C80  0E00               	movwf	((c:___awdiv@quotient+1)),c
  6078  001C82  6E08               	movlw	low(0)
  6079  001C84  0E00               	movwf	((c:___awdiv@quotient)),c
  6080  001C86  6E07               	line	23
  6081                           	
  6082                           l2142:
  6083  001C88                     	movf	((c:___awdiv@divisor)),c,w
  6084  001C88  5003               iorwf	((c:___awdiv@divisor+1)),c,w
  6085  001C8A  1004               	btfsc	status,2
  6086  001C8C  B4D8               	goto	u1601
  6087  001C8E  EF4B  F00E         	goto	u1600
  6088  001C92  EF4D  F00E         
  6089                           u1601:
  6090  001C96                     	goto	l2162
  6091  001C96  EF81  F00E         u1600:
  6092  001C9A                     	line	24
  6093                           	
  6094                           l2144:
  6095  001C9A                     	movlw	low(01h)
  6096  001C9A  0E01               	movwf	((c:___awdiv@counter)),c
  6097  001C9C  6E05               	line	25
  6098                           	goto	l2148
  6099  001C9E  EF57  F00E         	
  6100                           l436:
  6101  001CA2                     	line	26
  6102                           	
  6103                           l2146:
  6104  001CA2                     	bcf	status,0
  6105  001CA2  90D8               	rlcf	((c:___awdiv@divisor)),c
  6106  001CA4  3603               	rlcf	((c:___awdiv@divisor+1)),c
  6107  001CA6  3604               	line	27
  6108                           	incf	((c:___awdiv@counter)),c
  6109  001CA8  2A05               	goto	l2148
  6110  001CAA  EF57  F00E         	line	28
  6111                           	
  6112                           l435:
  6113  001CAE                     	line	25
  6114                           	
  6115                           l2148:
  6116  001CAE                     	
  6117                           	btfss	((c:___awdiv@divisor+1)),c,(15)&7
  6118  001CAE  AE04               	goto	u1611
  6119  001CB0  EF5C  F00E         	goto	u1610
  6120  001CB4  EF5E  F00E         u1611:
  6121  001CB8                     	goto	l2146
  6122  001CB8  EF51  F00E         u1610:
  6123  001CBC                     	goto	l2150
  6124  001CBC  EF62  F00E         	
  6125                           l437:
  6126  001CC0                     	goto	l2150
  6127  001CC0  EF62  F00E         	line	29
  6128                           	
  6129                           l438:
  6130  001CC4                     	line	30
  6131                           	
  6132                           l2150:
  6133  001CC4                     	bcf	status,0
  6134  001CC4  90D8               	rlcf	((c:___awdiv@quotient)),c
  6135  001CC6  3607               	rlcf	((c:___awdiv@quotient+1)),c
  6136  001CC8  3608               	line	31
  6137                           	
  6138                           l2152:
  6139  001CCA                     		movf	((c:___awdiv@divisor)),c,w
  6140  001CCA  5003               	subwf	((c:___awdiv@dividend)),c,w
  6141  001CCC  5C01               	movf	((c:___awdiv@divisor+1)),c,w
  6142  001CCE  5004               	subwfb	((c:___awdiv@dividend+1)),c,w
  6143  001CD0  5802               	btfss	status,0
  6144  001CD2  A0D8               	goto	u1621
  6145  001CD4  EF6E  F00E         	goto	u1620
  6146  001CD8  EF70  F00E         
  6147                           u1621:
  6148  001CDC                     	goto	l2158
  6149  001CDC  EF77  F00E         u1620:
  6150  001CE0                     	line	32
  6151                           	
  6152                           l2154:
  6153  001CE0                     	movf	((c:___awdiv@divisor)),c,w
  6154  001CE0  5003               	subwf	((c:___awdiv@dividend)),c
  6155  001CE2  5E01               	movf	((c:___awdiv@divisor+1)),c,w
  6156  001CE4  5004               	subwfb	((c:___awdiv@dividend+1)),c
  6157  001CE6  5A02               
  6158                           	line	33
  6159                           	
  6160                           l2156:
  6161  001CE8                     	bsf	(0+(0/8)+(c:___awdiv@quotient)),c,(0)&7
  6162  001CE8  8007               	goto	l2158
  6163  001CEA  EF77  F00E         	line	34
  6164                           	
  6165                           l439:
  6166  001CEE                     	line	35
  6167                           	
  6168                           l2158:
  6169  001CEE                     	bcf	status,0
  6170  001CEE  90D8               	rrcf	((c:___awdiv@divisor+1)),c
  6171  001CF0  3204               	rrcf	((c:___awdiv@divisor)),c
  6172  001CF2  3203               	line	36
  6173                           	
  6174                           l2160:
  6175  001CF4                     	decfsz	((c:___awdiv@counter)),c
  6176  001CF4  2E05               	
  6177                           	goto	l2150
  6178  001CF6  EF62  F00E         	goto	l2162
  6179  001CFA  EF81  F00E         	
  6180                           l440:
  6181  001CFE                     	goto	l2162
  6182  001CFE  EF81  F00E         	line	37
  6183                           	
  6184                           l434:
  6185  001D02                     	line	38
  6186                           	
  6187                           l2162:
  6188  001D02                     	movf	((c:___awdiv@sign)),c,w
  6189  001D02  5006               	btfsc	status,2
  6190  001D04  B4D8               	goto	u1631
  6191  001D06  EF87  F00E         	goto	u1630
  6192  001D0A  EF89  F00E         u1631:
  6193  001D0E                     	goto	l2166
  6194  001D0E  EF8F  F00E         u1630:
  6195  001D12                     	line	39
  6196                           	
  6197                           l2164:
  6198  001D12                     	negf	((c:___awdiv@quotient)),c
  6199  001D12  6C07               	comf	((c:___awdiv@quotient+1)),c
  6200  001D14  1E08               	btfsc	status,0
  6201  001D16  B0D8               	incf	((c:___awdiv@quotient+1)),c
  6202  001D18  2A08               	goto	l2166
  6203  001D1A  EF8F  F00E         	
  6204                           l441:
  6205  001D1E                     	line	40
  6206                           	
  6207                           l2166:
  6208  001D1E                     	movff	(c:___awdiv@quotient),(c:?___awdiv)
  6209  001D1E  C007  F001         	movff	(c:___awdiv@quotient+1),(c:?___awdiv+1)
  6210  001D22  C008  F002         	goto	l442
  6211  001D26  EF95  F00E         	
  6212                           l2168:
  6213  001D2A                     	line	41
  6214                           	
  6215                           l442:
  6216  001D2A                     	return	;funcret
  6217  001D2A  0012               	opt stack 0
  6218                           GLOBAL	__end_of___awdiv
  6219                           	__end_of___awdiv:
  6220  001D2C                     	signat	___awdiv,8314
  6221                           	global	_POS_CURSOR
  6222                           
  6223 ;; *************** function _POS_CURSOR *****************
  6224 ;; Defined at:
  6225 ;;		line 6 in file "LCD.c"
  6226 ;; Parameters:    Size  Location     Type
  6227 ;;  fila            1    wreg     unsigned char 
  6228 ;;  columna         1    3[COMRAM] unsigned char 
  6229 ;; Auto vars:     Size  Location     Type
  6230 ;;  fila            1    4[COMRAM] unsigned char 
  6231 ;; Return value:  Size  Location     Type
  6232 ;;                  1    wreg      void 
  6233 ;; Registers used:
  6234 ;;		wreg, status,2, status,0, cstack
  6235 ;; Tracked objects:
  6236 ;;		On entry : 0/0
  6237 ;;		On exit  : 0/0
  6238 ;;		Unchanged: 0/0
  6239 ;; Data sizes:     COMRAM   BANK0   BANK1   BANK2   BANK3   BANK4   BANK5   BANK6   BANK7
  6240 ;;      Params:         1       0       0       0       0       0       0       0       0
  6241 ;;      Locals:         1       0       0       0       0       0       0       0       0
  6242 ;;      Temps:          0       0       0       0       0       0       0       0       0
  6243 ;;      Totals:         2       0       0       0       0       0       0       0       0
  6244 ;;Total ram usage:        2 bytes
  6245 ;; Hardware stack levels used:    1
  6246 ;; Hardware stack levels required when called:    3
  6247 ;; This function calls:
  6248 ;;		_ENVIA_LCD_CMD
  6249 ;; This function is called by:
  6250 ;;		_main
  6251 ;; This function uses a non-reentrant model
  6252 ;;
  6253                           psect	text12,class=CODE,space=0,reloc=2,group=0
  6254                           	file	"LCD.c"
  6255                           	line	6
  6256                           global __ptext12
  6257                           __ptext12:
  6258  001EDE                     psect	text12
  6259                           	file	"LCD.c"
  6260                           	line	6
  6261                           	global	__size_of_POS_CURSOR
  6262                           	__size_of_POS_CURSOR	equ	__end_of_POS_CURSOR-_POS_CURSOR
  6263  0000                     	
  6264                           _POS_CURSOR:
  6265  001EDE                     ;incstack = 0
  6266                           	opt	stack 27
  6267                           ;POS_CURSOR@fila stored from wreg
  6268                           	movwf	((c:POS_CURSOR@fila)),c
  6269  001EDE  6E05               	line	8
  6270                           	
  6271                           l2340:
  6272  001EE0                     ;LCD.c: 6: void POS_CURSOR(unsigned char fila,unsigned char columna);LCD.c: 7: {;LCD.c: 
                                 8:  if(fila == 1)
  6273                           		decf	((c:POS_CURSOR@fila)),c,w
  6274  001EE0  0405               	btfss	status,2
  6275  001EE2  A4D8               	goto	u1861
  6276  001EE4  EF76  F00F         	goto	u1860
  6277  001EE8  EF78  F00F         
  6278                           u1861:
  6279  001EEC                     	goto	l2344
  6280  001EEC  EF7E  F00F         u1860:
  6281  001EF0                     	line	10
  6282                           	
  6283                           l2342:
  6284  001EF0                     ;LCD.c: 9:  {;LCD.c: 10:   ENVIA_LCD_CMD(0x80+columna);
  6285                           	movf	((c:POS_CURSOR@columna)),c,w
  6286  001EF0  5004               	addlw	low(080h)
  6287  001EF2  0F80               	
  6288                           	call	_ENVIA_LCD_CMD
  6289  001EF4  EC28  F010         	line	11
  6290                           ;LCD.c: 11:  }
  6291                           	goto	l158
  6292  001EF8  EF8F  F00F         	line	12
  6293                           ;LCD.c: 12:  else if(fila == 2)
  6294                           	
  6295                           l155:
  6296  001EFC                     	
  6297                           l2344:
  6298  001EFC                     		movlw	2
  6299  001EFC  0E02               	xorwf	((c:POS_CURSOR@fila)),c,w
  6300  001EFE  1805               	btfss	status,2
  6301  001F00  A4D8               	goto	u1871
  6302  001F02  EF85  F00F         	goto	u1870
  6303  001F06  EF87  F00F         
  6304                           u1871:
  6305  001F0A                     	goto	l158
  6306  001F0A  EF8F  F00F         u1870:
  6307  001F0E                     	line	14
  6308                           	
  6309                           l2346:
  6310  001F0E                     ;LCD.c: 13:  {;LCD.c: 14:   ENVIA_LCD_CMD(0xC0+columna);
  6311                           	movf	((c:POS_CURSOR@columna)),c,w
  6312  001F0E  5004               	addlw	low(0C0h)
  6313  001F10  0FC0               	
  6314                           	call	_ENVIA_LCD_CMD
  6315  001F12  EC28  F010         	goto	l158
  6316  001F16  EF8F  F00F         	line	15
  6317                           ;LCD.c: 15:  }
  6318                           	
  6319                           l157:
  6320  001F1A                     	goto	l158
  6321  001F1A  EF8F  F00F         	
  6322                           l156:
  6323  001F1E                     	line	16
  6324                           	
  6325                           l158:
  6326  001F1E                     	return	;funcret
  6327  001F1E  0012               	opt stack 0
  6328                           GLOBAL	__end_of_POS_CURSOR
  6329                           	__end_of_POS_CURSOR:
  6330  001F20                     	signat	_POS_CURSOR,8313
  6331                           	global	_LCD_CONFIG
  6332                           
  6333 ;; *************** function _LCD_CONFIG *****************
  6334 ;; Defined at:
  6335 ;;		line 72 in file "LCD.c"
  6336 ;; Parameters:    Size  Location     Type
  6337 ;;		None
  6338 ;; Auto vars:     Size  Location     Type
  6339 ;;		None
  6340 ;; Return value:  Size  Location     Type
  6341 ;;                  1    wreg      void 
  6342 ;; Registers used:
  6343 ;;		wreg, status,2, status,0, cstack
  6344 ;; Tracked objects:
  6345 ;;		On entry : 0/0
  6346 ;;		On exit  : 0/0
  6347 ;;		Unchanged: 0/0
  6348 ;; Data sizes:     COMRAM   BANK0   BANK1   BANK2   BANK3   BANK4   BANK5   BANK6   BANK7
  6349 ;;      Params:         0       0       0       0       0       0       0       0       0
  6350 ;;      Locals:         0       0       0       0       0       0       0       0       0
  6351 ;;      Temps:          1       0       0       0       0       0       0       0       0
  6352 ;;      Totals:         1       0       0       0       0       0       0       0       0
  6353 ;;Total ram usage:        1 bytes
  6354 ;; Hardware stack levels used:    1
  6355 ;; Hardware stack levels required when called:    3
  6356 ;; This function calls:
  6357 ;;		_ENVIA_LCD_CMD
  6358 ;;		_ENVIA_NIBBLE
  6359 ;; This function is called by:
  6360 ;;		_main
  6361 ;; This function uses a non-reentrant model
  6362 ;;
  6363                           psect	text13,class=CODE,space=0,reloc=2,group=0
  6364                           	line	72
  6365                           global __ptext13
  6366                           __ptext13:
  6367  001E30                     psect	text13
  6368                           	file	"LCD.c"
  6369                           	line	72
  6370                           	global	__size_of_LCD_CONFIG
  6371                           	__size_of_LCD_CONFIG	equ	__end_of_LCD_CONFIG-_LCD_CONFIG
  6372  0000                     	
  6373                           _LCD_CONFIG:
  6374  001E30                     ;incstack = 0
  6375                           	opt	stack 27
  6376                           	line	74
  6377                           	
  6378                           l1586:
  6379  001E30                     ;LCD.c: 74:  LATDbits.LATD0 = 0;
  6380                           	bcf	((c:3980)),c,0	;volatile
  6381  001E30  908C               	line	75
  6382                           ;LCD.c: 75:  LATDbits.LATD1 = 0;
  6383                           	bcf	((c:3980)),c,1	;volatile
  6384  001E32  928C               	line	76
  6385                           	
  6386                           l1588:
  6387  001E34                     ;LCD.c: 76:  ENVIA_NIBBLE(0x30);
  6388                           	movlw	(030h)&0ffh
  6389  001E34  0E30               	
  6390                           	call	_ENVIA_NIBBLE
  6391  001E36  EC6A  F010         	line	77
  6392                           	
  6393                           l1590:
  6394  001E3A                     ;LCD.c: 77:         _delay(24000);
  6395                           	opt asmopt_push
  6396                           opt asmopt_off
  6397                           movlw	32
  6398  001E3A  0E20               movwf	(??_LCD_CONFIG+0+0)&0ffh,c,f
  6399  001E3C  6E04               	movlw	42
  6400  001E3E  0E2A               u1907:
  6401  001E40                     decfsz	wreg,f
  6402  001E40  2EE8               	bra	u1907
  6403  001E42  D7FE               	decfsz	(??_LCD_CONFIG+0+0)&0ffh,c,f
  6404  001E44  2E04               	bra	u1907
  6405  001E46  D7FC               opt asmopt_pop
  6406                           
  6407                           	line	78
  6408                           	
  6409                           l1592:
  6410  001E48                     ;LCD.c: 78:         _delay(24000);
  6411                           	opt asmopt_push
  6412                           opt asmopt_off
  6413                           movlw	32
  6414  001E48  0E20               movwf	(??_LCD_CONFIG+0+0)&0ffh,c,f
  6415  001E4A  6E04               	movlw	42
  6416  001E4C  0E2A               u1917:
  6417  001E4E                     decfsz	wreg,f
  6418  001E4E  2EE8               	bra	u1917
  6419  001E50  D7FE               	decfsz	(??_LCD_CONFIG+0+0)&0ffh,c,f
  6420  001E52  2E04               	bra	u1917
  6421  001E54  D7FC               opt asmopt_pop
  6422                           
  6423                           	line	81
  6424                           ;LCD.c: 81:  ENVIA_NIBBLE(0x30);
  6425                           	movlw	(030h)&0ffh
  6426  001E56  0E30               	
  6427                           	call	_ENVIA_NIBBLE
  6428  001E58  EC6A  F010         	line	83
  6429                           	
  6430                           l1594:
  6431  001E5C                     ;LCD.c: 83:  _delay(1200);
  6432                           	opt asmopt_push
  6433                           opt asmopt_off
  6434                           	movlw	240
  6435  001E5C  0EF0               u1927:
  6436  001E5E                     	nop2
  6437  001E5E  D000               decfsz	wreg,f
  6438  001E60  2EE8               	bra	u1927
  6439  001E62  D7FD               opt asmopt_pop
  6440                           
  6441                           	line	84
  6442                           	
  6443                           l1596:
  6444  001E64                     ;LCD.c: 84:         ENVIA_NIBBLE(0x30);
  6445                           	movlw	(030h)&0ffh
  6446  001E64  0E30               	
  6447                           	call	_ENVIA_NIBBLE
  6448  001E66  EC6A  F010         	line	85
  6449                           	
  6450                           l1598:
  6451  001E6A                     ;LCD.c: 85:  ENVIA_NIBBLE(0x20);
  6452                           	movlw	(020h)&0ffh
  6453  001E6A  0E20               	
  6454                           	call	_ENVIA_NIBBLE
  6455  001E6C  EC6A  F010         	line	86
  6456                           	
  6457                           l1600:
  6458  001E70                     ;LCD.c: 86:  ENVIA_LCD_CMD(0x01);
  6459                           	movlw	(01h)&0ffh
  6460  001E70  0E01               	
  6461                           	call	_ENVIA_LCD_CMD
  6462  001E72  EC28  F010         	line	87
  6463                           	
  6464                           l1602:
  6465  001E76                     ;LCD.c: 87:  ENVIA_LCD_CMD(0x28);
  6466                           	movlw	(028h)&0ffh
  6467  001E76  0E28               	
  6468                           	call	_ENVIA_LCD_CMD
  6469  001E78  EC28  F010         	line	88
  6470                           	
  6471                           l1604:
  6472  001E7C                     ;LCD.c: 88:  ENVIA_LCD_CMD(0x0F);
  6473                           	movlw	(0Fh)&0ffh
  6474  001E7C  0E0F               	
  6475                           	call	_ENVIA_LCD_CMD
  6476  001E7E  EC28  F010         	line	89
  6477                           	
  6478                           l1606:
  6479  001E82                     ;LCD.c: 89:  ENVIA_LCD_CMD(0x06);
  6480                           	movlw	(06h)&0ffh
  6481  001E82  0E06               	
  6482                           	call	_ENVIA_LCD_CMD
  6483  001E84  EC28  F010         	line	90
  6484                           	
  6485                           l1608:
  6486  001E88                     ;LCD.c: 90:  ENVIA_LCD_CMD(0x01);
  6487                           	movlw	(01h)&0ffh
  6488  001E88  0E01               	
  6489                           	call	_ENVIA_LCD_CMD
  6490  001E8A  EC28  F010         	line	91
  6491                           	
  6492                           l191:
  6493  001E8E                     	return	;funcret
  6494  001E8E  0012               	opt stack 0
  6495                           GLOBAL	__end_of_LCD_CONFIG
  6496                           	__end_of_LCD_CONFIG:
  6497  001E90                     	signat	_LCD_CONFIG,89
  6498                           	global	_ESCRIBE_MENSAJE
  6499                           
  6500 ;; *************** function _ESCRIBE_MENSAJE *****************
  6501 ;; Defined at:
  6502 ;;		line 41 in file "LCD.c"
  6503 ;; Parameters:    Size  Location     Type
  6504 ;;  cadena          2    3[COMRAM] PTR const unsigned char 
  6505 ;;		 -> STR_4(3), STR_3(3), STR_2(5), STR_1(5), 
  6506 ;;  tam             1    5[COMRAM] unsigned char 
  6507 ;; Auto vars:     Size  Location     Type
  6508 ;;  i               1    8[COMRAM] unsigned char 
  6509 ;; Return value:  Size  Location     Type
  6510 ;;                  1    wreg      void 
  6511 ;; Registers used:
  6512 ;;		wreg, status,2, status,0, tblptrl, tblptrh, tblptru, prodl, prodh, cstack
  6513 ;; Tracked objects:
  6514 ;;		On entry : 0/0
  6515 ;;		On exit  : 0/0
  6516 ;;		Unchanged: 0/0
  6517 ;; Data sizes:     COMRAM   BANK0   BANK1   BANK2   BANK3   BANK4   BANK5   BANK6   BANK7
  6518 ;;      Params:         3       0       0       0       0       0       0       0       0
  6519 ;;      Locals:         1       0       0       0       0       0       0       0       0
  6520 ;;      Temps:          2       0       0       0       0       0       0       0       0
  6521 ;;      Totals:         6       0       0       0       0       0       0       0       0
  6522 ;;Total ram usage:        6 bytes
  6523 ;; Hardware stack levels used:    1
  6524 ;; Hardware stack levels required when called:    3
  6525 ;; This function calls:
  6526 ;;		_ENVIA_CHAR
  6527 ;; This function is called by:
  6528 ;;		_main
  6529 ;; This function uses a non-reentrant model
  6530 ;;
  6531                           psect	text14,class=CODE,space=0,reloc=2,group=0
  6532                           	line	41
  6533                           global __ptext14
  6534                           __ptext14:
  6535  001E90                     psect	text14
  6536                           	file	"LCD.c"
  6537                           	line	41
  6538                           	global	__size_of_ESCRIBE_MENSAJE
  6539                           	__size_of_ESCRIBE_MENSAJE	equ	__end_of_ESCRIBE_MENSAJE-_ESCRIBE_MENSAJE
  6540  0000                     	
  6541                           _ESCRIBE_MENSAJE:
  6542  001E90                     ;incstack = 0
  6543                           	opt	stack 27
  6544                           	line	43
  6545                           	
  6546                           l2332:
  6547  001E90                     ;LCD.c: 41: void ESCRIBE_MENSAJE(const char *cadena,unsigned char tam);LCD.c: 42: {;LCD.
                                 c: 43:  unsigned char i = 0;
  6548                           	movlw	low(0)
  6549  001E90  0E00               	movwf	((c:ESCRIBE_MENSAJE@i)),c
  6550  001E92  6E09               	line	44
  6551                           ;LCD.c: 44:  for(i = 0; i<tam; i++)
  6552                           	movlw	low(0)
  6553  001E94  0E00               	movwf	((c:ESCRIBE_MENSAJE@i)),c
  6554  001E96  6E09               	goto	l2338
  6555  001E98  EF63  F00F         	
  6556                           l180:
  6557  001E9C                     	line	46
  6558                           	
  6559                           l2334:
  6560  001E9C                     ;LCD.c: 45:  {;LCD.c: 46:   ENVIA_CHAR(cadena[i]);
  6561                           	movf	((c:ESCRIBE_MENSAJE@i)),c,w
  6562  001E9C  5009               	mullw	01h
  6563  001E9E  0D01               	movff	(c:ESCRIBE_MENSAJE@cadena),??_ESCRIBE_MENSAJE+0+0
  6564  001EA0  C004  F007         	movff	(c:ESCRIBE_MENSAJE@cadena+1),??_ESCRIBE_MENSAJE+0+0+1
  6565  001EA4  C005  F008         	movf	(prodl),c,w
  6566  001EA8  50F3               	addwf	(??_ESCRIBE_MENSAJE+0+0),c
  6567  001EAA  2607               	movf	(prodh),c,w
  6568  001EAC  50F4               	addwfc	(??_ESCRIBE_MENSAJE+0+1),c
  6569  001EAE  2208               	movff	??_ESCRIBE_MENSAJE+0+0,tblptrl
  6570  001EB0  C007  FFF6         	movff	??_ESCRIBE_MENSAJE+0+1,tblptrh
  6571  001EB4  C008  FFF7         	if	0	;tblptru may be non-zero
  6572  001EB8                     	clrf	tblptru
  6574  001EB8                     	if	0	;tblptru may be non-zero
  6575  001EB8                     	global __mediumconst
  6576                           movlw	low highword(__mediumconst)
  6579  001EB8                     	tblrd	*
  6580  001EB8  0008               	
  6581                           	movf	tablat,w
  6582  001EBA  50F5               	
  6583                           	call	_ENVIA_CHAR
  6584  001EBC  EC0E  F010         	line	47
  6585                           	
  6586                           l2336:
  6587  001EC0                     ;LCD.c: 47:  }
  6588                           	incf	((c:ESCRIBE_MENSAJE@i)),c
  6589  001EC0  2A09               	goto	l2338
  6590  001EC2  EF63  F00F         	
  6591                           l179:
  6592  001EC6                     	
  6593                           l2338:
  6594  001EC6                     		movf	((c:ESCRIBE_MENSAJE@tam)),c,w
  6595  001EC6  5006               	subwf	((c:ESCRIBE_MENSAJE@i)),c,w
  6596  001EC8  5C09               	btfss	status,0
  6597  001ECA  A0D8               	goto	u1851
  6598  001ECC  EF6A  F00F         	goto	u1850
  6599  001ED0  EF6C  F00F         
  6600                           u1851:
  6601  001ED4                     	goto	l2334
  6602  001ED4  EF4E  F00F         u1850:
  6603  001ED8                     	goto	l182
  6604  001ED8  EF6E  F00F         	
  6605                           l181:
  6606  001EDC                     	line	48
  6607                           	
  6608                           l182:
  6609  001EDC                     	return	;funcret
  6610  001EDC  0012               	opt stack 0
  6611                           GLOBAL	__end_of_ESCRIBE_MENSAJE
  6612                           	__end_of_ESCRIBE_MENSAJE:
  6613  001EDE                     	signat	_ESCRIBE_MENSAJE,8313
  6614                           	global	_ENVIA_CHAR
  6615                           
  6616 ;; *************** function _ENVIA_CHAR *****************
  6617 ;; Defined at:
  6618 ;;		line 50 in file "LCD.c"
  6619 ;; Parameters:    Size  Location     Type
  6620 ;;  dato            1    wreg     unsigned char 
  6621 ;; Auto vars:     Size  Location     Type
  6622 ;;  dato            1    1[COMRAM] unsigned char 
  6623 ;;  aux             1    2[COMRAM] unsigned char 
  6624 ;; Return value:  Size  Location     Type
  6625 ;;                  1    wreg      void 
  6626 ;; Registers used:
  6627 ;;		wreg, status,2, status,0, cstack
  6628 ;; Tracked objects:
  6629 ;;		On entry : 0/0
  6630 ;;		On exit  : 0/0
  6631 ;;		Unchanged: 0/0
  6632 ;; Data sizes:     COMRAM   BANK0   BANK1   BANK2   BANK3   BANK4   BANK5   BANK6   BANK7
  6633 ;;      Params:         0       0       0       0       0       0       0       0       0
  6634 ;;      Locals:         2       0       0       0       0       0       0       0       0
  6635 ;;      Temps:          0       0       0       0       0       0       0       0       0
  6636 ;;      Totals:         2       0       0       0       0       0       0       0       0
  6637 ;;Total ram usage:        2 bytes
  6638 ;; Hardware stack levels used:    1
  6639 ;; Hardware stack levels required when called:    2
  6640 ;; This function calls:
  6641 ;;		_ENVIA_NIBBLE
  6642 ;;		_LEER_LCD
  6643 ;; This function is called by:
  6644 ;;		_main
  6645 ;;		_ESCRIBE_MENSAJE
  6646 ;;		_GENERACARACTER
  6647 ;; This function uses a non-reentrant model
  6648 ;;
  6649                           psect	text15,class=CODE,space=0,reloc=2,group=0
  6650                           	line	50
  6651                           global __ptext15
  6652                           __ptext15:
  6653  00201C                     psect	text15
  6654                           	file	"LCD.c"
  6655                           	line	50
  6656                           	global	__size_of_ENVIA_CHAR
  6657                           	__size_of_ENVIA_CHAR	equ	__end_of_ENVIA_CHAR-_ENVIA_CHAR
  6658  0000                     	
  6659                           _ENVIA_CHAR:
  6660  00201C                     ;incstack = 0
  6661                           	opt	stack 27
  6662                           ;ENVIA_CHAR@dato stored from wreg
  6663                           	movwf	((c:ENVIA_CHAR@dato)),c
  6664  00201C  6E02               	line	53
  6665                           	
  6666                           l930:
  6667  00201E                     ;LCD.c: 50: void ENVIA_CHAR(unsigned char dato);LCD.c: 51: {;LCD.c: 52:  unsigned char a
                                 ux;;LCD.c: 53:  LATDbits.LATD0 = 1;
  6668                           	bsf	((c:3980)),c,0	;volatile
  6669  00201E  808C               	line	54
  6670                           	
  6671                           l932:
  6672  002020                     ;LCD.c: 54:  LEER_LCD();
  6673                           	call	_LEER_LCD	;wreg free
  6674  002020  ECDA  F00E         	line	55
  6675                           	
  6676                           l934:
  6677  002024                     ;LCD.c: 55:  TRISD = 0x00;
  6678                           	movlw	low(0)
  6679  002024  0E00               	movwf	((c:3989)),c	;volatile
  6680  002026  6E95               	line	56
  6681                           	
  6682                           l936:
  6683  002028                     ;LCD.c: 56:         _delay(1200);
  6684                           	opt asmopt_push
  6685                           opt asmopt_off
  6686                           	movlw	240
  6687  002028  0EF0               u1937:
  6688  00202A                     	nop2
  6689  00202A  D000               decfsz	wreg,f
  6690  00202C  2EE8               	bra	u1937
  6691  00202E  D7FD               opt asmopt_pop
  6692                           
  6693                           	line	58
  6694                           	
  6695                           l938:
  6696  002030                     ;LCD.c: 58:  LATDbits.LATD1 = 0;
  6697                           	bcf	((c:3980)),c,1	;volatile
  6698  002030  928C               	line	59
  6699                           	
  6700                           l940:
  6701  002032                     ;LCD.c: 59:  LATDbits.LATD2 = 0;
  6702                           	bcf	((c:3980)),c,2	;volatile
  6703  002032  948C               	line	60
  6704                           	
  6705                           l942:
  6706  002034                     ;LCD.c: 60:  LATDbits.LATD0 = 1;
  6707                           	bsf	((c:3980)),c,0	;volatile
  6708  002034  808C               	line	61
  6709                           	
  6710                           l944:
  6711  002036                     ;LCD.c: 61:  aux = dato & 0xF0;
  6712                           	movf	((c:ENVIA_CHAR@dato)),c,w
  6713  002036  5002               	andlw	low(0F0h)
  6714  002038  0BF0               	movwf	((c:ENVIA_CHAR@aux)),c
  6715  00203A  6E03               	line	62
  6716                           	
  6717                           l946:
  6718  00203C                     ;LCD.c: 62:  ENVIA_NIBBLE(aux);
  6719                           	movf	((c:ENVIA_CHAR@aux)),c,w
  6720  00203C  5003               	
  6721                           	call	_ENVIA_NIBBLE
  6722  00203E  EC6A  F010         	line	63
  6723                           	
  6724                           l948:
  6725  002042                     ;LCD.c: 63:  aux = dato << 4;
  6726                           	swapf	((c:ENVIA_CHAR@dato)),c,w
  6727  002042  3802               	andlw	(0ffh shl 4) & 0ffh
  6728  002044  0BF0               	movwf	((c:ENVIA_CHAR@aux)),c
  6729  002046  6E03               	line	64
  6730                           	
  6731                           l950:
  6732  002048                     ;LCD.c: 64:  ENVIA_NIBBLE(aux);
  6733                           	movf	((c:ENVIA_CHAR@aux)),c,w
  6734  002048  5003               	
  6735                           	call	_ENVIA_NIBBLE
  6736  00204A  EC6A  F010         	line	65
  6737                           	
  6738                           l185:
  6739  00204E                     	return	;funcret
  6740  00204E  0012               	opt stack 0
  6741                           GLOBAL	__end_of_ENVIA_CHAR
  6742                           	__end_of_ENVIA_CHAR:
  6743  002050                     	signat	_ENVIA_CHAR,4217
  6744                           	global	_CURSOR_ONOFF
  6745                           
  6746 ;; *************** function _CURSOR_ONOFF *****************
  6747 ;; Defined at:
  6748 ;;		line 35 in file "LCD.c"
  6749 ;; Parameters:    Size  Location     Type
  6750 ;;  estado          1    wreg     unsigned char 
  6751 ;; Auto vars:     Size  Location     Type
  6752 ;;  estado          1    3[COMRAM] unsigned char 
  6753 ;; Return value:  Size  Location     Type
  6754 ;;                  1    wreg      void 
  6755 ;; Registers used:
  6756 ;;		wreg, status,2, status,0, cstack
  6757 ;; Tracked objects:
  6758 ;;		On entry : 0/0
  6759 ;;		On exit  : 0/0
  6760 ;;		Unchanged: 0/0
  6761 ;; Data sizes:     COMRAM   BANK0   BANK1   BANK2   BANK3   BANK4   BANK5   BANK6   BANK7
  6762 ;;      Params:         0       0       0       0       0       0       0       0       0
  6763 ;;      Locals:         1       0       0       0       0       0       0       0       0
  6764 ;;      Temps:          0       0       0       0       0       0       0       0       0
  6765 ;;      Totals:         1       0       0       0       0       0       0       0       0
  6766 ;;Total ram usage:        1 bytes
  6767 ;; Hardware stack levels used:    1
  6768 ;; Hardware stack levels required when called:    3
  6769 ;; This function calls:
  6770 ;;		_ENVIA_LCD_CMD
  6771 ;; This function is called by:
  6772 ;;		_main
  6773 ;; This function uses a non-reentrant model
  6774 ;;
  6775                           psect	text16,class=CODE,space=0,reloc=2,group=0
  6776                           	line	35
  6777                           global __ptext16
  6778                           __ptext16:
  6779  001FE4                     psect	text16
  6780                           	file	"LCD.c"
  6781                           	line	35
  6782                           	global	__size_of_CURSOR_ONOFF
  6783                           	__size_of_CURSOR_ONOFF	equ	__end_of_CURSOR_ONOFF-_CURSOR_ONOFF
  6784  0000                     	
  6785                           _CURSOR_ONOFF:
  6786  001FE4                     ;incstack = 0
  6787                           	opt	stack 27
  6788                           ;CURSOR_ONOFF@estado stored from wreg
  6789                           	movwf	((c:CURSOR_ONOFF@estado)),c
  6790  001FE4  6E04               	line	37
  6791                           	
  6792                           l1612:
  6793  001FE6                     ;LCD.c: 35: void CURSOR_ONOFF(unsigned char estado);LCD.c: 36: {;LCD.c: 37:  if(estado =
                                 = 0) ENVIA_LCD_CMD(0x0E);
  6794                           	movf	((c:CURSOR_ONOFF@estado)),c,w
  6795  001FE6  5004               	btfss	status,2
  6796  001FE8  A4D8               	goto	u871
  6797  001FEA  EFF9  F00F         	goto	u870
  6798  001FEE  EFFB  F00F         u871:
  6799  001FF2                     	goto	l1616
  6800  001FF2  EF00  F010         u870:
  6801  001FF6                     	
  6802                           l1614:
  6803  001FF6                     	movlw	(0Eh)&0ffh
  6804  001FF6  0E0E               	
  6805                           	call	_ENVIA_LCD_CMD
  6806  001FF8  EC28  F010         	goto	l1616
  6807  001FFC  EF00  F010         	
  6808                           l174:
  6809  002000                     	line	38
  6810                           	
  6811                           l1616:
  6812  002000                     ;LCD.c: 38:  if(estado == 1) ENVIA_LCD_CMD(0x0C);
  6813                           		decf	((c:CURSOR_ONOFF@estado)),c,w
  6814  002000  0404               	btfss	status,2
  6815  002002  A4D8               	goto	u881
  6816  002004  EF06  F010         	goto	u880
  6817  002008  EF08  F010         
  6818                           u881:
  6819  00200C                     	goto	l176
  6820  00200C  EF0D  F010         u880:
  6821  002010                     	
  6822                           l1618:
  6823  002010                     	movlw	(0Ch)&0ffh
  6824  002010  0E0C               	
  6825                           	call	_ENVIA_LCD_CMD
  6826  002012  EC28  F010         	goto	l176
  6827  002016  EF0D  F010         	
  6828                           l175:
  6829  00201A                     	line	39
  6830                           	
  6831                           l176:
  6832  00201A                     	return	;funcret
  6833  00201A  0012               	opt stack 0
  6834                           GLOBAL	__end_of_CURSOR_ONOFF
  6835                           	__end_of_CURSOR_ONOFF:
  6836  00201C                     	signat	_CURSOR_ONOFF,4217
  6837                           	global	_CURSOR_HOME
  6838                           
  6839 ;; *************** function _CURSOR_HOME *****************
  6840 ;; Defined at:
  6841 ;;		line 30 in file "LCD.c"
  6842 ;; Parameters:    Size  Location     Type
  6843 ;;		None
  6844 ;; Auto vars:     Size  Location     Type
  6845 ;;		None
  6846 ;; Return value:  Size  Location     Type
  6847 ;;                  1    wreg      void 
  6848 ;; Registers used:
  6849 ;;		wreg, status,2, status,0, cstack
  6850 ;; Tracked objects:
  6851 ;;		On entry : 0/0
  6852 ;;		On exit  : 0/0
  6853 ;;		Unchanged: 0/0
  6854 ;; Data sizes:     COMRAM   BANK0   BANK1   BANK2   BANK3   BANK4   BANK5   BANK6   BANK7
  6855 ;;      Params:         0       0       0       0       0       0       0       0       0
  6856 ;;      Locals:         0       0       0       0       0       0       0       0       0
  6857 ;;      Temps:          0       0       0       0       0       0       0       0       0
  6858 ;;      Totals:         0       0       0       0       0       0       0       0       0
  6859 ;;Total ram usage:        0 bytes
  6860 ;; Hardware stack levels used:    1
  6861 ;; Hardware stack levels required when called:    3
  6862 ;; This function calls:
  6863 ;;		_ENVIA_LCD_CMD
  6864 ;; This function is called by:
  6865 ;;		_main
  6866 ;; This function uses a non-reentrant model
  6867 ;;
  6868                           psect	text17,class=CODE,space=0,reloc=2,group=0
  6869                           	line	30
  6870                           global __ptext17
  6871                           __ptext17:
  6872  0020F0                     psect	text17
  6873                           	file	"LCD.c"
  6874                           	line	30
  6875                           	global	__size_of_CURSOR_HOME
  6876                           	__size_of_CURSOR_HOME	equ	__end_of_CURSOR_HOME-_CURSOR_HOME
  6877  0000                     	
  6878                           _CURSOR_HOME:
  6879  0020F0                     ;incstack = 0
  6880                           	opt	stack 27
  6881                           	line	32
  6882                           	
  6883                           l1620:
  6884  0020F0                     ;LCD.c: 32:  ENVIA_LCD_CMD(0x02);
  6885                           	movlw	(02h)&0ffh
  6886  0020F0  0E02               	
  6887                           	call	_ENVIA_LCD_CMD
  6888  0020F2  EC28  F010         	line	33
  6889                           	
  6890                           l171:
  6891  0020F6                     	return	;funcret
  6892  0020F6  0012               	opt stack 0
  6893                           GLOBAL	__end_of_CURSOR_HOME
  6894                           	__end_of_CURSOR_HOME:
  6895  0020F8                     	signat	_CURSOR_HOME,89
  6896                           	global	_BORRAR_LCD
  6897                           
  6898 ;; *************** function _BORRAR_LCD *****************
  6899 ;; Defined at:
  6900 ;;		line 67 in file "LCD.c"
  6901 ;; Parameters:    Size  Location     Type
  6902 ;;		None
  6903 ;; Auto vars:     Size  Location     Type
  6904 ;;		None
  6905 ;; Return value:  Size  Location     Type
  6906 ;;                  1    wreg      void 
  6907 ;; Registers used:
  6908 ;;		wreg, status,2, status,0, cstack
  6909 ;; Tracked objects:
  6910 ;;		On entry : 0/0
  6911 ;;		On exit  : 0/0
  6912 ;;		Unchanged: 0/0
  6913 ;; Data sizes:     COMRAM   BANK0   BANK1   BANK2   BANK3   BANK4   BANK5   BANK6   BANK7
  6914 ;;      Params:         0       0       0       0       0       0       0       0       0
  6915 ;;      Locals:         0       0       0       0       0       0       0       0       0
  6916 ;;      Temps:          0       0       0       0       0       0       0       0       0
  6917 ;;      Totals:         0       0       0       0       0       0       0       0       0
  6918 ;;Total ram usage:        0 bytes
  6919 ;; Hardware stack levels used:    1
  6920 ;; Hardware stack levels required when called:    3
  6921 ;; This function calls:
  6922 ;;		_ENVIA_LCD_CMD
  6923 ;; This function is called by:
  6924 ;;		_main
  6925 ;; This function uses a non-reentrant model
  6926 ;;
  6927                           psect	text18,class=CODE,space=0,reloc=2,group=0
  6928                           	line	67
  6929                           global __ptext18
  6930                           __ptext18:
  6931  0020F8                     psect	text18
  6932                           	file	"LCD.c"
  6933                           	line	67
  6934                           	global	__size_of_BORRAR_LCD
  6935                           	__size_of_BORRAR_LCD	equ	__end_of_BORRAR_LCD-_BORRAR_LCD
  6936  0000                     	
  6937                           _BORRAR_LCD:
  6938  0020F8                     ;incstack = 0
  6939                           	opt	stack 27
  6940                           	line	69
  6941                           	
  6942                           l1610:
  6943  0020F8                     ;LCD.c: 69:  ENVIA_LCD_CMD(0x01);
  6944                           	movlw	(01h)&0ffh
  6945  0020F8  0E01               	
  6946                           	call	_ENVIA_LCD_CMD
  6947  0020FA  EC28  F010         	line	70
  6948                           	
  6949                           l188:
  6950  0020FE                     	return	;funcret
  6951  0020FE  0012               	opt stack 0
  6952                           GLOBAL	__end_of_BORRAR_LCD
  6953                           	__end_of_BORRAR_LCD:
  6954  002100                     	signat	_BORRAR_LCD,89
  6955                           	global	_ENVIA_LCD_CMD
  6956                           
  6957 ;; *************** function _ENVIA_LCD_CMD *****************
  6958 ;; Defined at:
  6959 ;;		line 104 in file "LCD.c"
  6960 ;; Parameters:    Size  Location     Type
  6961 ;;  dato            1    wreg     unsigned char 
  6962 ;; Auto vars:     Size  Location     Type
  6963 ;;  dato            1    1[COMRAM] unsigned char 
  6964 ;;  aux             1    2[COMRAM] unsigned char 
  6965 ;; Return value:  Size  Location     Type
  6966 ;;                  1    wreg      void 
  6967 ;; Registers used:
  6968 ;;		wreg, status,2, status,0, cstack
  6969 ;; Tracked objects:
  6970 ;;		On entry : 0/0
  6971 ;;		On exit  : 0/0
  6972 ;;		Unchanged: 0/0
  6973 ;; Data sizes:     COMRAM   BANK0   BANK1   BANK2   BANK3   BANK4   BANK5   BANK6   BANK7
  6974 ;;      Params:         0       0       0       0       0       0       0       0       0
  6975 ;;      Locals:         2       0       0       0       0       0       0       0       0
  6976 ;;      Temps:          0       0       0       0       0       0       0       0       0
  6977 ;;      Totals:         2       0       0       0       0       0       0       0       0
  6978 ;;Total ram usage:        2 bytes
  6979 ;; Hardware stack levels used:    1
  6980 ;; Hardware stack levels required when called:    2
  6981 ;; This function calls:
  6982 ;;		_ENVIA_NIBBLE
  6983 ;;		_LEER_LCD
  6984 ;; This function is called by:
  6985 ;;		_POS_CURSOR
  6986 ;;		_CURSOR_HOME
  6987 ;;		_CURSOR_ONOFF
  6988 ;;		_BORRAR_LCD
  6989 ;;		_LCD_CONFIG
  6990 ;;		_BLINK_CURSOR
  6991 ;;		_DISPLAY_ONOFF
  6992 ;;		_GENERACARACTER
  6993 ;; This function uses a non-reentrant model
  6994 ;;
  6995                           psect	text19,class=CODE,space=0,reloc=2,group=0
  6996                           	line	104
  6997                           global __ptext19
  6998                           __ptext19:
  6999  002050                     psect	text19
  7000                           	file	"LCD.c"
  7001                           	line	104
  7002                           	global	__size_of_ENVIA_LCD_CMD
  7003                           	__size_of_ENVIA_LCD_CMD	equ	__end_of_ENVIA_LCD_CMD-_ENVIA_LCD_CMD
  7004  0000                     	
  7005                           _ENVIA_LCD_CMD:
  7006  002050                     ;incstack = 0
  7007                           	opt	stack 27
  7008                           ;ENVIA_LCD_CMD@dato stored from wreg
  7009                           	movwf	((c:ENVIA_LCD_CMD@dato)),c
  7010  002050  6E02               	line	107
  7011                           	
  7012                           l952:
  7013  002052                     ;LCD.c: 104: void ENVIA_LCD_CMD(unsigned char dato);LCD.c: 105: {;LCD.c: 106:  unsigned 
                                 char aux;;LCD.c: 107:  LATDbits.LATD0 = 0;
  7014                           	bcf	((c:3980)),c,0	;volatile
  7015  002052  908C               	line	108
  7016                           	
  7017                           l954:
  7018  002054                     ;LCD.c: 108:  LEER_LCD();
  7019                           	call	_LEER_LCD	;wreg free
  7020  002054  ECDA  F00E         	line	109
  7021                           	
  7022                           l956:
  7023  002058                     ;LCD.c: 109:  TRISD = 0b00000000;
  7024                           	movlw	low(0)
  7025  002058  0E00               	movwf	((c:3989)),c	;volatile
  7026  00205A  6E95               	line	111
  7027                           	
  7028                           l958:
  7029  00205C                     ;LCD.c: 111:         _delay(1200);
  7030                           	opt asmopt_push
  7031                           opt asmopt_off
  7032                           	movlw	240
  7033  00205C  0EF0               u1947:
  7034  00205E                     	nop2
  7035  00205E  D000               decfsz	wreg,f
  7036  002060  2EE8               	bra	u1947
  7037  002062  D7FD               opt asmopt_pop
  7038                           
  7039                           	line	112
  7040                           	
  7041                           l960:
  7042  002064                     ;LCD.c: 112:         LATDbits.LATD1 = 0;
  7043                           	bcf	((c:3980)),c,1	;volatile
  7044  002064  928C               	line	113
  7045                           	
  7046                           l962:
  7047  002066                     ;LCD.c: 113:  LATDbits.LATD2 = 0;
  7048                           	bcf	((c:3980)),c,2	;volatile
  7049  002066  948C               	line	114
  7050                           	
  7051                           l964:
  7052  002068                     ;LCD.c: 114:  LATDbits.LATD0 = 0;
  7053                           	bcf	((c:3980)),c,0	;volatile
  7054  002068  908C               	line	115
  7055                           	
  7056                           l966:
  7057  00206A                     ;LCD.c: 115:  aux = dato & 0xF0;
  7058                           	movf	((c:ENVIA_LCD_CMD@dato)),c,w
  7059  00206A  5002               	andlw	low(0F0h)
  7060  00206C  0BF0               	movwf	((c:ENVIA_LCD_CMD@aux)),c
  7061  00206E  6E03               	line	116
  7062                           	
  7063                           l968:
  7064  002070                     ;LCD.c: 116:  ENVIA_NIBBLE(aux);
  7065                           	movf	((c:ENVIA_LCD_CMD@aux)),c,w
  7066  002070  5003               	
  7067                           	call	_ENVIA_NIBBLE
  7068  002072  EC6A  F010         	line	117
  7069                           	
  7070                           l970:
  7071  002076                     ;LCD.c: 117:  aux = dato<<4;
  7072                           	swapf	((c:ENVIA_LCD_CMD@dato)),c,w
  7073  002076  3802               	andlw	(0ffh shl 4) & 0ffh
  7074  002078  0BF0               	movwf	((c:ENVIA_LCD_CMD@aux)),c
  7075  00207A  6E03               	line	118
  7076                           	
  7077                           l972:
  7078  00207C                     ;LCD.c: 118:  ENVIA_NIBBLE(aux);
  7079                           	movf	((c:ENVIA_LCD_CMD@aux)),c,w
  7080  00207C  5003               	
  7081                           	call	_ENVIA_NIBBLE
  7082  00207E  EC6A  F010         	line	119
  7083                           	
  7084                           l197:
  7085  002082                     	return	;funcret
  7086  002082  0012               	opt stack 0
  7087                           GLOBAL	__end_of_ENVIA_LCD_CMD
  7088                           	__end_of_ENVIA_LCD_CMD:
  7089  002084                     	signat	_ENVIA_LCD_CMD,4217
  7090                           	global	_LEER_LCD
  7091                           
  7092 ;; *************** function _LEER_LCD *****************
  7093 ;; Defined at:
  7094 ;;		line 121 in file "LCD.c"
  7095 ;; Parameters:    Size  Location     Type
  7096 ;;		None
  7097 ;; Auto vars:     Size  Location     Type
  7098 ;;  aux             1    0[COMRAM] unsigned char 
  7099 ;; Return value:  Size  Location     Type
  7100 ;;                  1    wreg      void 
  7101 ;; Registers used:
  7102 ;;		wreg, status,2, status,0
  7103 ;; Tracked objects:
  7104 ;;		On entry : 0/0
  7105 ;;		On exit  : 0/0
  7106 ;;		Unchanged: 0/0
  7107 ;; Data sizes:     COMRAM   BANK0   BANK1   BANK2   BANK3   BANK4   BANK5   BANK6   BANK7
  7108 ;;      Params:         0       0       0       0       0       0       0       0       0
  7109 ;;      Locals:         1       0       0       0       0       0       0       0       0
  7110 ;;      Temps:          0       0       0       0       0       0       0       0       0
  7111 ;;      Totals:         1       0       0       0       0       0       0       0       0
  7112 ;;Total ram usage:        1 bytes
  7113 ;; Hardware stack levels used:    1
  7114 ;; Hardware stack levels required when called:    1
  7115 ;; This function calls:
  7116 ;;		Nothing
  7117 ;; This function is called by:
  7118 ;;		_ENVIA_CHAR
  7119 ;;		_ENVIA_LCD_CMD
  7120 ;; This function uses a non-reentrant model
  7121 ;;
  7122                           psect	text20,class=CODE,space=0,reloc=2,group=0
  7123                           	line	121
  7124                           global __ptext20
  7125                           __ptext20:
  7126  001DB4                     psect	text20
  7127                           	file	"LCD.c"
  7128                           	line	121
  7129                           	global	__size_of_LEER_LCD
  7130                           	__size_of_LEER_LCD	equ	__end_of_LEER_LCD-_LEER_LCD
  7131  0000                     	
  7132                           _LEER_LCD:
  7133  001DB4                     ;incstack = 0
  7134                           	opt	stack 27
  7135                           	line	124
  7136                           	
  7137                           l884:
  7138  001DB4                     ;LCD.c: 123:  unsigned char aux;;LCD.c: 124:  TRISD = 0xF8;
  7139                           	movlw	low(0F8h)
  7140  001DB4  0EF8               	movwf	((c:3989)),c	;volatile
  7141  001DB6  6E95               	line	125
  7142                           	
  7143                           l886:
  7144  001DB8                     ;LCD.c: 125:  LATDbits.LATD0 = 0;
  7145                           	bcf	((c:3980)),c,0	;volatile
  7146  001DB8  908C               	line	126
  7147                           	
  7148                           l888:
  7149  001DBA                     ;LCD.c: 126:  LATDbits.LATD1 = 1;
  7150                           	bsf	((c:3980)),c,1	;volatile
  7151  001DBA  828C               	line	127
  7152                           	
  7153                           l890:
  7154  001DBC                     ;LCD.c: 127:  LATDbits.LATD2 = 1;
  7155                           	bsf	((c:3980)),c,2	;volatile
  7156  001DBC  848C               	line	128
  7157                           	
  7158                           l892:
  7159  001DBE                     ;LCD.c: 128:         _delay(1200);
  7160                           	opt asmopt_push
  7161                           opt asmopt_off
  7162                           	movlw	240
  7163  001DBE  0EF0               u1957:
  7164  001DC0                     	nop2
  7165  001DC0  D000               decfsz	wreg,f
  7166  001DC2  2EE8               	bra	u1957
  7167  001DC4  D7FD               opt asmopt_pop
  7168                           
  7169                           	line	130
  7170                           	
  7171                           l894:
  7172  001DC6                     ;LCD.c: 130:  aux = PORTD;
  7173                           	movff	(c:3971),(c:LEER_LCD@aux)	;volatile
  7174  001DC6  CF83 F001          	line	131
  7175                           	
  7176                           l896:
  7177  001DCA                     ;LCD.c: 131:  LATDbits.LATD2 = 0;
  7178                           	bcf	((c:3980)),c,2	;volatile
  7179  001DCA  948C               	line	132
  7180                           	
  7181                           l898:
  7182  001DCC                     ;LCD.c: 132:         _delay(1200);
  7183                           	opt asmopt_push
  7184                           opt asmopt_off
  7185                           	movlw	240
  7186  001DCC  0EF0               u1967:
  7187  001DCE                     	nop2
  7188  001DCE  D000               decfsz	wreg,f
  7189  001DD0  2EE8               	bra	u1967
  7190  001DD2  D7FD               opt asmopt_pop
  7191                           
  7192                           	line	134
  7193                           	
  7194                           l900:
  7195  001DD4                     ;LCD.c: 134:  LATDbits.LATD2 = 1;
  7196                           	bsf	((c:3980)),c,2	;volatile
  7197  001DD4  848C               	line	135
  7198                           	
  7199                           l902:
  7200  001DD6                     ;LCD.c: 135:         _delay(1200);
  7201                           	opt asmopt_push
  7202                           opt asmopt_off
  7203                           	movlw	240
  7204  001DD6  0EF0               u1977:
  7205  001DD8                     	nop2
  7206  001DD8  D000               decfsz	wreg,f
  7207  001DDA  2EE8               	bra	u1977
  7208  001DDC  D7FD               opt asmopt_pop
  7209                           
  7210                           	line	137
  7211                           	
  7212                           l904:
  7213  001DDE                     ;LCD.c: 137:  LATDbits.LATD2 = 0;
  7214                           	bcf	((c:3980)),c,2	;volatile
  7215  001DDE  948C               	line	138
  7216                           	
  7217                           l906:
  7218  001DE0                     ;LCD.c: 138:  aux = aux & 0x80;
  7219                           	movf	((c:LEER_LCD@aux)),c,w
  7220  001DE0  5001               	andlw	low(080h)
  7221  001DE2  0B80               	movwf	((c:LEER_LCD@aux)),c
  7222  001DE4  6E01               	line	139
  7223                           ;LCD.c: 139:  while(aux == 0x80)
  7224                           	goto	l920
  7225  001DE6  EF0C  F00F         	
  7226                           l201:
  7227  001DEA                     	line	141
  7228                           ;LCD.c: 140:         {;LCD.c: 141:             LATDbits.LATD2 = 1;
  7229                           	bsf	((c:3980)),c,2	;volatile
  7230  001DEA  848C               	line	142
  7231                           	
  7232                           l908:
  7233  001DEC                     ;LCD.c: 142:             _delay(1200);
  7234                           	opt asmopt_push
  7235                           opt asmopt_off
  7236                           	movlw	240
  7237  001DEC  0EF0               u1987:
  7238  001DEE                     	nop2
  7239  001DEE  D000               decfsz	wreg,f
  7240  001DF0  2EE8               	bra	u1987
  7241  001DF2  D7FD               opt asmopt_pop
  7242                           
  7243                           	line	143
  7244                           	
  7245                           l910:
  7246  001DF4                     ;LCD.c: 143:             aux = PORTD;
  7247                           	movff	(c:3971),(c:LEER_LCD@aux)	;volatile
  7248  001DF4  CF83 F001          	line	144
  7249                           	
  7250                           l912:
  7251  001DF8                     ;LCD.c: 144:             LATDbits.LATD2 = 0;
  7252                           	bcf	((c:3980)),c,2	;volatile
  7253  001DF8  948C               	line	145
  7254                           ;LCD.c: 145:             _delay(1200);
  7255                           	opt asmopt_push
  7256                           opt asmopt_off
  7257                           	movlw	240
  7258  001DFA  0EF0               u1997:
  7259  001DFC                     	nop2
  7260  001DFC  D000               decfsz	wreg,f
  7261  001DFE  2EE8               	bra	u1997
  7262  001E00  D7FD               opt asmopt_pop
  7263                           
  7264                           	line	146
  7265                           	
  7266                           l914:
  7267  001E02                     ;LCD.c: 146:             LATDbits.LATD2 = 1;
  7268                           	bsf	((c:3980)),c,2	;volatile
  7269  001E02  848C               	line	147
  7270                           ;LCD.c: 147:             _delay(1200);
  7271                           	opt asmopt_push
  7272                           opt asmopt_off
  7273                           	movlw	240
  7274  001E04  0EF0               u2007:
  7275  001E06                     	nop2
  7276  001E06  D000               decfsz	wreg,f
  7277  001E08  2EE8               	bra	u2007
  7278  001E0A  D7FD               opt asmopt_pop
  7279                           
  7280                           	line	148
  7281                           	
  7282                           l916:
  7283  001E0C                     ;LCD.c: 148:             LATDbits.LATD2 = 0;
  7284                           	bcf	((c:3980)),c,2	;volatile
  7285  001E0C  948C               	line	149
  7286                           	
  7287                           l918:
  7288  001E0E                     ;LCD.c: 149:             aux = aux & 0x80;
  7289                           	movf	((c:LEER_LCD@aux)),c,w
  7290  001E0E  5001               	andlw	low(080h)
  7291  001E10  0B80               	movwf	((c:LEER_LCD@aux)),c
  7292  001E12  6E01               	goto	l920
  7293  001E14  EF0C  F00F         	line	150
  7294                           ;LCD.c: 150:  }
  7295                           	
  7296                           l200:
  7297  001E18                     	line	139
  7298                           	
  7299                           l920:
  7300  001E18                     ;LCD.c: 139:  while(aux == 0x80)
  7301                           		movlw	128
  7302  001E18  0E80               	xorwf	((c:LEER_LCD@aux)),c,w
  7303  001E1A  1801               	btfsc	status,2
  7304  001E1C  B4D8               	goto	u11
  7305  001E1E  EF13  F00F         	goto	u10
  7306  001E22  EF15  F00F         
  7307                           u11:
  7308  001E26                     	goto	l201
  7309  001E26  EFF5  F00E         u10:
  7310  001E2A                     	goto	l203
  7311  001E2A  EF17  F00F         	
  7312                           l202:
  7313  001E2E                     	line	151
  7314                           	
  7315                           l203:
  7316  001E2E                     	return	;funcret
  7317  001E2E  0012               	opt stack 0
  7318                           GLOBAL	__end_of_LEER_LCD
  7319                           	__end_of_LEER_LCD:
  7320  001E30                     	signat	_LEER_LCD,89
  7321                           	global	_ENVIA_NIBBLE
  7322                           
  7323 ;; *************** function _ENVIA_NIBBLE *****************
  7324 ;; Defined at:
  7325 ;;		line 93 in file "LCD.c"
  7326 ;; Parameters:    Size  Location     Type
  7327 ;;  dato            1    wreg     unsigned char 
  7328 ;; Auto vars:     Size  Location     Type
  7329 ;;  dato            1    0[COMRAM] unsigned char 
  7330 ;; Return value:  Size  Location     Type
  7331 ;;                  1    wreg      void 
  7332 ;; Registers used:
  7333 ;;		wreg, status,2, status,0
  7334 ;; Tracked objects:
  7335 ;;		On entry : 0/0
  7336 ;;		On exit  : 0/0
  7337 ;;		Unchanged: 0/0
  7338 ;; Data sizes:     COMRAM   BANK0   BANK1   BANK2   BANK3   BANK4   BANK5   BANK6   BANK7
  7339 ;;      Params:         0       0       0       0       0       0       0       0       0
  7340 ;;      Locals:         1       0       0       0       0       0       0       0       0
  7341 ;;      Temps:          0       0       0       0       0       0       0       0       0
  7342 ;;      Totals:         1       0       0       0       0       0       0       0       0
  7343 ;;Total ram usage:        1 bytes
  7344 ;; Hardware stack levels used:    1
  7345 ;; Hardware stack levels required when called:    1
  7346 ;; This function calls:
  7347 ;;		Nothing
  7348 ;; This function is called by:
  7349 ;;		_ENVIA_CHAR
  7350 ;;		_LCD_CONFIG
  7351 ;;		_ENVIA_LCD_CMD
  7352 ;; This function uses a non-reentrant model
  7353 ;;
  7354                           psect	text21,class=CODE,space=0,reloc=2,group=0
  7355                           	line	93
  7356                           global __ptext21
  7357                           __ptext21:
  7358  0020D4                     psect	text21
  7359                           	file	"LCD.c"
  7360                           	line	93
  7361                           	global	__size_of_ENVIA_NIBBLE
  7362                           	__size_of_ENVIA_NIBBLE	equ	__end_of_ENVIA_NIBBLE-_ENVIA_NIBBLE
  7363  0000                     	
  7364                           _ENVIA_NIBBLE:
  7365  0020D4                     ;incstack = 0
  7366                           	opt	stack 27
  7367                           ;ENVIA_NIBBLE@dato stored from wreg
  7368                           	movwf	((c:ENVIA_NIBBLE@dato)),c
  7369  0020D4  6E01               	line	95
  7370                           	
  7371                           l922:
  7372  0020D6                     ;LCD.c: 93: void ENVIA_NIBBLE(unsigned char dato);LCD.c: 94: {;LCD.c: 95:  LATD &= 0x0F;
                                 
  7373                           	movlw	(0Fh)&0ffh
  7374  0020D6  0E0F               	andwf	((c:3980)),c	;volatile
  7375  0020D8  168C               	line	96
  7376                           ;LCD.c: 96:  dato &= 0xF0;
  7377                           	movlw	(0F0h)&0ffh
  7378  0020DA  0EF0               	andwf	((c:ENVIA_NIBBLE@dato)),c
  7379  0020DC  1601               	line	97
  7380                           ;LCD.c: 97:  LATD|= dato;
  7381                           	movf	((c:ENVIA_NIBBLE@dato)),c,w	;volatile
  7382  0020DE  5001               	iorwf	((c:3980)),c	;volatile
  7383  0020E0  128C               	line	98
  7384                           	
  7385                           l924:
  7386  0020E2                     ;LCD.c: 98:  LATDbits.LATD2 = 1;
  7387                           	bsf	((c:3980)),c,2	;volatile
  7388  0020E2  848C               	line	100
  7389                           	
  7390                           l926:
  7391  0020E4                     ;LCD.c: 100:         _delay(1200);
  7392                           	opt asmopt_push
  7393                           opt asmopt_off
  7394                           	movlw	240
  7395  0020E4  0EF0               u2017:
  7396  0020E6                     	nop2
  7397  0020E6  D000               decfsz	wreg,f
  7398  0020E8  2EE8               	bra	u2017
  7399  0020EA  D7FD               opt asmopt_pop
  7400                           
  7401                           	line	101
  7402                           	
  7403                           l928:
  7404  0020EC                     ;LCD.c: 101:  LATDbits.LATD2 = 0;
  7405                           	bcf	((c:3980)),c,2	;volatile
  7406  0020EC  948C               	line	102
  7407                           	
  7408                           l194:
  7409  0020EE                     	return	;funcret
  7410  0020EE  0012               	opt stack 0
  7411                           GLOBAL	__end_of_ENVIA_NIBBLE
  7412                           	__end_of_ENVIA_NIBBLE:
  7413  0020F0                     	signat	_ENVIA_NIBBLE,4217
  7414                           	global	_ADC_CONVERTIR
  7415                           
  7416 ;; *************** function _ADC_CONVERTIR *****************
  7417 ;; Defined at:
  7418 ;;		line 69 in file "ADC.c"
  7419 ;; Parameters:    Size  Location     Type
  7420 ;;		None
  7421 ;; Auto vars:     Size  Location     Type
  7422 ;;  num             2    3[COMRAM] int 
  7423 ;; Return value:  Size  Location     Type
  7424 ;;                  2    0[COMRAM] int 
  7425 ;; Registers used:
  7426 ;;		wreg, status,2, status,0
  7427 ;; Tracked objects:
  7428 ;;		On entry : 0/0
  7429 ;;		On exit  : 0/0
  7430 ;;		Unchanged: 0/0
  7431 ;; Data sizes:     COMRAM   BANK0   BANK1   BANK2   BANK3   BANK4   BANK5   BANK6   BANK7
  7432 ;;      Params:         2       0       0       0       0       0       0       0       0
  7433 ;;      Locals:         2       0       0       0       0       0       0       0       0
  7434 ;;      Temps:          1       0       0       0       0       0       0       0       0
  7435 ;;      Totals:         5       0       0       0       0       0       0       0       0
  7436 ;;Total ram usage:        5 bytes
  7437 ;; Hardware stack levels used:    1
  7438 ;; Hardware stack levels required when called:    1
  7439 ;; This function calls:
  7440 ;;		Nothing
  7441 ;; This function is called by:
  7442 ;;		_main
  7443 ;; This function uses a non-reentrant model
  7444 ;;
  7445                           psect	text22,class=CODE,space=0,reloc=2,group=0
  7446                           	file	"ADC.c"
  7447                           	line	69
  7448                           global __ptext22
  7449                           __ptext22:
  7450  001F20                     psect	text22
  7451                           	file	"ADC.c"
  7452                           	line	69
  7453                           	global	__size_of_ADC_CONVERTIR
  7454                           	__size_of_ADC_CONVERTIR	equ	__end_of_ADC_CONVERTIR-_ADC_CONVERTIR
  7455  0000                     	
  7456                           _ADC_CONVERTIR:
  7457  001F20                     ;incstack = 0
  7458                           	opt	stack 29
  7459                           	line	72
  7460                           	
  7461                           l2348:
  7462  001F20                     ;ADC.c: 71:  int num;;ADC.c: 72:  ADCON0bits.GO = 1;
  7463                           	bsf	((c:4034)),c,1	;volatile
  7464  001F20  82C2               	line	73
  7465                           ;ADC.c: 73:  while(ADCON0bits.GO);
  7466                           	goto	l131
  7467  001F22  EF93  F00F         	
  7468                           l132:
  7469  001F26                     	
  7470                           l131:
  7471  001F26                     	btfsc	((c:4034)),c,1	;volatile
  7472  001F26  B2C2               	goto	u1881
  7473  001F28  EF98  F00F         	goto	u1880
  7474  001F2C  EF9A  F00F         u1881:
  7475  001F30                     	goto	l131
  7476  001F30  EF93  F00F         u1880:
  7477  001F34                     	goto	l2350
  7478  001F34  EF9C  F00F         	
  7479                           l133:
  7480  001F38                     	line	74
  7481                           	
  7482                           l2350:
  7483  001F38                     ;ADC.c: 74:  num = 0x03 & ADRESH;
  7484                           	movff	(c:4036),??_ADC_CONVERTIR+0+0	;volatile
  7485  001F38  CFC4 F003          	movlw	03h
  7486  001F3C  0E03               	andwf	(??_ADC_CONVERTIR+0+0),c
  7487  001F3E  1603               	movf	(??_ADC_CONVERTIR+0+0),c,w
  7488  001F40  5003               	movwf	((c:ADC_CONVERTIR@num)),c
  7489  001F42  6E04               	clrf	((c:ADC_CONVERTIR@num+1)),c
  7490  001F44  6A05               	line	75
  7491                           	
  7492                           l2352:
  7493  001F46                     ;ADC.c: 75:  num<<= 8;
  7494                           	movf	((c:ADC_CONVERTIR@num)),c,w
  7495  001F46  5004               	movwf	((c:ADC_CONVERTIR@num+1)),c
  7496  001F48  6E05               	clrf	((c:ADC_CONVERTIR@num)),c
  7497  001F4A  6A04               	line	76
  7498                           	
  7499                           l2354:
  7500  001F4C                     ;ADC.c: 76:  num +=ADRESL;
  7501                           	movf	((c:4035)),c,w	;volatile
  7502  001F4C  50C3               	addwf	((c:ADC_CONVERTIR@num)),c
  7503  001F4E  2604               	movlw	0
  7504  001F50  0E00               	addwfc	((c:ADC_CONVERTIR@num+1)),c
  7505  001F52  2205               	line	77
  7506                           	
  7507                           l2356:
  7508  001F54                     ;ADC.c: 77:  return(num);
  7509                           	movff	(c:ADC_CONVERTIR@num),(c:?_ADC_CONVERTIR)
  7510  001F54  C004  F001         	movff	(c:ADC_CONVERTIR@num+1),(c:?_ADC_CONVERTIR+1)
  7511  001F58  C005  F002         	goto	l134
  7512  001F5C  EFB0  F00F         	
  7513                           l2358:
  7514  001F60                     	line	78
  7515                           	
  7516                           l134:
  7517  001F60                     	return	;funcret
  7518  001F60  0012               	opt stack 0
  7519                           GLOBAL	__end_of_ADC_CONVERTIR
  7520                           	__end_of_ADC_CONVERTIR:
  7521  001F62                     	signat	_ADC_CONVERTIR,90
  7522                           	global	_ADC_CONFIG
  7523                           
  7524 ;; *************** function _ADC_CONFIG *****************
  7525 ;; Defined at:
  7526 ;;		line 6 in file "ADC.c"
  7527 ;; Parameters:    Size  Location     Type
  7528 ;;  canal           1    wreg     unsigned char 
  7529 ;; Auto vars:     Size  Location     Type
  7530 ;;  canal           1    2[COMRAM] unsigned char 
  7531 ;; Return value:  Size  Location     Type
  7532 ;;                  1    wreg      void 
  7533 ;; Registers used:
  7534 ;;		wreg, status,2, status,0
  7535 ;; Tracked objects:
  7536 ;;		On entry : 0/0
  7537 ;;		On exit  : 0/0
  7538 ;;		Unchanged: 0/0
  7539 ;; Data sizes:     COMRAM   BANK0   BANK1   BANK2   BANK3   BANK4   BANK5   BANK6   BANK7
  7540 ;;      Params:         0       0       0       0       0       0       0       0       0
  7541 ;;      Locals:         1       0       0       0       0       0       0       0       0
  7542 ;;      Temps:          2       0       0       0       0       0       0       0       0
  7543 ;;      Totals:         3       0       0       0       0       0       0       0       0
  7544 ;;Total ram usage:        3 bytes
  7545 ;; Hardware stack levels used:    1
  7546 ;; Hardware stack levels required when called:    1
  7547 ;; This function calls:
  7548 ;;		Nothing
  7549 ;; This function is called by:
  7550 ;;		_main
  7551 ;; This function uses a non-reentrant model
  7552 ;;
  7553                           psect	text23,class=CODE,space=0,reloc=2,group=0
  7554                           	line	6
  7555                           global __ptext23
  7556                           __ptext23:
  7557  0015FA                     psect	text23
  7558                           	file	"ADC.c"
  7559                           	line	6
  7560                           	global	__size_of_ADC_CONFIG
  7561                           	__size_of_ADC_CONFIG	equ	__end_of_ADC_CONFIG-_ADC_CONFIG
  7562  0000                     	
  7563                           _ADC_CONFIG:
  7564  0015FA                     ;incstack = 0
  7565                           	opt	stack 29
  7566                           ;ADC_CONFIG@canal stored from wreg
  7567                           	movwf	((c:ADC_CONFIG@canal)),c
  7568  0015FA  6E03               	line	8
  7569                           	
  7570                           l1518:
  7571  0015FC                     ;ADC.c: 6: void ADC_CONFIG(char canal);ADC.c: 7: {;ADC.c: 8:  TRISA = 0xFF;
  7572                           	setf	((c:3986)),c	;volatile
  7573  0015FC  6892               	line	9
  7574                           ;ADC.c: 9:  TRISE = 0xFF;
  7575                           	setf	((c:3990)),c	;volatile
  7576  0015FE  6896               	line	10
  7577                           	
  7578                           l1520:
  7579  001600                     ;ADC.c: 10:  TRISB = 0x0F;
  7580                           	movlw	low(0Fh)
  7581  001600  0E0F               	movwf	((c:3987)),c	;volatile
  7582  001602  6E93               	line	11
  7583                           ;ADC.c: 11:  switch(canal)
  7584                           	goto	l1576
  7585  001604  EF6E  F00B         	line	13
  7586                           ;ADC.c: 12:  {;ADC.c: 13:   case 0:
  7587                           	
  7588                           l114:
  7589  001608                     	line	14
  7590                           	
  7591                           l1522:
  7592  001608                     ;ADC.c: 14:    ADCON1=0x0E;
  7593                           	movlw	low(0Eh)
  7594  001608  0E0E               	movwf	((c:4033)),c	;volatile
  7595  00160A  6EC1               	line	15
  7596                           	
  7597                           l1524:
  7598  00160C                     ;ADC.c: 15:    ADCON0=canal<<2;
  7599                           	rlncf	((c:ADC_CONFIG@canal)),c,w
  7600  00160C  4403               	rlncf	wreg
  7601  00160E  46E8               	andlw	(0ffh shl 2) & 0ffh
  7602  001610  0BFC               	movwf	((c:4034)),c	;volatile
  7603  001612  6EC2               	line	16
  7604                           ;ADC.c: 16:   break;
  7605                           	goto	l1578
  7606  001614  EFAF  F00B         	line	17
  7607                           ;ADC.c: 17:   case 1:
  7608                           	
  7609                           l116:
  7610  001618                     	line	18
  7611                           	
  7612                           l1526:
  7613  001618                     ;ADC.c: 18:    ADCON1=0x0D;
  7614                           	movlw	low(0Dh)
  7615  001618  0E0D               	movwf	((c:4033)),c	;volatile
  7616  00161A  6EC1               	line	19
  7617                           	
  7618                           l1528:
  7619  00161C                     ;ADC.c: 19:    ADCON0=canal<<2;
  7620                           	rlncf	((c:ADC_CONFIG@canal)),c,w
  7621  00161C  4403               	rlncf	wreg
  7622  00161E  46E8               	andlw	(0ffh shl 2) & 0ffh
  7623  001620  0BFC               	movwf	((c:4034)),c	;volatile
  7624  001622  6EC2               	line	20
  7625                           ;ADC.c: 20:   break;
  7626                           	goto	l1578
  7627  001624  EFAF  F00B         	line	21
  7628                           ;ADC.c: 21:   case 2:
  7629                           	
  7630                           l117:
  7631  001628                     	line	22
  7632                           	
  7633                           l1530:
  7634  001628                     ;ADC.c: 22:    ADCON1=0x0C;
  7635                           	movlw	low(0Ch)
  7636  001628  0E0C               	movwf	((c:4033)),c	;volatile
  7637  00162A  6EC1               	line	23
  7638                           	
  7639                           l1532:
  7640  00162C                     ;ADC.c: 23:    ADCON0=canal<<2;
  7641                           	rlncf	((c:ADC_CONFIG@canal)),c,w
  7642  00162C  4403               	rlncf	wreg
  7643  00162E  46E8               	andlw	(0ffh shl 2) & 0ffh
  7644  001630  0BFC               	movwf	((c:4034)),c	;volatile
  7645  001632  6EC2               	line	24
  7646                           ;ADC.c: 24:   break;
  7647                           	goto	l1578
  7648  001634  EFAF  F00B         	line	25
  7649                           ;ADC.c: 25:   case 3:
  7650                           	
  7651                           l118:
  7652  001638                     	line	26
  7653                           	
  7654                           l1534:
  7655  001638                     ;ADC.c: 26:    ADCON1=0x0B;
  7656                           	movlw	low(0Bh)
  7657  001638  0E0B               	movwf	((c:4033)),c	;volatile
  7658  00163A  6EC1               	line	27
  7659                           	
  7660                           l1536:
  7661  00163C                     ;ADC.c: 27:    ADCON0=canal<<2;
  7662                           	rlncf	((c:ADC_CONFIG@canal)),c,w
  7663  00163C  4403               	rlncf	wreg
  7664  00163E  46E8               	andlw	(0ffh shl 2) & 0ffh
  7665  001640  0BFC               	movwf	((c:4034)),c	;volatile
  7666  001642  6EC2               	line	28
  7667                           ;ADC.c: 28:   break;
  7668                           	goto	l1578
  7669  001644  EFAF  F00B         	line	29
  7670                           ;ADC.c: 29:   case 4:
  7671                           	
  7672                           l119:
  7673  001648                     	line	30
  7674                           	
  7675                           l1538:
  7676  001648                     ;ADC.c: 30:    ADCON1=0x0A;
  7677                           	movlw	low(0Ah)
  7678  001648  0E0A               	movwf	((c:4033)),c	;volatile
  7679  00164A  6EC1               	line	31
  7680                           	
  7681                           l1540:
  7682  00164C                     ;ADC.c: 31:    ADCON0=canal<<2;
  7683                           	rlncf	((c:ADC_CONFIG@canal)),c,w
  7684  00164C  4403               	rlncf	wreg
  7685  00164E  46E8               	andlw	(0ffh shl 2) & 0ffh
  7686  001650  0BFC               	movwf	((c:4034)),c	;volatile
  7687  001652  6EC2               	line	32
  7688                           ;ADC.c: 32:   break;
  7689                           	goto	l1578
  7690  001654  EFAF  F00B         	line	33
  7691                           ;ADC.c: 33:   case 5:
  7692                           	
  7693                           l120:
  7694  001658                     	line	34
  7695                           	
  7696                           l1542:
  7697  001658                     ;ADC.c: 34:    ADCON1=0x09;
  7698                           	movlw	low(09h)
  7699  001658  0E09               	movwf	((c:4033)),c	;volatile
  7700  00165A  6EC1               	line	35
  7701                           	
  7702                           l1544:
  7703  00165C                     ;ADC.c: 35:    ADCON0=canal<<2;
  7704                           	rlncf	((c:ADC_CONFIG@canal)),c,w
  7705  00165C  4403               	rlncf	wreg
  7706  00165E  46E8               	andlw	(0ffh shl 2) & 0ffh
  7707  001660  0BFC               	movwf	((c:4034)),c	;volatile
  7708  001662  6EC2               	line	36
  7709                           ;ADC.c: 36:   break;
  7710                           	goto	l1578
  7711  001664  EFAF  F00B         	line	37
  7712                           ;ADC.c: 37:   case 6:
  7713                           	
  7714                           l121:
  7715  001668                     	line	38
  7716                           	
  7717                           l1546:
  7718  001668                     ;ADC.c: 38:    ADCON1=0x08;
  7719                           	movlw	low(08h)
  7720  001668  0E08               	movwf	((c:4033)),c	;volatile
  7721  00166A  6EC1               	line	39
  7722                           	
  7723                           l1548:
  7724  00166C                     ;ADC.c: 39:    ADCON0=canal<<2;
  7725                           	rlncf	((c:ADC_CONFIG@canal)),c,w
  7726  00166C  4403               	rlncf	wreg
  7727  00166E  46E8               	andlw	(0ffh shl 2) & 0ffh
  7728  001670  0BFC               	movwf	((c:4034)),c	;volatile
  7729  001672  6EC2               	line	40
  7730                           ;ADC.c: 40:   break;
  7731                           	goto	l1578
  7732  001674  EFAF  F00B         	line	41
  7733                           ;ADC.c: 41:   case 7:
  7734                           	
  7735                           l122:
  7736  001678                     	line	42
  7737                           	
  7738                           l1550:
  7739  001678                     ;ADC.c: 42:    ADCON1=0x07;
  7740                           	movlw	low(07h)
  7741  001678  0E07               	movwf	((c:4033)),c	;volatile
  7742  00167A  6EC1               	line	43
  7743                           	
  7744                           l1552:
  7745  00167C                     ;ADC.c: 43:    ADCON0=canal<<2;
  7746                           	rlncf	((c:ADC_CONFIG@canal)),c,w
  7747  00167C  4403               	rlncf	wreg
  7748  00167E  46E8               	andlw	(0ffh shl 2) & 0ffh
  7749  001680  0BFC               	movwf	((c:4034)),c	;volatile
  7750  001682  6EC2               	line	44
  7751                           ;ADC.c: 44:   break;
  7752                           	goto	l1578
  7753  001684  EFAF  F00B         	line	45
  7754                           ;ADC.c: 45:   case 8:
  7755                           	
  7756                           l123:
  7757  001688                     	line	46
  7758                           	
  7759                           l1554:
  7760  001688                     ;ADC.c: 46:    ADCON1=0x06;
  7761                           	movlw	low(06h)
  7762  001688  0E06               	movwf	((c:4033)),c	;volatile
  7763  00168A  6EC1               	line	47
  7764                           	
  7765                           l1556:
  7766  00168C                     ;ADC.c: 47:    ADCON0=canal<<2;
  7767                           	rlncf	((c:ADC_CONFIG@canal)),c,w
  7768  00168C  4403               	rlncf	wreg
  7769  00168E  46E8               	andlw	(0ffh shl 2) & 0ffh
  7770  001690  0BFC               	movwf	((c:4034)),c	;volatile
  7771  001692  6EC2               	line	48
  7772                           ;ADC.c: 48:   break;
  7773                           	goto	l1578
  7774  001694  EFAF  F00B         	line	49
  7775                           ;ADC.c: 49:   case 9:
  7776                           	
  7777                           l124:
  7778  001698                     	line	50
  7779                           	
  7780                           l1558:
  7781  001698                     ;ADC.c: 50:    ADCON1=0x05;
  7782                           	movlw	low(05h)
  7783  001698  0E05               	movwf	((c:4033)),c	;volatile
  7784  00169A  6EC1               	line	51
  7785                           	
  7786                           l1560:
  7787  00169C                     ;ADC.c: 51:    ADCON0=canal<<2;
  7788                           	rlncf	((c:ADC_CONFIG@canal)),c,w
  7789  00169C  4403               	rlncf	wreg
  7790  00169E  46E8               	andlw	(0ffh shl 2) & 0ffh
  7791  0016A0  0BFC               	movwf	((c:4034)),c	;volatile
  7792  0016A2  6EC2               	line	52
  7793                           ;ADC.c: 52:   break;
  7794                           	goto	l1578
  7795  0016A4  EFAF  F00B         	line	53
  7796                           ;ADC.c: 53:   case 10:
  7797                           	
  7798                           l125:
  7799  0016A8                     	line	54
  7800                           	
  7801                           l1562:
  7802  0016A8                     ;ADC.c: 54:    ADCON1=0x04;
  7803                           	movlw	low(04h)
  7804  0016A8  0E04               	movwf	((c:4033)),c	;volatile
  7805  0016AA  6EC1               	line	55
  7806                           	
  7807                           l1564:
  7808  0016AC                     ;ADC.c: 55:    ADCON0=canal<<2;
  7809                           	rlncf	((c:ADC_CONFIG@canal)),c,w
  7810  0016AC  4403               	rlncf	wreg
  7811  0016AE  46E8               	andlw	(0ffh shl 2) & 0ffh
  7812  0016B0  0BFC               	movwf	((c:4034)),c	;volatile
  7813  0016B2  6EC2               	line	56
  7814                           ;ADC.c: 56:   break;
  7815                           	goto	l1578
  7816  0016B4  EFAF  F00B         	line	57
  7817                           ;ADC.c: 57:   case 11:
  7818                           	
  7819                           l126:
  7820  0016B8                     	line	58
  7821                           	
  7822                           l1566:
  7823  0016B8                     ;ADC.c: 58:    ADCON1=0x03;
  7824                           	movlw	low(03h)
  7825  0016B8  0E03               	movwf	((c:4033)),c	;volatile
  7826  0016BA  6EC1               	line	59
  7827                           	
  7828                           l1568:
  7829  0016BC                     ;ADC.c: 59:    ADCON0=canal<<2;
  7830                           	rlncf	((c:ADC_CONFIG@canal)),c,w
  7831  0016BC  4403               	rlncf	wreg
  7832  0016BE  46E8               	andlw	(0ffh shl 2) & 0ffh
  7833  0016C0  0BFC               	movwf	((c:4034)),c	;volatile
  7834  0016C2  6EC2               	line	60
  7835                           ;ADC.c: 60:   break;
  7836                           	goto	l1578
  7837  0016C4  EFAF  F00B         	line	61
  7838                           ;ADC.c: 61:   case 12:
  7839                           	
  7840                           l127:
  7841  0016C8                     	line	62
  7842                           	
  7843                           l1570:
  7844  0016C8                     ;ADC.c: 62:    ADCON1=0x02;
  7845                           	movlw	low(02h)
  7846  0016C8  0E02               	movwf	((c:4033)),c	;volatile
  7847  0016CA  6EC1               	line	63
  7848                           	
  7849                           l1572:
  7850  0016CC                     ;ADC.c: 63:    ADCON0=canal<<2;
  7851                           	rlncf	((c:ADC_CONFIG@canal)),c,w
  7852  0016CC  4403               	rlncf	wreg
  7853  0016CE  46E8               	andlw	(0ffh shl 2) & 0ffh
  7854  0016D0  0BFC               	movwf	((c:4034)),c	;volatile
  7855  0016D2  6EC2               	line	64
  7856                           ;ADC.c: 64:   break;
  7857                           	goto	l1578
  7858  0016D4  EFAF  F00B         	line	65
  7859                           	
  7860                           l1574:
  7861  0016D8                     ;ADC.c: 65:  }
  7862                           	goto	l1578
  7863  0016D8  EFAF  F00B         	
  7864                           l113:
  7865  0016DC                     	
  7866                           l1576:
  7867  0016DC                     	movf	((c:ADC_CONFIG@canal)),c,w
  7868  0016DC  5003               	movwf	(??_ADC_CONFIG+0+0)&0ffh,c
  7869  0016DE  6E01               	clrf	(??_ADC_CONFIG+0+0+1)&0ffh,c
  7870  0016E0  6A02               
  7871                           	; Switch on 2 bytes has been partitioned into a top level switch of size 1, and 1 sub-s
                                 witches
  7872                           ; Switch size 1, requested type "space"
  7873                           ; Number of cases is 1, Range of values is 0 to 0
  7874                           ; switch strategies available:
  7875                           ; Name         Instructions Cycles
  7876                           ; simple_byte            4     3 (average)
  7877                           ;	Chosen strategy is simple_byte
  7878                           
  7879                           	movf ??_ADC_CONFIG+0+1,c,w
  7880  0016E2  5002               	xorlw	0^0	; case 0
  7881  0016E4  0A00               	skipnz
  7882  0016E6  B4D8               	goto	l2444
  7883  0016E8  EF78  F00B         	goto	l1578
  7884  0016EC  EFAF  F00B         	
  7885                           l2444:
  7886  0016F0                     ; Switch size 1, requested type "space"
  7887                           ; Number of cases is 13, Range of values is 0 to 12
  7888                           ; switch strategies available:
  7889                           ; Name         Instructions Cycles
  7890                           ; simple_byte           40    21 (average)
  7891                           ;	Chosen strategy is simple_byte
  7892                           
  7893                           	movf ??_ADC_CONFIG+0+0,c,w
  7894  0016F0  5001               	xorlw	0^0	; case 0
  7895  0016F2  0A00               	skipnz
  7896  0016F4  B4D8               	goto	l1522
  7897  0016F6  EF04  F00B         	xorlw	1^0	; case 1
  7898  0016FA  0A01               	skipnz
  7899  0016FC  B4D8               	goto	l1526
  7900  0016FE  EF0C  F00B         	xorlw	2^1	; case 2
  7901  001702  0A03               	skipnz
  7902  001704  B4D8               	goto	l1530
  7903  001706  EF14  F00B         	xorlw	3^2	; case 3
  7904  00170A  0A01               	skipnz
  7905  00170C  B4D8               	goto	l1534
  7906  00170E  EF1C  F00B         	xorlw	4^3	; case 4
  7907  001712  0A07               	skipnz
  7908  001714  B4D8               	goto	l1538
  7909  001716  EF24  F00B         	xorlw	5^4	; case 5
  7910  00171A  0A01               	skipnz
  7911  00171C  B4D8               	goto	l1542
  7912  00171E  EF2C  F00B         	xorlw	6^5	; case 6
  7913  001722  0A03               	skipnz
  7914  001724  B4D8               	goto	l1546
  7915  001726  EF34  F00B         	xorlw	7^6	; case 7
  7916  00172A  0A01               	skipnz
  7917  00172C  B4D8               	goto	l1550
  7918  00172E  EF3C  F00B         	xorlw	8^7	; case 8
  7919  001732  0A0F               	skipnz
  7920  001734  B4D8               	goto	l1554
  7921  001736  EF44  F00B         	xorlw	9^8	; case 9
  7922  00173A  0A01               	skipnz
  7923  00173C  B4D8               	goto	l1558
  7924  00173E  EF4C  F00B         	xorlw	10^9	; case 10
  7925  001742  0A03               	skipnz
  7926  001744  B4D8               	goto	l1562
  7927  001746  EF54  F00B         	xorlw	11^10	; case 11
  7928  00174A  0A01               	skipnz
  7929  00174C  B4D8               	goto	l1566
  7930  00174E  EF5C  F00B         	xorlw	12^11	; case 12
  7931  001752  0A07               	skipnz
  7932  001754  B4D8               	goto	l1570
  7933  001756  EF64  F00B         	goto	l1578
  7934  00175A  EFAF  F00B         
  7935                           	
  7936                           l115:
  7937  00175E                     	line	66
  7938                           	
  7939                           l1578:
  7940  00175E                     ;ADC.c: 66:  ADCON2 = 0x91;
  7941                           	movlw	low(091h)
  7942  00175E  0E91               	movwf	((c:4032)),c	;volatile
  7943  001760  6EC0               	line	67
  7944                           	
  7945                           l1580:
  7946  001762                     ;ADC.c: 67:  ADCON0bits.ADON = 1;
  7947                           	bsf	((c:4034)),c,0	;volatile
  7948  001762  80C2               	line	68
  7949                           	
  7950                           l128:
  7951  001764                     	return	;funcret
  7952  001764  0012               	opt stack 0
  7953                           GLOBAL	__end_of_ADC_CONFIG
  7954                           	__end_of_ADC_CONFIG:
  7955  001766                     	signat	_ADC_CONFIG,4217
  7956                           	global	_Tmr0ISR
  7957                           
  7958 ;; *************** function _Tmr0ISR *****************
  7959 ;; Defined at:
  7960 ;;		line 113 in file "isrmon.c"
  7961 ;; Parameters:    Size  Location     Type
  7962 ;;		None
  7963 ;; Auto vars:     Size  Location     Type
  7964 ;;		None
  7965 ;; Return value:  Size  Location     Type
  7966 ;;                  1    wreg      void 
  7967 ;; Registers used:
  7968 ;;		wreg, status,2
  7969 ;; Tracked objects:
  7970 ;;		On entry : 0/0
  7971 ;;		On exit  : 0/0
  7972 ;;		Unchanged: 0/0
  7973 ;; Data sizes:     COMRAM   BANK0   BANK1   BANK2   BANK3   BANK4   BANK5   BANK6   BANK7
  7974 ;;      Params:         0       0       0       0       0       0       0       0       0
  7975 ;;      Locals:         0       0       0       0       0       0       0       0       0
  7976 ;;      Temps:          0       0       0       0       0       0       0       0       0
  7977 ;;      Totals:         0       0       0       0       0       0       0       0       0
  7978 ;;Total ram usage:        0 bytes
  7979 ;; Hardware stack levels used:    1
  7980 ;; This function calls:
  7981 ;;		Nothing
  7982 ;; This function is called by:
  7983 ;;		Interrupt level 2
  7984 ;; This function uses a non-reentrant model
  7985 ;;
  7986                           psect	intcode,class=CODE,space=0,reloc=2
  7987                           global __pintcode
  7988                           __pintcode:
  7989  000008                     psect	intcode
  7990                           	file	"isrmon.c"
  7991                           	line	113
  7992                           	global	__size_of_Tmr0ISR
  7993                           	__size_of_Tmr0ISR	equ	__end_of_Tmr0ISR-_Tmr0ISR
  7994  0000                     	
  7995                           _Tmr0ISR:
  7996  000008                     ;incstack = 0
  7997                           	opt	stack 27
  7998                           	bsf int$flags,1,c ;set compiler interrupt flag (level 2)
  7999  000008  825F               	global	int_func
  8000                           	call	int_func,f	;refresh shadow registers
  8001  00000A  EDB1  F00F         psect	intcode_body,class=CODE,space=0,reloc=2
  8002                           global __pintcode_body
  8003                           __pintcode_body:
  8004  001F62                     int_func:
  8005  001F62                     
  8006                           	pop	; remove dummy address from shadow register refresh
  8007  001F62  0006               	line	114
  8008                           	
  8009                           i2l1730:
  8010  001F64                     ;isrmon.c: 114:     if (PORTEbits.RE0 == 1){
  8011                           	btfss	((c:3972)),c,0	;volatile
  8012  001F64  A084               	goto	i2u93_41
  8013  001F66  EFB7  F00F         	goto	i2u93_40
  8014  001F6A  EFB9  F00F         i2u93_41:
  8015  001F6E                     	goto	i2l90
  8016  001F6E  EFC4  F00F         i2u93_40:
  8017  001F72                     	line	115
  8018                           	
  8019                           i2l1732:
  8020  001F72                     ;isrmon.c: 115:         LATEbits.LE0 = 0;
  8021                           	bcf	((c:3981)),c,0	;volatile
  8022  001F72  908D               	line	116
  8023                           	
  8024                           i2l1734:
  8025  001F74                     ;isrmon.c: 116:         cta_msb = cta_off >> 8;
  8026                           	movf	((c:_cta_off+1)),c,w
  8027  001F74  504A               	movwf	((c:_cta_msb)),c
  8028  001F76  6E5C               	line	117
  8029                           	
  8030                           i2l1736:
  8031  001F78                     ;isrmon.c: 117:         cta_lsb = cta_off & 0x00ff;
  8032                           	movff	(c:_cta_off),(c:_cta_lsb)
  8033  001F78  C049  F05B         	line	118
  8034                           	
  8035                           i2l1738:
  8036  001F7C                     ;isrmon.c: 118:         TMR0H = cta_msb;
  8037                           	movff	(c:_cta_msb),(c:4055)	;volatile
  8038  001F7C  C05C  FFD7         	line	119
  8039                           	
  8040                           i2l1740:
  8041  001F80                     ;isrmon.c: 119:         TMR0L = cta_lsb;
  8042                           	movff	(c:_cta_lsb),(c:4054)	;volatile
  8043  001F80  C05B  FFD6         	line	120
  8044                           ;isrmon.c: 120:     }
  8045                           	goto	i2l1750
  8046  001F84  EFCF  F00F         	line	121
  8047                           ;isrmon.c: 121:     else{
  8048                           	
  8049                           i2l90:
  8050  001F88                     	line	122
  8051                           ;isrmon.c: 122:         LATEbits.LE0 = 1;
  8052                           	bsf	((c:3981)),c,0	;volatile
  8053  001F88  808D               	line	123
  8054                           	
  8055                           i2l1742:
  8056  001F8A                     ;isrmon.c: 123:         cta_msb = cta_on >> 8;
  8057                           	movf	((c:_cta_on+1)),c,w
  8058  001F8A  504C               	movwf	((c:_cta_msb)),c
  8059  001F8C  6E5C               	line	124
  8060                           	
  8061                           i2l1744:
  8062  001F8E                     ;isrmon.c: 124:         cta_lsb = cta_on & 0x00ff;
  8063                           	movff	(c:_cta_on),(c:_cta_lsb)
  8064  001F8E  C04B  F05B         	line	125
  8065                           	
  8066                           i2l1746:
  8067  001F92                     ;isrmon.c: 125:         TMR0H = cta_msb;
  8068                           	movff	(c:_cta_msb),(c:4055)	;volatile
  8069  001F92  C05C  FFD7         	line	126
  8070                           	
  8071                           i2l1748:
  8072  001F96                     ;isrmon.c: 126:         TMR0L = cta_lsb;
  8073                           	movff	(c:_cta_lsb),(c:4054)	;volatile
  8074  001F96  C05B  FFD6         	goto	i2l1750
  8075  001F9A  EFCF  F00F         	line	127
  8076                           ;isrmon.c: 127:     }
  8077                           	
  8078                           i2l91:
  8079  001F9E                     	line	128
  8080                           	
  8081                           i2l1750:
  8082  001F9E                     ;isrmon.c: 128:     INTCONbits.TMR0IF = 0;
  8083                           	bcf	((c:4082)),c,2	;volatile
  8084  001F9E  94F2               	line	129
  8085                           	
  8086                           i2l92:
  8087  001FA0                     	bcf int$flags,1,c ;clear compiler interrupt flag (level 2)
  8088  001FA0  925F               	retfie f
  8089  001FA2  0011               	opt stack 0
  8090                           GLOBAL	__end_of_Tmr0ISR
  8091                           	__end_of_Tmr0ISR:
  8092  001FA4                     	signat	_Tmr0ISR,89
  8093                           psect	smallconst
  8094                           	db 0	; dummy byte at the end
  8095  000811  00                 	global	__smallconst
  8096                           	global	__mediumconst
  8097                           	GLOBAL	__activetblptr
  8098                           __activetblptr	EQU	2
  8099  0000                     	psect	intsave_regs,class=BIGRAM,space=1,noexec
  8100                           	PSECT	rparam,class=COMRAM,space=1,noexec
  8101                           	GLOBAL	__Lrparam
  8102                           	FNCONF	rparam,??,?
  8103                           	GLOBAL	___rparam_used
  8104                           	___rparam_used EQU 1
  8105  0000                     	GLOBAL	___param_bank
  8106                           	___param_bank EQU 0
  8107  0000                     GLOBAL	__Lparam, __Hparam
  8108                           GLOBAL	__Lrparam, __Hrparam
  8109                           __Lparam	EQU	__Lrparam
  8110  0000                     __Hparam	EQU	__Hrparam
  8111  0000                            psect   temp,common,ovrld,class=COMRAM,space=1
  8112                           	global	btemp
  8113                           btemp:
  8114  00005F                     	ds	1
  8115  00005F                     	global	int$flags
  8116                           	int$flags	set btemp
  8117  0000                     	global	wtemp8
  8118                           	wtemp8 set btemp+1
  8119  0000                     	global	ttemp5
  8120                           	ttemp5 set btemp+1
  8121  0000                     	global	ttemp6
  8122                           	ttemp6 set btemp+4
  8123  0000                     	global	ttemp7
  8124                           	ttemp7 set btemp+8
  8125  0000                     	end


Data Sizes:
    Strings     16
    Constant    0
    Data        0
    BSS         32
    Persistent  0
    Stack       0

Auto Spaces:
    Space          Size  Autos    Used
    COMRAM           94     70      94
    BANK0           160      0       8
    BANK1           256      0       0
    BANK2           256      0       0
    BANK3           256      0       0
    BANK4           256      0       0
    BANK5           256      0       0
    BANK6           256      0       0
    BANK7           256      0       0

Pointer List with Targets:

    ESCRIBE_MENSAJE@cadena	PTR const unsigned char  size(2) Largest target is 5
		 -> STR_4(CODE[3]), STR_3(CODE[3]), STR_2(CODE[5]), STR_1(CODE[5]), 


Critical Paths under _main in COMRAM

    _main->_calculon
    _conviertemon->___awdiv
    _calculon2->___awdiv
    _calculon->___fladd
    ___flneg->___flmul
    ___flmul->___xxtofl
    ___fladd->___flneg
    _POS_CURSOR->_ENVIA_LCD_CMD
    _LCD_CONFIG->_ENVIA_LCD_CMD
    _ESCRIBE_MENSAJE->_ENVIA_CHAR
    _ENVIA_CHAR->_ENVIA_NIBBLE
    _ENVIA_CHAR->_LEER_LCD
    _CURSOR_ONOFF->_ENVIA_LCD_CMD
    _CURSOR_HOME->_ENVIA_LCD_CMD
    _BORRAR_LCD->_ENVIA_LCD_CMD
    _ENVIA_LCD_CMD->_ENVIA_NIBBLE
    _ENVIA_LCD_CMD->_LEER_LCD

Critical Paths under _Tmr0ISR in COMRAM

    None.

Critical Paths under _main in BANK0

    None.

Critical Paths under _Tmr0ISR in BANK0

    None.

Critical Paths under _main in BANK1

    None.

Critical Paths under _Tmr0ISR in BANK1

    None.

Critical Paths under _main in BANK2

    None.

Critical Paths under _Tmr0ISR in BANK2

    None.

Critical Paths under _main in BANK3

    None.

Critical Paths under _Tmr0ISR in BANK3

    None.

Critical Paths under _main in BANK4

    None.

Critical Paths under _Tmr0ISR in BANK4

    None.

Critical Paths under _main in BANK5

    None.

Critical Paths under _Tmr0ISR in BANK5

    None.

Critical Paths under _main in BANK6

    None.

Critical Paths under _Tmr0ISR in BANK6

    None.

Critical Paths under _main in BANK7

    None.

Critical Paths under _Tmr0ISR in BANK7

    None.

Call Graph Tables:

 ---------------------------------------------------------------------------------
 (Depth) Function   	        Calls       Base Space   Used Autos Params    Refs
 ---------------------------------------------------------------------------------
 (0) _main                                                 1     1      0   19986
                                             69 COMRAM     1     1      0
                         _ADC_CONFIG
                      _ADC_CONVERTIR
                         _BORRAR_LCD
                        _CURSOR_HOME
                       _CURSOR_ONOFF
                         _ENVIA_CHAR
                    _ESCRIBE_MENSAJE
                         _LCD_CONFIG
                         _POS_CURSOR
                           _calculon
                          _calculon2
                       _conviertemon
 ---------------------------------------------------------------------------------
 (1) _conviertemon                                         2     0      2    3879
                                              8 COMRAM     2     0      2
                            ___awdiv
                             ___wmul
 ---------------------------------------------------------------------------------
 (1) _calculon2                                            0     0      0    4269
                            ___awdiv
                            ___lwdiv
                             ___wmul
 ---------------------------------------------------------------------------------
 (1) _calculon                                             6     4      2    9475
                                             63 COMRAM     6     4      2
                            ___awdiv
                            ___fladd
                            ___flmul
                            ___flneg
                            ___fltol
                            ___lwdiv
                             ___wmul
                           ___xxtofl
 ---------------------------------------------------------------------------------
 (2) ___xxtofl                                            14    10      4     474
                                              0 COMRAM    14    10      4
 ---------------------------------------------------------------------------------
 (2) ___wmul                                               6     2      4    1983
                                              0 COMRAM     6     2      4
 ---------------------------------------------------------------------------------
 (2) ___lwdiv                                              7     3      4     466
                                              0 COMRAM     7     3      4
 ---------------------------------------------------------------------------------
 (2) ___fltol                                             10     6      4     381
                                              0 COMRAM    10     6      4
 ---------------------------------------------------------------------------------
 (2) ___flneg                                              4     0      4     121
                                             39 COMRAM     4     0      4
                            ___flmul (ARG)
                           ___xxtofl (ARG)
 ---------------------------------------------------------------------------------
 (2) ___flmul                                             25    17      8    1744
                                             14 COMRAM    25    17      8
                           ___xxtofl (ARG)
 ---------------------------------------------------------------------------------
 (2) ___fladd                                             20    12      8    2388
                                             43 COMRAM    20    12      8
                            ___flmul (ARG)
                            ___flneg (ARG)
                           ___xxtofl (ARG)
 ---------------------------------------------------------------------------------
 (2) ___awdiv                                              8     4      4    1820
                                              0 COMRAM     8     4      4
 ---------------------------------------------------------------------------------
 (1) _POS_CURSOR                                           2     1      1     664
                                              3 COMRAM     2     1      1
                      _ENVIA_LCD_CMD
 ---------------------------------------------------------------------------------
 (1) _LCD_CONFIG                                           1     1      0     135
                                              3 COMRAM     1     1      0
                      _ENVIA_LCD_CMD
                       _ENVIA_NIBBLE
 ---------------------------------------------------------------------------------
 (1) _ESCRIBE_MENSAJE                                      6     3      3     819
                                              3 COMRAM     6     3      3
                         _ENVIA_CHAR
 ---------------------------------------------------------------------------------
 (2) _ENVIA_CHAR                                           2     2      0     120
                                              1 COMRAM     2     2      0
                       _ENVIA_NIBBLE
                           _LEER_LCD
 ---------------------------------------------------------------------------------
 (1) _CURSOR_ONOFF                                         1     1      0     150
                                              3 COMRAM     1     1      0
                      _ENVIA_LCD_CMD
 ---------------------------------------------------------------------------------
 (1) _CURSOR_HOME                                          0     0      0     120
                      _ENVIA_LCD_CMD
 ---------------------------------------------------------------------------------
 (1) _BORRAR_LCD                                           0     0      0     120
                      _ENVIA_LCD_CMD
 ---------------------------------------------------------------------------------
 (2) _ENVIA_LCD_CMD                                        2     2      0     120
                                              1 COMRAM     2     2      0
                       _ENVIA_NIBBLE
                           _LEER_LCD
 ---------------------------------------------------------------------------------
 (3) _LEER_LCD                                             1     1      0      45
                                              0 COMRAM     1     1      0
 ---------------------------------------------------------------------------------
 (3) _ENVIA_NIBBLE                                         1     1      0      15
                                              0 COMRAM     1     1      0
 ---------------------------------------------------------------------------------
 (1) _ADC_CONVERTIR                                        5     3      2      25
                                              0 COMRAM     5     3      2
 ---------------------------------------------------------------------------------
 (1) _ADC_CONFIG                                           3     3      0     210
                                              0 COMRAM     3     3      0
 ---------------------------------------------------------------------------------
 Estimated maximum stack depth 3
 ---------------------------------------------------------------------------------
 (Depth) Function   	        Calls       Base Space   Used Autos Params    Refs
 ---------------------------------------------------------------------------------
 (4) _Tmr0ISR                                              0     0      0       0
 ---------------------------------------------------------------------------------
 Estimated maximum stack depth 4
 ---------------------------------------------------------------------------------

 Call Graph Graphs:

 _main (ROOT)
   _ADC_CONFIG
   _ADC_CONVERTIR
   _BORRAR_LCD
     _ENVIA_LCD_CMD
       _ENVIA_NIBBLE
       _LEER_LCD
   _CURSOR_HOME
     _ENVIA_LCD_CMD
       _ENVIA_NIBBLE
       _LEER_LCD
   _CURSOR_ONOFF
     _ENVIA_LCD_CMD
       _ENVIA_NIBBLE
       _LEER_LCD
   _ENVIA_CHAR
     _ENVIA_NIBBLE
     _LEER_LCD
   _ESCRIBE_MENSAJE
     _ENVIA_CHAR
       _ENVIA_NIBBLE
       _LEER_LCD
   _LCD_CONFIG
     _ENVIA_LCD_CMD
       _ENVIA_NIBBLE
       _LEER_LCD
     _ENVIA_NIBBLE
   _POS_CURSOR
     _ENVIA_LCD_CMD
       _ENVIA_NIBBLE
       _LEER_LCD
   _calculon
     ___awdiv
     ___fladd
       ___flmul (ARG)
         ___xxtofl (ARG)
       ___flneg (ARG)
         ___flmul (ARG)
           ___xxtofl (ARG)
         ___xxtofl (ARG)
       ___xxtofl (ARG)
     ___flmul
       ___xxtofl (ARG)
     ___flneg
       ___flmul (ARG)
         ___xxtofl (ARG)
       ___xxtofl (ARG)
     ___fltol
     ___lwdiv
     ___wmul
     ___xxtofl
   _calculon2
     ___awdiv
     ___lwdiv
     ___wmul
   _conviertemon
     ___awdiv
     ___wmul

 _Tmr0ISR (ROOT)

 Address spaces:
Name               Size   Autos  Total    Cost      Usage
BIGRAM             7FF      0       0      21        0.0%
EEDATA             100      0       0       0        0.0%
BITBANK7           100      0       0      18        0.0%
BANK7              100      0       0      19        0.0%
BITBANK6           100      0       0      16        0.0%
BANK6              100      0       0      17        0.0%
BITBANK5           100      0       0      14        0.0%
BANK5              100      0       0      15        0.0%
BITBANK4           100      0       0      12        0.0%
BANK4              100      0       0      13        0.0%
BITBANK3           100      0       0      10        0.0%
BANK3              100      0       0      11        0.0%
BITBANK2           100      0       0       8        0.0%
BANK2              100      0       0       9        0.0%
BITBANK1           100      0       0       6        0.0%
BANK1              100      0       0       7        0.0%
BITBANK0            A0      0       0       4        0.0%
BANK0               A0      0       8       5        5.0%
BITCOMRAM           5E      0       0       0        0.0%
COMRAM              5E     46      5E       1      100.0%
BITSFR               0      0       0     200        0.0%
SFR                  0      0       0     200        0.0%
STACK                0      0       0       2        0.0%
NULL                 0      0       0       0        0.0%
ABS                  0      0      66      20        0.0%
DATA                 0      0      66       3        0.0%
CODE                 0      0       0       0        0.0%


Microchip Technology PIC18 Macro Assembler V2.00 build -1524193055 
Symbol Table                                                                                   Thu Nov 01 22:37:45 2018

     __size_of_ADC_CONFIG 016C           ADC_CONFIG@canal 0003                        l71 1B2C  
                      l74 141C                        l82 17CC                        l83 18C2  
                      l84 18C6                        l77 1C3E                        l85 18C6  
                      u10 1E2A                        u11 1E26              ___awdiv@sign 0006  
     ___wmul@multiplicand 0003        __CFG_FOSC$XTPLL_XT 000000             ENVIA_CHAR@aux 0003  
                     l120 1658                       l200 1E18                       l113 16DC  
                     l121 1668                       l201 1DEA                       l122 1678  
                     l114 1608                       l202 1E2E                       l115 175E  
                     l123 1688                       l131 1F26                       l203 1E2E  
                     l211 20AC                       l124 1698                       l116 1618  
                     l132 1F26                       l125 16A8                       l117 1628  
                     l133 1F38                       l126 16B8                       l118 1638  
                     l134 1F60                       l127 16C8                       l119 1648  
                     l128 1764                       l171 20F6                       l155 1EFC  
                     l180 1E9C                       l156 1F1E                       l181 1EDC  
                     l157 1F1A                       l174 2000                       l182 1EDC  
                     l158 1F1E                       l510 1972                       l175 201A  
                     l191 1E8E                       l511 1976                       l176 201A  
                     l440 1CFE                       l432 1C62                       l512 198A  
                     l185 204E                       l441 1D1E                       l433 1C80  
                     l513 19E2                       l194 20EE                       l442 1D2A  
                     l434 1D02                       l514 19B6                       l179 1EC6  
                     l435 1CAE                       l515 19CA                       l507 18F8  
                     l188 20FE                       l436 1CA2                       l516 19BA  
                     l508 1A1A                       l197 2082                       l437 1CC0  
                     l517 19DE                       l509 198E                       l438 1CC4  
                     l518 1A06                       l702 1DAA                       l439 1CEE  
                     l703 1D5A                       l704 1D4E                       l705 1D6C  
                     l730 0884                       l706 1D70                       l731 08A2  
                     l707 1D9A                       l900 1DD4                       l740 0A2C  
                     l732 08BC                       l820 0DEA                       l484 1FCE  
                     l708 1DAA                       l741 09EA                       l733 08FA  
                     l821 0E04                       l485 1FE2                       l709 1DB2  
                     l910 1DF4                       l902 1DD6                       l750 0AB0  
                     l742 0A04                       l734 08F0                       l830 1080  
                     l822 0E24                       l751 0AB8                       l743 0A0C  
                     l735 090E                       l727 0832                       l831 1052  
                     l823 0E5E                       l912 1DF8                       l920 1E18  
                     l904 1DDE                       l760 0BF2                       l752 0ACC  
                     l744 0A20                       l736 0976                       l728 0870  
                     l840 1182                       l832 106C                       l824 0E58  
                     l753 0C40                       l761 0C08                       l745 0A42  
                     l737 0936                       l729 0866                       l841 11EA  
                     l833 1092                       l825 0E6E                       l922 20D6  
                     l914 1E02                       l906 1DE0                       l930 201E  
                     l770 0CF8                       l762 0C10                       l754 0B82  
                     l746 0AE0                       l738 09E6                       l842 11B4  
                     l834 10F4                       l826 0EAA                       l818 0DB6  
                     l771 0CF4                       l763 0C26                       l755 0B7E  
                     l747 0A78                       l739 0A42                       l843 11E6  
                     l835 10DA                       l819 0DF0                       l924 20E2  
                     l916 1E0C                       l908 1DEC                       l940 2032  
                     l932 2020                       l772 0D4C                       l764 0C3C  
                     l756 0B92                       l748 0D94                       l844 11DC  
                     l836 10F4                       l828 0E92                       l765 0C8A  
                     l757 0BD0                       l749 0ADC                       l837 10F0  
                     l829 1202                       l926 20E4                       l918 1E0E  
                     l950 2048                       l942 2034                       l934 2024  
                     l774 0D20                       l766 0C70                       l758 0C2A  
                     l838 1154                       l870 14CE                       l775 0D48  
                     l767 0C8A                       l759 0BD4                       l839 1150  
                     l871 14BE                       l928 20EC                       l960 2064  
                     l952 2052                       l944 2036                       l936 2028  
                     l776 0D60                       l768 0C86                       l880 1584  
                     l872 1500                       l777 0D66                       l769 0CFC  
                     l881 1598                       l873 151C                       l890 1DBC  
                     l970 2076                       l962 2066                       l954 2054  
                     l946 203C                       l938 2030                       l778 0D80  
                     l882 15E4                       l874 1504                       l866 1474  
                     l875 154E                       l867 1488                       l892 1DBE  
                     l884 1DB4                       l972 207C                       l964 2068  
                     l956 2058                       l948 2042                       l876 1562  
                     l868 14B6                       l877 1552                       l869 15F8  
                     l894 1DC6                       l886 1DB8                       l966 206A  
                     l958 205C                       l879 1584                       l896 1DCA  
                     l888 1DBA                       l968 2070                       l898 1DCC  
                     u870 1FF6                       u871 1FF2                       u880 2010  
                     u881 200C              __CFG_BOR$OFF 000000    __size_of_ADC_CONVERTIR 0042  
             LEER_LCD@aux 0001                       wreg 000FE8              ?_CURSOR_HOME 0001  
            ___flmul@aexp 0020              ___flmul@bexp 0021              ___flmul@sign 001B  
            ___flmul@temp 0026              ___flmul@prod 0022            ??_ENVIA_NIBBLE 0001  
            __CFG_LVP$OFF 000000              ___fltol@exp1 000A            ENVIA_CHAR@dato 0002  
            __CFG_WDT$OFF 000000                      l2000 0DB0                      l2010 0DF0  
                    l2002 0DB6                      l2100 111E                      l2020 0E24  
                    l2012 0E04                      l2004 0DC6                      l2110 119C  
                    l2102 1148                      l2030 0E7E                      l2022 0E34  
                    l2014 0E0A                      l2006 0DD6                      l2112 11B8  
                    l2120 11EA                      l2104 1154                      l2040 0EC0  
                    l2032 0E92                      l2024 0E44                      l2016 0E10  
                    l2008 0DEA                      l2200 1976                      l2130 1C52  
                    l2122 11EE                      l2114 11C8                      l2106 116E  
                    l2050 0F12                      l2042 0ED6                      l2034 0EA6  
                    l2026 0E58                      l2018 0E1E                      l2210 19BA  
                    l2202 1980                      l2140 1C80                      l2132 1C5A  
                    l2124 1202                      l2116 11D6                      l2108 1182  
                    l2060 0F58                      l2052 0F20                      l2044 0EE2  
                    l2036 0EAA                      l2028 0E5E                      l2220 1A1A  
                    l2212 19CA                      l2204 198E                      l2300 1B04  
                    l2150 1CC4                      l2142 1C88                      l2134 1C62  
                    l2126 1C40                      l2118 11DC                      l2070 0FC6  
                    l2062 0F72                      l2054 0F2C                      l2046 0EFA  
                    l2038 0EB6                      l2206 199E                      l2214 19E2  
                    l2230 1D5A                      l2222 1D2C                      l2310 130C  
                    l2302 1204                      l1520 1600                      l1600 1E70  
                    l2160 1CF4                      l2152 1CCA                      l2144 1C9A  
                    l2136 1C70                      l2128 1C44                      l2080 105C  
                    l2072 0FF0                      l2064 0F82                      l2056 0F3C  
                    l2048 0F06                      l2216 19F2                      l2208 19B2  
                    l2240 1D9A                      l2232 1D70                      l2224 1D34  
                    l2312 1350                      l2304 1288                      l2320 1B2E  
                    l2400 1806                      l1530 1628                      l1522 1608  
                    l1610 20F8                      l1602 1E76                      l2154 1CE0  
                    l2146 1CA2                      l2162 1D02                      l2138 1C78  
                    l2090 10A4                      l2082 106A                      l2074 1026  
                    l2066 0F9E                      l2058 0F48                      l2170 1FA4  
                    l2218 1A06                      l2242 1DA0                      l2234 1D76  
                    l2226 1D46                      l2250 1488                      l2314 136C  
                    l2306 12D4                      l2330 1C16                      l2322 1B4A  
                    l2410 183C                      l2402 180E                      l1540 164C  
                    l1532 162C                      l1524 160C                      l1620 20F0  
                    l1612 1FE6                      l2332 1E90                      l1604 1E7C  
                    l2340 1EE0                      l2164 1D12                      l2156 1CE8  
                    l2148 1CAE                      l2092 10D2                      l2084 1080  
                    l2076 1034                      l2068 0FAA                      l2172 1FBA  
                    l2180 18E0                      l2236 1D8C                      l2228 1D4E  
                    l2260 14CE                      l2252 149E                      l2244 1420  
                    l2316 13B0                      l2308 12F0                      l2324 1B72  
                    l2420 1866                      l2412 1846                      l2404 1816  
                    l1550 1678                      l1542 1658                      l1534 1638  
                    l1526 1618                      l1518 15FC                      l2350 1F38  
                    l1614 1FF6                      l2334 1E9C                      l1606 1E82  
                    l2342 1EF0                      l2166 1D1E                      l2158 1CEE  
                    l2094 10E8                      l2086 1092                      l2078 1052  
                    l2174 1FCE                      l2190 1934                      l2182 18F4  
                    l2238 1D94                      l2270 1562                      l2262 1504  
                    l2254 14B2                      l2246 1430                      l2318 13D8  
                    l2326 1BB6                      l2430 1896                      l2422 186E  
                    l2414 184E                      l2406 1822                      l1560 169C  
                    l1552 167C                      l1544 165C                      l1536 163C  
                    l1528 161C                      l2352 1F46                      l1616 2000  
                    l2336 1EC0                      l1608 1E88                      l2344 1EFC  
                    l2168 1D2A                      l1800 0832                      l2096 1104  
                    l2088 1096                      l2176 1FE2                      l2192 1938  
                    l2184 18F8                      l2280 15C0                      l2272 1570  
                    l2264 1506                      l2256 14B6                      l2248 143E  
                    l2328 1BD2                      l2432 189E                      l2424 1878  
                    l2416 1856                      l2408 182C                      l2360 1766  
                    l1570 16C8                      l1562 16A8                      l1554 1688  
                    l1546 1668                      l1538 1648                      l2354 1F4C  
                    l1618 2010                      l2338 1EC6                      l2346 1F0E  
                    l1802 0842                      l1810 0870                      l2098 1110  
                    l2194 1946                      l2186 1922                      l2178 18CA  
                    l2282 15D0                      l2274 1592                      l2266 1512  
                    l2258 14BE                      l2290 1A1C                      l2434 18A6  
                    l2426 187C                      l2418 185E                      l2370 177A  
                    l2362 176C                      l1580 1762                      l2444 16F0  
                    l1572 16CC                      l1564 16AC                      l1556 168C  
                    l1548 166C                      l2356 1F54                      l2348 1F20  
                    l1900 0A78                      l1820 08A8                      l1812 0884  
                    l1804 0852                      l2196 195A                      l2188 1924  
                    l2284 15DE                      l2276 1598                      l2268 1552  
                    l2292 1A38                      l2436 18AE                      l2428 188C  
                    l2380 179C                      l2372 177E                      l2364 176E  
                    l1574 16D8                      l1566 16B8                      l1558 1698  
                    l2358 1F60                      l1590 1E3A                      l1910 0AB8  
                    l1902 0A88                      l1830 08F0                      l1822 08B6  
                    l1814 088A                      l1806 0866                      l2198 196E  
                    l2286 15E4                      l2278 159C                      l2294 1A60  
                    l2438 18B6                      l2390 17D8                      l2382 17AC  
                    l2374 178E                      l2366 1772                      l1568 16BC  
                    l1576 16DC                      l1592 1E48                      l1920 0B06  
                    l1912 0AC6                      l1904 0A96                      l1840 092E  
                    l1832 08F2                      l1824 08BC                      l1816 089C  
                    l1808 0868                      l2288 15F8                      l2296 1AA4  
                    l2392 17E4                      l2384 17B6                      l2376 1792  
                    l2368 1776                      l1578 175E                      l1594 1E5C  
                    l1586 1E30                      l1930 0BA8                      l1922 0B5C  
                    l1914 0ACC                      l1906 0AA4                      l1850 0946  
                    l1842 0936                      l1826 08CC                      l1834 08FA  
                    l1818 08A2                      l2298 1AC0                      l2394 17EE  
                    l2386 17C6                      l2378 1798                      l1596 1E64  
                    l1588 1E34                      l1940 0BEC                      l1932 0BB8  
                    l1924 0B5E                      l1916 0AD6                      l1908 0AB0  
                    l1860 095A                      l1852 094A                      l1844 093A  
                    l1836 090E                      l1828 08DC                      l2396 17F6  
                    l2388 17CC                      l1598 1E6A                      l1950 0C20  
                    l1942 0BF2                      l1934 0BCC                      l1926 0B6E  
                    l1918 0AE0                      l1870 096E                      l1862 095E  
                    l1854 094E                      l1846 093E                      l1838 0920  
                    l1790 20A0                      l2398 17FE                      l1960 0C68  
                    l1944 0C00                      l1936 0BD4                      l1952 0C2A  
                    l1928 0B82                      l1880 09DE                      l1864 0962  
                    l1856 0952                      l1848 0942                      l1872 0976  
                    l1792 20AC                      l1970 0CEE                      l1962 0C7E  
                    l1946 0C08                      l1938 0BDE                      l1954 0C40  
                    l1890 0A20                      l1882 09F8                      l1874 097A  
                    l1866 0966                      l1858 0956                      l1794 0812  
                    l1980 0D4C                      l1964 0C9A                      l1972 0CFC  
                    l1956 0C44                      l1948 0C10                      l1892 0A2A  
                    l1884 0A04                      l1876 09B2                      l1868 096A  
                    l1796 081E                      l1788 2084                      l1990 0D7A  
                    l1982 0D5A                      l1974 0D0C                      l1966 0CA6  
                    l1958 0C52                      l1894 0A50                      l1886 0A0C  
                    l1878 09CE                      l1798 082C                      l1992 0D80  
                    l1984 0D60                      l1976 0D20                      l1968 0CB4  
                    l1896 0A60                      l1888 0A1A                      l1994 0D94  
                    l1986 0D66                      l1978 0D40                      l1898 0A74  
                    l1988 0D6C                      l1996 0D96                      l1998 0DA2  
                    STR_1 0801                      STR_2 0806                      STR_3 080B  
                    STR_4 080E                      u1000 082C                      u1001 0828  
                    u1010 0842                      u1011 083E                      u1100 09CA  
                    u1020 0852                      u1101 09C4                      u1021 084E  
                    u1110 09CC                      u1030 089C                      u1031 0898  
                    u1200 0B06                      u1120 09F8                      u1040 08B6  
                    u1201 0B02                      u1121 09F4                      u1041 08B2  
                    u1210 0B6E                      u1130 0A1A                      u1050 08CC  
                    u1211 0B6A                      u1131 0A16                      u1051 08C8  
                    u1300 0C7E                      u1220 0BA8                      u1140 0A3E  
                    u1060 08DC                      u1301 0C7A                      u1221 0BA4  
                    u1141 0A3A                      u1061 08D8                      u1310 0C9A  
                    u1230 0BB8                      u1150 0A50                      u1070 0920  
                    u2007 1E06                      u1311 0C96                      u1231 0BB4  
                    u1151 0A4C                      u1071 091C                      u1320 0CB4  
                    u1240 0BEC                      u1160 0A60                      u1080 092E  
                    u1400 0DC6                      u2017 20E6                      u1321 0CB0  
                    u1241 0BE8                      u1161 0A5C                      u1081 092A  
                    u1401 0DC2                      u1330 0CEE                      u1250 0C00  
                    u1170 0A96                      u1090 09B2                      u1410 0DD6  
                    u1331 0CEA                      u1251 0BFC                      u1171 0A92  
                    u1091 09AE                      u1411 0DD2                      u1340 0D0C  
                    u1260 0C20                      u1180 0AA4                      u1500 10A4  
                    u1420 0E1E                      u1341 0D08                      u1261 0C1C  
                    u1181 0AA0                      u1501 10A0                      u1421 0E1A  
                    u1350 0D1C                      u1270 0C38                      u1190 0AC6  
                    u1510 10D2                      u1430 0E34                      u1351 0D18  
                    u1271 0C34                      u1191 0AC2                      u1511 10CE  
                    u1431 0E30                      u1600 1C9A                      u1360 0D40  
                    u1280 0C52                      u1520 10E8                      u1440 0E44  
                    _LATD 000F8C                      u1601 1C96                      u1361 0D3C  
                    u1281 0C4E                      u1521 10E4                      u1441 0E40  
                    u1610 1CBC                      u1370 0D5A                      u1290 0C68  
                    u1530 1104                      u1450 0E7E                      u1611 1CB8  
                    u1371 0D56                      u1291 0C64                      u1531 1100  
                    u1451 0E7A                      u1620 1CE0                      u1380 0D7A  
                    u1540 111E                      u1460 0E8E                      u1700 19DA  
                    u1621 1CDC                      u1381 0D76                      u1541 111A  
                    u1461 0E8A                      u1701 19D6                      u1630 1D12  
                    u1550 116E                      u1470 1010                      u1390 0DB0  
                    u1710 19F2                      u1631 1D0E                      u1551 116A  
                    u1391 0DAC                      u1711 19EE                      u1560 119C  
                    u1480 106A                      u1640 1FBA                      u1720 1D46  
                    u1800 1570                      u1561 1198                      u1481 1066  
                    u1641 1FB6                      u1721 1D42                      u1801 156C  
                    u1570 11D6                      u1490 108E                      u1650 18E0  
                    u1730 1D68                      u1810 1580                      u1571 11D2  
                    u1491 108A                      u1475 1006                      u1651 18DC  
                    u1731 1D64                      u1811 157C                      u1580 1C52  
                    u1660 1918                      u1740 1D8C                      u1820 1592  
                    u1581 1C4E                      u1741 1D88                      u1821 158E  
                    u1590 1C70                      u1670 1946                      u1830 15D0  
                    u1750 1430                      u1591 1C6C                      u1671 1942  
                    u1831 15CC                      u1751 142C                      u1680 195A  
                    u1840 15DE                      u1760 143E                      u1681 1956  
                    u1665 190E                      u1841 15DA                      u1761 143A  
                    u1850 1ED8                      u1690 199E                      u1770 149E  
                    u1851 1ED4                      u1907 1E40                      u1691 199A  
                    u1771 149A                      u1860 1EF0                      u1780 14FC  
                    u1917 1E4E                      u1861 1EEC                      u1781 14F8  
                    u1870 1F0E                      u1790 154A                      u1927 1E5E  
                    u1871 1F0A                      u1791 1546                      u1880 1F34  
                    u1881 1F30                      u1937 202A                      u1947 205E  
                    u1957 1DC0                      u1967 1DCE                      u1977 1DD8  
                    u1897 1784                      u1987 1DEE                      u1997 1DFC  
                    i2l90 1F88                      i2l91 1F9E                      i2l92 1FA0  
            __CFG_PWRT$ON 000000                      _main 1766                      btemp 005F  
                    prodh 000FF4                      prodl 000FF3                      start 000E  
           ?_CURSOR_ONOFF 0001             __CFG_MCLRE$ON 000000              ___param_bank 000000  
         ??_ENVIA_LCD_CMD 0002             ?_conviertemon 0009           __end_of_Tmr0ISR 1FA4  
        __end_of_LEER_LCD 1E30       __size_of_BORRAR_LCD 0008         calculon@blablabla 0040  
           __CFG_PLLDIV$1 000000            __CFG_CCP2MX$ON 000000             ___fltol@sign1 0009  
         __end_of___fladd 0D96                     ?_main 0001           __end_of___awdiv 1D2C  
         __end_of___flneg 1FE4           __end_of___flmul 1204           __end_of___fltol 1A1C  
                   _T0CON 000FD5           ___awdiv@divisor 0003           __end_of___lwdiv 1DB4  
         ___awdiv@counter 0005                     _TMR0H 000FD7                     _TMR0L 000FD6  
                   _PORTD 000F83       __size_of_LCD_CONFIG 0060                     _TRISA 000F92  
                   _TRISB 000F93                     _TRISD 000F95                     _TRISE 000F96  
     __size_of_ENVIA_CHAR 0034               ?_POS_CURSOR 0004                     _resul 0047  
                   tablat 000FF5                     ttemp5 0060                     ttemp6 0063  
                   ttemp7 0067                     status 000FD8                     wtemp8 0060  
          ??_CURSOR_ONOFF 0004             _ADC_CONVERTIR 1F20    conviertemon@contadoron 0009  
         __initialization 20AE            ??_conviertemon 000B              __end_of_main 18CA  
         _ESCRIBE_MENSAJE 1E90                    ??_main 0046             __activetblptr 000002  
        ADC_CONVERTIR@num 0004              ??_ADC_CONFIG 0001                    _ADCON0 000FC2  
                  _ADCON1 000FC1                    _ADCON2 000FC0                    _ADRESH 000FC4  
                  _ADRESL 000FC3          ___awdiv@dividend 0001                    i2l1730 1F64  
                  i2l1740 1F80                    i2l1732 1F72                    i2l1742 1F8A  
                  i2l1750 1F9E                    i2l1734 1F74                    i2l1744 1F8E  
                  i2l1736 1F78                    i2l1746 1F92                    i2l1738 1F7C  
                  i2l1748 1F96                    _INTCON 000FF2          __end_of_calculon 141E  
          ?_ADC_CONVERTIR 0001          __end_of___xxtofl 15FA                 ??_Tmr0ISR 0001  
               ??___fladd 0034        __end_of_ADC_CONFIG 1766                    ___wmul 2084  
               ??___awdiv 0005                 ??___flneg 002C      __end_of_ENVIA_NIBBLE 20F0  
               ??___flmul 0017                 ??___fltol 0005                    _digdec 0055  
                  _digcen 0057                    _digdmi 005D                    _digmil 0059  
                  _diguni 0053                 ??___lwdiv 0005                    _cta_on 004B  
     __size_of_POS_CURSOR 0042                    clear_0 20B4                    clear_1 20C0  
        ___awdiv@quotient 0007              __mediumconst 0000                    tblptrh 000FF7  
                  tblptrl 000FF6                    tblptru 000FF8              ??_BORRAR_LCD 0004  
    __size_of_CURSOR_HOME 0008              ___xxtofl@arg 000B              ___xxtofl@exp 000A  
            ___xxtofl@val 0001                 ?_LEER_LCD 0001                __accesstop 0060  
 __end_of__initialization 20C6           __CFG_PBADEN$OFF 000000                ___flneg@f1 0028  
            ??_LCD_CONFIG 0004             ___rparam_used 000001              ??_ENVIA_CHAR 0002  
              ___fltol@f1 0001   __end_of_ESCRIBE_MENSAJE 1EDE            __pcstackCOMRAM 0001  
      __size_of_calculon2 0112        __end_of_BORRAR_LCD 2100          ENVIA_LCD_CMD@aux 0003  
    __end_of_CURSOR_ONOFF 201C        __end_of_LCD_CONFIG 1E90        __end_of_ENVIA_CHAR 2050  
    __end_of_conviertemon 1B2E                __pbssBANK0 0060           ??_ADC_CONVERTIR 0003  
              ??_LEER_LCD 0001          ENVIA_NIBBLE@dato 0001                   ?___wmul 0001  
               ?_calculon 0040                 ?___xxtofl 0001                   i2u93_40 1F72  
                 i2u93_41 1F6E         __end_of_calculon2 1C40              ??_POS_CURSOR 0005  
   __size_of_ENVIA_NIBBLE 001C                   _Tmr0ISR 0008                   __Hparam 0000  
                 __Lparam 0000          ?_ESCRIBE_MENSAJE 0004                   ___fladd 0812  
                 ___awdiv 1C40                   ___flneg 1FA4                   ___flmul 0D96  
                 ___fltol 18CA           __size_of___wmul 002A                   ___lwdiv 1D2C  
            __psmallconst 0800     __end_of_ENVIA_LCD_CMD 2084                   __pcinit 20AE  
      __end_of_POS_CURSOR 1F20                   __ramtop 0800                   __ptext0 1766  
                 __ptext1 1A1C                   __ptext2 1B2E                   __ptext3 1204  
                 __ptext4 141E                   __ptext5 2084                   __ptext6 1D2C  
                 __ptext7 18CA                   __ptext8 1FA4                   __ptext9 0D96  
                 _cta_off 0049                   _cta_lsb 005B                   _cta_msb 005C  
              ??_calculon 0042                ??___xxtofl 0005            __pintcode_body 1F62  
            _ENVIA_NIBBLE 20D4      end_of_initialization 20C6             __Lmediumconst 0000  
                 int_func 1F62                _pre_cta_on 0064                   postinc0 000FEE  
   __size_of_CURSOR_ONOFF 0038                 _PORTEbits 000F84     __size_of_conviertemon 0112  
             ___fladd@grs 003F             ___xxtofl@sign 0009                 _TRISEbits 000F96  
             ___flmul@grs 001C         __size_of_LEER_LCD 007C              _CURSOR_ONOFF 1FE4  
      CURSOR_ONOFF@estado 0004              _conviertemon 1A1C            __end_of___wmul 20AE  
           ??_CURSOR_HOME 0004       start_initialization 20AE         ENVIA_LCD_CMD@dato 0002  
                ??___wmul 0005                 ___fladd@a 0030                 ___fladd@b 002C  
               ___flmul@a 0013                 ___flmul@b 000F               __pbssCOMRAM 0047  
       __size_of_calculon 021A         __size_of___xxtofl 01DC       __end_of_CURSOR_HOME 20F8  
               _calculon2 1B2E     __end_of_ADC_CONVERTIR 1F62                  ?_Tmr0ISR 0001  
        ___lwdiv@dividend 0001                 __pintcode 0008                  ?___fladd 002C  
                ?___awdiv 0001                  ?___flneg 0028                  ?___flmul 000F  
                ?___fltol 0001                  ?___lwdiv 0001               __smallconst 0800  
        ___lwdiv@quotient 0005                  _LEER_LCD 1DB4            ___wmul@product 0005  
              ?_calculon2 0001                  _LATDbits 000F8C                  _LATEbits 000F8D  
               _temporal2 004F                 _temporal3 004D          ESCRIBE_MENSAJE@i 0009  
          POS_CURSOR@fila 0005  __size_of_ESCRIBE_MENSAJE 004E                _ADCON0bits 000FC2  
       ___wmul@multiplier 0001               _CURSOR_HOME 20F0                _ADC_CONFIG 15FA  
  __size_of_ENVIA_LCD_CMD 0034                  __Hrparam 0000          __size_of_Tmr0ISR 1F9C  
                __Lrparam 0000          __size_of___fladd 0584          __size_of___awdiv 00EC  
        __size_of___flneg 0040          __size_of___flmul 046E          __size_of___fltol 0152  
        __size_of___lwdiv 0088                  _calculon 1204                  ___xxtofl 141E  
         ___lwdiv@divisor 0003           ___lwdiv@counter 0007                  __ptext10 0812  
                __ptext11 1C40                  __ptext20 1DB4                  __ptext12 1EDE  
                __ptext21 20D4                  __ptext13 1E30                  __ptext22 1F20  
                __ptext14 1E90                  __ptext23 15FA                  __ptext15 201C  
                __ptext16 1FE4                  __ptext17 20F0                  __ptext18 20F8  
                __ptext19 2050                _BORRAR_LCD 20F8               ??_calculon2 0009  
           __size_of_main 0164                _LCD_CONFIG 1E30                _ENVIA_CHAR 201C  
                _temporal 0051                  int$flags 005F             _ENVIA_LCD_CMD 2050  
   __CFG_CPUDIV$OSC1_PLL2 000000                _INTCONbits 000FF2               ?_ADC_CONFIG 0001  
       ??_ESCRIBE_MENSAJE 0007                  intlevel2 0000     ESCRIBE_MENSAJE@cadena 0004  
             _pre_cta_off 0060            ?_ENVIA_LCD_CMD 0001               ?_BORRAR_LCD 0001  
           ?_ENVIA_NIBBLE 0001             ___fladd@signs 003C                _POS_CURSOR 1EDE  
            ___fladd@aexp 003D              ___fladd@bexp 003E               ?_LCD_CONFIG 0001  
      ESCRIBE_MENSAJE@tam 0006               ?_ENVIA_CHAR 0001         POS_CURSOR@columna 0004  
