MPLINK 5.09, LINKER
Linker Map File - Created Wed Jan 22 19:09:35 2020

                                 Section Info
                  Section       Type    Address   Location Size(Bytes)
                ---------  ---------  ---------  ---------  ---------
                   .org_1       code   0x000000    program   0x000004
                   .cinit    romdata   0x000004    program   0x000002
                   .org_2       code   0x000008    program   0x000004
                   .org_3       code   0x000018    program   0x000004
                   .org_4       code   0x000020    program   0x000196
                   .org_0       code   0x000600    program   0x00001a
.config_300001_BUILD/DEFAULT/PRODUCTION/MAINCOD    romdata   0x300001    program   0x000001
.config_300002_BUILD/DEFAULT/PRODUCTION/MAINCOD    romdata   0x300002    program   0x000001
.config_300003_BUILD/DEFAULT/PRODUCTION/MAINCOD    romdata   0x300003    program   0x000001
.config_300005_BUILD/DEFAULT/PRODUCTION/MAINCOD    romdata   0x300005    program   0x000001
.config_300006_BUILD/DEFAULT/PRODUCTION/MAINCOD    romdata   0x300006    program   0x000001



                              Program Memory Usage 
                               Start         End      
                           ---------   ---------      
                            0x000000    0x000005      
                            0x000008    0x00000b      
                            0x000018    0x00001b      
                            0x000020    0x0001b5      
                            0x000600    0x000619      
                            0x300001    0x300003      
                            0x300005    0x300006      
            451 out of 33048 program addresses used, program memory utilization is 1%



                              Symbols - Sorted by Name
                     Name    Address   Location    Storage File                     
                ---------  ---------  ---------  --------- ---------                
                   albtn2   0x0000f8    program     static D:\Micro 2020-0\Ejercicio 09 - Laboratorio Calificado 1.X\maincode.asm
                   anid_1   0x00018a    program     static D:\Micro 2020-0\Ejercicio 09 - Laboratorio Calificado 1.X\maincode.asm
                   anid_2   0x0001a0    program     static D:\Micro 2020-0\Ejercicio 09 - Laboratorio Calificado 1.X\maincode.asm
                   aunno1   0x00008a    program     static D:\Micro 2020-0\Ejercicio 09 - Laboratorio Calificado 1.X\maincode.asm
                   aunno2   0x0000a6    program     static D:\Micro 2020-0\Ejercicio 09 - Laboratorio Calificado 1.X\maincode.asm
                   aunno3   0x0000c4    program     static D:\Micro 2020-0\Ejercicio 09 - Laboratorio Calificado 1.X\maincode.asm
                     btn1   0x000102    program     static D:\Micro 2020-0\Ejercicio 09 - Laboratorio Calificado 1.X\maincode.asm
                     btn2   0x00010c    program     static D:\Micro 2020-0\Ejercicio 09 - Laboratorio Calificado 1.X\maincode.asm
                     btn3   0x000116    program     static D:\Micro 2020-0\Ejercicio 09 - Laboratorio Calificado 1.X\maincode.asm
                    bucle   0x0000d2    program     static D:\Micro 2020-0\Ejercicio 09 - Laboratorio Calificado 1.X\maincode.asm
                configuro   0x000020    program     static D:\Micro 2020-0\Ejercicio 09 - Laboratorio Calificado 1.X\maincode.asm
                elprimero   0x000076    program     static D:\Micro 2020-0\Ejercicio 09 - Laboratorio Calificado 1.X\maincode.asm
                elsegundo   0x000094    program     static D:\Micro 2020-0\Ejercicio 09 - Laboratorio Calificado 1.X\maincode.asm
                eltercero   0x0000ce    program     static D:\Micro 2020-0\Ejercicio 09 - Laboratorio Calificado 1.X\maincode.asm
                   falso1   0x000184    program     static D:\Micro 2020-0\Ejercicio 09 - Laboratorio Calificado 1.X\maincode.asm
                   falso2   0x00019a    program     static D:\Micro 2020-0\Ejercicio 09 - Laboratorio Calificado 1.X\maincode.asm
                   falso3   0x0001b0    program     static D:\Micro 2020-0\Ejercicio 09 - Laboratorio Calificado 1.X\maincode.asm
                   hi_isr   0x0000ee    program     static D:\Micro 2020-0\Ejercicio 09 - Laboratorio Calificado 1.X\maincode.asm
                   inicio   0x000052    program     static D:\Micro 2020-0\Ejercicio 09 - Laboratorio Calificado 1.X\maincode.asm
                   lo_isr   0x000120    program     static D:\Micro 2020-0\Ejercicio 09 - Laboratorio Calificado 1.X\maincode.asm
                  mensaje   0x000600    program     static D:\Micro 2020-0\Ejercicio 09 - Laboratorio Calificado 1.X\maincode.asm
                    noops   0x000160    program     static D:\Micro 2020-0\Ejercicio 09 - Laboratorio Calificado 1.X\maincode.asm
                   nopues   0x0000e4    program     static D:\Micro 2020-0\Ejercicio 09 - Laboratorio Calificado 1.X\maincode.asm
                    otro1   0x000176    program     static D:\Micro 2020-0\Ejercicio 09 - Laboratorio Calificado 1.X\maincode.asm
                    otro2   0x00018c    program     static D:\Micro 2020-0\Ejercicio 09 - Laboratorio Calificado 1.X\maincode.asm
                    otro3   0x0001a2    program     static D:\Micro 2020-0\Ejercicio 09 - Laboratorio Calificado 1.X\maincode.asm
                   parte2   0x0000b0    program     static D:\Micro 2020-0\Ejercicio 09 - Laboratorio Calificado 1.X\maincode.asm
            retardo_500ms   0x000174    program     static D:\Micro 2020-0\Ejercicio 09 - Laboratorio Calificado 1.X\maincode.asm
            segundaprueba   0x00005e    program     static D:\Micro 2020-0\Ejercicio 09 - Laboratorio Calificado 1.X\maincode.asm
            terceraprueba   0x00006a    program     static D:\Micro 2020-0\Ejercicio 09 - Laboratorio Calificado 1.X\maincode.asm



                              Symbols - Sorted by Address
                     Name    Address   Location    Storage File                     
                ---------  ---------  ---------  --------- ---------                
                configuro   0x000020    program     static D:\Micro 2020-0\Ejercicio 09 - Laboratorio Calificado 1.X\maincode.asm
                   inicio   0x000052    program     static D:\Micro 2020-0\Ejercicio 09 - Laboratorio Calificado 1.X\maincode.asm
            segundaprueba   0x00005e    program     static D:\Micro 2020-0\Ejercicio 09 - Laboratorio Calificado 1.X\maincode.asm
            terceraprueba   0x00006a    program     static D:\Micro 2020-0\Ejercicio 09 - Laboratorio Calificado 1.X\maincode.asm
                elprimero   0x000076    program     static D:\Micro 2020-0\Ejercicio 09 - Laboratorio Calificado 1.X\maincode.asm
                   aunno1   0x00008a    program     static D:\Micro 2020-0\Ejercicio 09 - Laboratorio Calificado 1.X\maincode.asm
                elsegundo   0x000094    program     static D:\Micro 2020-0\Ejercicio 09 - Laboratorio Calificado 1.X\maincode.asm
                   aunno2   0x0000a6    program     static D:\Micro 2020-0\Ejercicio 09 - Laboratorio Calificado 1.X\maincode.asm
                   parte2   0x0000b0    program     static D:\Micro 2020-0\Ejercicio 09 - Laboratorio Calificado 1.X\maincode.asm
                   aunno3   0x0000c4    program     static D:\Micro 2020-0\Ejercicio 09 - Laboratorio Calificado 1.X\maincode.asm
                eltercero   0x0000ce    program     static D:\Micro 2020-0\Ejercicio 09 - Laboratorio Calificado 1.X\maincode.asm
                    bucle   0x0000d2    program     static D:\Micro 2020-0\Ejercicio 09 - Laboratorio Calificado 1.X\maincode.asm
                   nopues   0x0000e4    program     static D:\Micro 2020-0\Ejercicio 09 - Laboratorio Calificado 1.X\maincode.asm
                   hi_isr   0x0000ee    program     static D:\Micro 2020-0\Ejercicio 09 - Laboratorio Calificado 1.X\maincode.asm
                   albtn2   0x0000f8    program     static D:\Micro 2020-0\Ejercicio 09 - Laboratorio Calificado 1.X\maincode.asm
                     btn1   0x000102    program     static D:\Micro 2020-0\Ejercicio 09 - Laboratorio Calificado 1.X\maincode.asm
                     btn2   0x00010c    program     static D:\Micro 2020-0\Ejercicio 09 - Laboratorio Calificado 1.X\maincode.asm
                     btn3   0x000116    program     static D:\Micro 2020-0\Ejercicio 09 - Laboratorio Calificado 1.X\maincode.asm
                   lo_isr   0x000120    program     static D:\Micro 2020-0\Ejercicio 09 - Laboratorio Calificado 1.X\maincode.asm
                    noops   0x000160    program     static D:\Micro 2020-0\Ejercicio 09 - Laboratorio Calificado 1.X\maincode.asm
            retardo_500ms   0x000174    program     static D:\Micro 2020-0\Ejercicio 09 - Laboratorio Calificado 1.X\maincode.asm
                    otro1   0x000176    program     static D:\Micro 2020-0\Ejercicio 09 - Laboratorio Calificado 1.X\maincode.asm
                   falso1   0x000184    program     static D:\Micro 2020-0\Ejercicio 09 - Laboratorio Calificado 1.X\maincode.asm
                   anid_1   0x00018a    program     static D:\Micro 2020-0\Ejercicio 09 - Laboratorio Calificado 1.X\maincode.asm
                    otro2   0x00018c    program     static D:\Micro 2020-0\Ejercicio 09 - Laboratorio Calificado 1.X\maincode.asm
                   falso2   0x00019a    program     static D:\Micro 2020-0\Ejercicio 09 - Laboratorio Calificado 1.X\maincode.asm
                   anid_2   0x0001a0    program     static D:\Micro 2020-0\Ejercicio 09 - Laboratorio Calificado 1.X\maincode.asm
                    otro3   0x0001a2    program     static D:\Micro 2020-0\Ejercicio 09 - Laboratorio Calificado 1.X\maincode.asm
                   falso3   0x0001b0    program     static D:\Micro 2020-0\Ejercicio 09 - Laboratorio Calificado 1.X\maincode.asm
                  mensaje   0x000600    program     static D:\Micro 2020-0\Ejercicio 09 - Laboratorio Calificado 1.X\maincode.asm


