Microchip MPLAB XC8 Compiler V2.32

Linker command line:

-W-3 --edf=C:\Program Files\Microchip\xc8\v2.32\pic\dat\en_msgs.txt -cn \
  -h+dist/default/production\20211_el53_dht11_lcd.X.production.sym \
  --cmf=dist/default/production\20211_el53_dht11_lcd.X.production.cmf -z \
  -Q18F4450 -oC:\Users\klnla\AppData\Local\Temp\xcAscvo.4 \
  --defsym=__MPLAB_BUILD=1 \
  -Mdist/default/production/20211_el53_dht11_lcd.X.production.map -E1 \
  -ver=XC8 Compiler --acfsm=1493 -ASTACK=060h-01FFh -pstack=STACK \
  -ACODE=00h-03FFFh -ACONST=00h-03FFFh -ASMALLCONST=0500h-05FFhx59 \
  -AMEDIUMCONST=0500h-03FFFh -ACOMRAM=01h-05Fh -AABS1=00h-01FFh,0400h-04FFh \
  -ABIGRAM=01h-01FFh,0400h-04FFh -ARAM=060h-0FFh,0100h-01FFh,0400h-04FFh \
  -ABANK0=060h-0FFh -ABANK1=0100h-01FFh -ABANK4=0400h-04FFh \
  -ASFR=0F60h-0FFFh -ACONFIG=0300000h-030000Dh -AIDLOC=0200000h-0200007h \
  -preset_vec=00h,intcode,intcodelo,powerup,init -pramtop=0500h \
  -psmallconst=SMALLCONST -pmediumconst=MEDIUMCONST -pconst=CONST \
  -AFARRAM=00h-00h \
  -prdata=COMRAM,nvrram=COMRAM,nvbit=COMRAM,rbss=COMRAM,rbit=COMRAM \
  -pfarbss=FARRAM,fardata=FARRAM,nvFARRAM=FARRAM \
  -pintsave_regs=BIGRAM,bigbss=BIGRAM,bigdata=BIGRAM -pbss=RAM \
  -pidata=CODE,irdata=CODE,ibigdata=CODE,ifardata=CODE -prparam=COMRAM \
  C:\Users\klnla\AppData\Local\Temp\xcAscvo.o \
  dist/default/production\20211_el53_dht11_lcd.X.production.o 

Object code version is 3.11

Machine type is 18F4450



                Name                               Link     Load   Length Selector   Space Scale
C:\Users\klnla\AppData\Local\Temp\xcAscvo.o
                idloc                            200000   200000        8        0       5
                config                           300000   300000        E        0       4
                init                                  0        0        4        0       0
dist/default/production\20211_el53_dht11_lcd.X.production.o
                idloc                            200000   200000        8        0       5
                config                           300000   300000        E        0       4
                smallconst                          500      500       2A      280       0
                text19                              E66      E66       2C      295       0
                text18                              CB4      CB4       60      295       0
                text17                              E92      E92       26      295       0
                text16                              EB8      EB8       1E      295       0
                text15                              B66      B66       7E      295       0
                text14                              E00      E00       36      295       0
                text13                              D52      D52       3E      295       0
                text12                              DCA      DCA       36      295       0
                text11                              EF8      EF8        8      295       0
                text10                              EF0      EF0        8      295       0
                text9                               E36      E36       30      295       0
                text8                               C52      C52       62      295       0
                text7                               D14      D14       3E      295       0
                text6                               D90      D90       3A      295       0
                text5                               8EC      8EC      106      295       0
                text4                               738      738      1B4      295       0
                text3                               9F2      9F2       C4      295       0
                text2                               AB6      AB6       B0      295       0
                text1                               BE4      BE4       6E      295       0
                text0                               52A      52A      20E      295       0
                cstackCOMRAM                          1        1       21        1       1
                bssCOMRAM                            22       22        C        1       1
                cinit                               ED6      ED6       1A      295       0

TOTAL           Name                               Link     Load   Length     Space
        CLASS   STACK          

        CLASS   CODE           
                init                                  0        0        4         0
                text19                              E66      E66       2C         0
                text18                              CB4      CB4       60         0
                text17                              E92      E92       26         0
                text16                              EB8      EB8       1E         0
                text15                              B66      B66       7E         0
                text14                              E00      E00       36         0
                text13                              D52      D52       3E         0
                text12                              DCA      DCA       36         0
                text11                              EF8      EF8        8         0
                text10                              EF0      EF0        8         0
                text9                               E36      E36       30         0
                text8                               C52      C52       62         0
                text7                               D14      D14       3E         0
                text6                               D90      D90       3A         0
                text5                               8EC      8EC      106         0
                text4                               738      738      1B4         0
                text3                               9F2      9F2       C4         0
                text2                               AB6      AB6       B0         0
                text1                               BE4      BE4       6E         0
                text0                               52A      52A      20E         0
                cinit                               ED6      ED6       1A         0

        CLASS   CONST          

        CLASS   SMALLCONST     
                smallconst                          500      500       2A         0

        CLASS   MEDIUMCONST    

        CLASS   COMRAM         
                cstackCOMRAM                          1        1       21         1
                bssCOMRAM                            22       22        C         1

        CLASS   ABS1           

        CLASS   BIGRAM         

        CLASS   RAM            

        CLASS   BANK0          

        CLASS   BANK1          

        CLASS   BANK4          

        CLASS   SFR            

        CLASS   CONFIG         
                config                           300000   300000        E         4

        CLASS   IDLOC          
                idloc                            200000   200000        8         5

        CLASS   FARRAM         



SEGMENTS        Name                           Load    Length   Top    Selector   Space  Class

                reset_vec                      000000  000004  000004         0       0  CODE    
                cstackCOMRAM                   000001  00002D  00002E         1       1  COMRAM  
                smallconst                     000500  00002A  00052A       280       0  SMALLCON
                text0                          00052A  0009D6  000F00       295       0  CODE    


UNUSED ADDRESS RANGES

        Name                Unused          Largest block    Delta
        BANK0            000060-0000FF               A0
        BANK1            000100-0001FF              100
        BANK4            000400-0004FF              100
        BIGRAM           00002E-0001FF              1D2
                         000400-0004FF              100
        CODE             000004-0004FF              4FC
                         000F00-003FFF             3100
        COMRAM           00002E-00005F               32
        CONST            000004-0004FF              4FC
                         000F00-003FFF             3100
        MEDIUMCONST      000F00-003FFF             3100
        RAM              000060-0001FF               A0
                         000400-0004FF              100
        SFR              000F60-000FFF               A0
        SMALLCONST       000F00-003FFF              100
        STACK            000060-0001FF              1A0

                                  Symbol Table

?___awdiv                 cstackCOMRAM 000007
?___awmod                 cstackCOMRAM 000001
?___fltol                 cstackCOMRAM 000001
?___xxtofl                cstackCOMRAM 00000F
CURSOR_ONOFF@estado       cstackCOMRAM 000004
DHT11_Read@data           cstackCOMRAM 000002
DHT11_Read@x              cstackCOMRAM 000001
ENVIA_CHAR@aux            cstackCOMRAM 000003
ENVIA_CHAR@dato           cstackCOMRAM 000002
ENVIA_LCD_CMD@aux         cstackCOMRAM 000003
ENVIA_LCD_CMD@dato        cstackCOMRAM 000002
ENVIA_NIBBLE@dato         cstackCOMRAM 000001
ESCRIBE_MENSAJE@cadena    cstackCOMRAM 000004
ESCRIBE_MENSAJE@i         cstackCOMRAM 000009
ESCRIBE_MENSAJE@tam       cstackCOMRAM 000006
LEER_LCD@aux              cstackCOMRAM 000001
POS_CURSOR@columna        cstackCOMRAM 000004
POS_CURSOR@fila           cstackCOMRAM 000005
_BORRAR_LCD               text11       000EF8
_CURSOR_HOME              text10       000EF0
_CURSOR_ONOFF             text9        000E36
_Checksum                 bssCOMRAM    000029
_DHT11_Check              text19       000E66
_DHT11_Read               text18       000CB4
_DHT11_Start              text17       000E92
_ENVIA_CHAR               text14       000E00
_ENVIA_LCD_CMD            text12       000DCA
_ENVIA_NIBBLE             text16       000EB8
_ESCRIBE_MENSAJE          text13       000D52
_LATBbits                 (abs)        000F8A
_LATD                     (abs)        000F8C
_LATDbits                 (abs)        000F8C
_LCD_CONFIG               text8        000C52
_LCD_Init                 text7        000D14
_LEER_LCD                 text15       000B66
_PORTBbits                (abs)        000F81
_PORTD                    (abs)        000F83
_POS_CURSOR               text6        000D90
_RH_Decimal               bssCOMRAM    00002C
_RH_Entera                bssCOMRAM    00002D
_TRISBbits                (abs)        000F93
_TRISD                    (abs)        000F95
_Temp_Decimal             bssCOMRAM    00002A
_Temp_Entera              bssCOMRAM    00002B
__HRAM                    (abs)        000000
__Habs1                   abs1         000000
__Hbank0                  bank0        000000
__Hbank1                  bank1        000000
__Hbank4                  bank4        000000
__Hbigbss                 bigbss       000000
__Hbigdata                bigdata      000000
__Hbigram                 bigram       000000
__Hbss                    bss          000000
__HbssCOMRAM              bssCOMRAM    000000
__Hcinit                  cinit        000000
__Hclrtext                clrtext      000000
__Hcomram                 comram       000000
__Hconfig                 config       30000E
__Hconst                  const        000000
__HcstackCOMRAM           cstackCOMRAM 000000
__Hdata                   data         000000
__Hfarbss                 farbss       000000
__Hfardata                fardata      000000
__Hibigdata               ibigdata     000000
__Hidata                  idata        000000
__Hidloc                  idloc        200008
__Hifardata               ifardata     000000
__Hinit                   init         000004
__Hintcode                intcode      000000
__Hintcode_body           intcode_body 000000
__Hintcodelo              intcodelo    000000
__Hintentry               intentry     000000
__Hintret                 intret       000000
__Hintsave_regs           intsave_regs 000000
__Hirdata                 irdata       000000
__Hmediumconst            mediumconst  000000
__HnvFARRAM               nvFARRAM     000000
__Hnvbit                  nvbit        000000
__Hnvrram                 nvrram       000000
__Hparam                  rparam       000000
__Hpowerup                powerup      000000
__Hram                    ram          000000
__Hramtop                 ramtop       000500
__Hrbit                   rbit         000000
__Hrbss                   rbss         000000
__Hrdata                  rdata        000000
__Hreset_vec              reset_vec    000000
__Hrparam                 rparam       000000
__Hsfr                    sfr          000000
__Hsmallconst             smallconst   00052A
__Hspace_0                (abs)        000F00
__Hspace_1                (abs)        00002E
__Hspace_2                (abs)        000000
__Hspace_4                (abs)        60000E
__Hstack                  stack        000000
__Hstruct                 struct       000000
__Htemp                   temp         000000
__Htext                   text         000000
__Htext0                  text0        000000
__Htext1                  text1        000000
__Htext10                 text10       000000
__Htext11                 text11       000000
__Htext12                 text12       000000
__Htext13                 text13       000000
__Htext14                 text14       000000
__Htext15                 text15       000000
__Htext16                 text16       000000
__Htext17                 text17       000000
__Htext18                 text18       000000
__Htext19                 text19       000000
__Htext2                  text2        000000
__Htext3                  text3        000000
__Htext4                  text4        000000
__Htext5                  text5        000000
__Htext6                  text6        000000
__Htext7                  text7        000000
__Htext8                  text8        000000
__Htext9                  text9        000000
__LRAM                    (abs)        000001
__Labs1                   abs1         000000
__Lbank0                  bank0        000000
__Lbank1                  bank1        000000
__Lbank4                  bank4        000000
__Lbigbss                 bigbss       000000
__Lbigdata                bigdata      000000
__Lbigram                 bigram       000000
__Lbss                    bss          000000
__LbssCOMRAM              bssCOMRAM    000000
__Lcinit                  cinit        000000
__Lclrtext                clrtext      000000
__Lcomram                 comram       000000
__Lconfig                 config       000000
__Lconst                  const        000000
__LcstackCOMRAM           cstackCOMRAM 000000
__Ldata                   data         000000
__Lfarbss                 farbss       000000
__Lfardata                fardata      000000
__Libigdata               ibigdata     000000
__Lidata                  idata        000000
__Lidloc                  idloc        000000
__Lifardata               ifardata     000000
__Linit                   init         000000
__Lintcode                intcode      000000
__Lintcode_body           intcode_body 000000
__Lintcodelo              intcodelo    000000
__Lintentry               intentry     000000
__Lintret                 intret       000000
__Lintsave_regs           intsave_regs 000000
__Lirdata                 irdata       000000
__Lmediumconst            mediumconst  000000
__LnvFARRAM               nvFARRAM     000000
__Lnvbit                  nvbit        000000
__Lnvrram                 nvrram       000000
__Lparam                  rparam       000000
__Lpowerup                powerup      000000
__Lram                    ram          000000
__Lramtop                 ramtop       000500
__Lrbit                   rbit         000000
__Lrbss                   rbss         000000
__Lrdata                  rdata        000000
__Lreset_vec              reset_vec    000000
__Lrparam                 rparam       000000
__Lsfr                    sfr          000000
__Lsmallconst             smallconst   000500
__Lspace_0                (abs)        000000
__Lspace_1                (abs)        000000
__Lspace_2                (abs)        000000
__Lspace_4                (abs)        000000
__Lstack                  stack        000000
__Lstruct                 struct       000000
__Ltemp                   temp         000000
__Ltext                   text         000000
__Ltext0                  text0        000000
__Ltext1                  text1        000000
__Ltext10                 text10       000000
__Ltext11                 text11       000000
__Ltext12                 text12       000000
__Ltext13                 text13       000000
__Ltext14                 text14       000000
__Ltext15                 text15       000000
__Ltext16                 text16       000000
__Ltext17                 text17       000000
__Ltext18                 text18       000000
__Ltext19                 text19       000000
__Ltext2                  text2        000000
__Ltext3                  text3        000000
__Ltext4                  text4        000000
__Ltext5                  text5        000000
__Ltext6                  text6        000000
__Ltext7                  text7        000000
__Ltext8                  text8        000000
__Ltext9                  text9        000000
__S0                      (abs)        000F00
__S1                      (abs)        00002E
__S2                      (abs)        000000
__S4                      (abs)        000000
__S5                      (abs)        000000
___awdiv                  text3        0009F2
___awdiv@counter          cstackCOMRAM 00000B
___awdiv@dividend         cstackCOMRAM 000007
___awdiv@divisor          cstackCOMRAM 000009
___awdiv@quotient         cstackCOMRAM 00000D
___awdiv@sign             cstackCOMRAM 00000C
___awmod                  text2        000AB6
___awmod@counter          cstackCOMRAM 000005
___awmod@dividend         cstackCOMRAM 000001
___awmod@divisor          cstackCOMRAM 000003
___awmod@sign             cstackCOMRAM 000006
___fltol                  text5        0008EC
___fltol@exp1             cstackCOMRAM 00000A
___fltol@f1               cstackCOMRAM 000001
___fltol@sign1            cstackCOMRAM 000009
___inthi_sp               stack        000000
___intlo_sp               stack        000000
___param_bank             (abs)        000000
___rparam_used            (abs)        000001
___sp                     stack        000000
___xxtofl                 text4        000738
___xxtofl@arg             cstackCOMRAM 000019
___xxtofl@exp             cstackCOMRAM 000018
___xxtofl@sign            cstackCOMRAM 000017
___xxtofl@val             cstackCOMRAM 00000F
__accesstop               (abs)        000060
__activetblptr            (abs)        000001
__end_of_BORRAR_LCD       text11       000F00
__end_of_CURSOR_HOME      text10       000EF8
__end_of_CURSOR_ONOFF     text9        000E66
__end_of_DHT11_Check      text19       000E92
__end_of_DHT11_Read       text18       000D14
__end_of_DHT11_Start      text17       000EB8
__end_of_ENVIA_CHAR       text14       000E36
__end_of_ENVIA_LCD_CMD    text12       000E00
__end_of_ENVIA_NIBBLE     text16       000ED6
__end_of_ESCRIBE_MENSAJE  text13       000D90
__end_of_LCD_CONFIG       text8        000CB4
__end_of_LCD_Init         text7        000D52
__end_of_LEER_LCD         text15       000BE4
__end_of_POS_CURSOR       text6        000DCA
__end_of___awdiv          text3        000AB6
__end_of___awmod          text2        000B66
__end_of___fltol          text5        0009F2
__end_of___xxtofl         text4        0008EC
__end_of__initialization  cinit        000EE2
__end_of_convierte        text1        000C52
__end_of_main             text0        000738
__initialization          cinit        000ED6
__mediumconst             mediumconst  000000
__pbssCOMRAM              bssCOMRAM    000022
__pcinit                  cinit        000ED6
__pcstackCOMRAM           cstackCOMRAM 000001
__psmallconst             smallconst   000500
__ptext0                  text0        00052A
__ptext1                  text1        000BE4
__ptext10                 text10       000EF0
__ptext11                 text11       000EF8
__ptext12                 text12       000DCA
__ptext13                 text13       000D52
__ptext14                 text14       000E00
__ptext15                 text15       000B66
__ptext16                 text16       000EB8
__ptext17                 text17       000E92
__ptext18                 text18       000CB4
__ptext19                 text19       000E66
__ptext2                  text2        000AB6
__ptext3                  text3        0009F2
__ptext4                  text4        000738
__ptext5                  text5        0008EC
__ptext6                  text6        000D90
__ptext7                  text7        000D14
__ptext8                  text8        000C52
__ptext9                  text9        000E36
__ramtop                  ramtop       000500
__size_of_BORRAR_LCD      (abs)        000000
__size_of_CURSOR_HOME     (abs)        000000
__size_of_CURSOR_ONOFF    (abs)        000000
__size_of_DHT11_Check     (abs)        000000
__size_of_DHT11_Read      (abs)        000000
__size_of_DHT11_Start     (abs)        000000
__size_of_ENVIA_CHAR      (abs)        000000
__size_of_ENVIA_LCD_CMD   (abs)        000000
__size_of_ENVIA_NIBBLE    (abs)        000000
__size_of_ESCRIBE_MENSAJE (abs)        000000
__size_of_LCD_CONFIG      (abs)        000000
__size_of_LCD_Init        (abs)        000000
__size_of_LEER_LCD        (abs)        000000
__size_of_POS_CURSOR      (abs)        000000
__size_of___awdiv         (abs)        000000
__size_of___awmod         (abs)        000000
__size_of___fltol         (abs)        000000
__size_of___xxtofl        (abs)        000000
__size_of_convierte       (abs)        000000
__size_of_main            (abs)        000000
__smallconst              smallconst   000500
_centena                  bssCOMRAM    000028
_convierte                text1        000BE4
_decena                   bssCOMRAM    000027
_main                     text0        00052A
_n_temp_f                 bssCOMRAM    000022
_unidad                   bssCOMRAM    000026
convierte@numero          cstackCOMRAM 00000F
end_of_initialization     cinit        000EE2
intlevel0                 text         000000
intlevel1                 text         000000
intlevel2                 text         000000
intlevel3                 text         000000
isa$std                   (abs)        000001
isa$xinst                 (abs)        000000
main@x                    cstackCOMRAM 000021
stackhi                   (abs)        0001FF
stacklo                   (abs)        000060
start                     init         000000
start_initialization      cinit        000ED6


MODULE INFORMATION

Module		Function		Class		Link	Load	Size
C:\Program Files\Microchip\xc8\v2.32\pic\sources\c99\common\awdiv.c
		___awdiv       		CODE           	09F2	0000	196

C:\Program Files\Microchip\xc8\v2.32\pic\sources\c99\common\awdiv.c estimated size: 196

shared
		__initialization		CODE           	0ED6	0000	12

shared estimated size: 12

C:\Program Files\Microchip\xc8\v2.32\pic\sources\c99\common\awmod.c
		___awmod       		CODE           	0AB6	0000	176

C:\Program Files\Microchip\xc8\v2.32\pic\sources\c99\common\awmod.c estimated size: 176

maincode.c
		_LCD_Init      		CODE           	0D14	0000	62
		_main          		CODE           	052A	0000	526
		_convierte     		CODE           	0BE4	0000	110

maincode.c estimated size: 698

C:\Program Files\Microchip\xc8\v2.32\pic\sources\c99\common\fltol.c
		___fltol       		CODE           	08EC	0000	262

C:\Program Files\Microchip\xc8\v2.32\pic\sources\c99\common\fltol.c estimated size: 262

dht11_lib.c
		_DHT11_Check   		CODE           	0E66	0000	44
		_DHT11_Start   		CODE           	0E92	0000	38
		_DHT11_Read    		CODE           	0CB4	0000	96

dht11_lib.c estimated size: 178

C:\Program Files\Microchip\xc8\v2.32\pic\sources\c99\common\xxtofl.c
		___xxtofl      		CODE           	0738	0000	436

C:\Program Files\Microchip\xc8\v2.32\pic\sources\c99\common\xxtofl.c estimated size: 436

LCD.c
		_ENVIA_NIBBLE  		CODE           	0EB8	0000	30
		_ENVIA_CHAR    		CODE           	0E00	0000	54
		_CURSOR_HOME   		CODE           	0EF0	0000	8
		_CURSOR_ONOFF  		CODE           	0E36	0000	48
		_POS_CURSOR    		CODE           	0D90	0000	58
		_ESCRIBE_MENSAJE		CODE           	0D52	0000	62
		_ENVIA_LCD_CMD 		CODE           	0DCA	0000	54
		_LCD_CONFIG    		CODE           	0C52	0000	98
		_BORRAR_LCD    		CODE           	0EF8	0000	8
		_LEER_LCD      		CODE           	0B66	0000	126

LCD.c estimated size: 546

