

Microchip MPLAB XC8 Assembler V2.36 build 20220127204148 
                                                                                               Thu Nov 10 21:35:11 2022

Microchip MPLAB XC8 C Compiler v2.36 (Free license) build 20220127204148 Og1 
     1                           	processor	18F4550
     2                           	fnconf	rparam,??,?,0
     3                           	pagewidth 120
     4                           	opt	flic
     5                           	psect	idataCOMRAM,global,class=CODE,delta=1,noexec
     6                           	psect	smallconst,global,reloc=2,class=SMALLCONST,delta=1,noexec
     7                           	psect	cinit,global,reloc=2,class=CODE,delta=1
     8                           	psect	bssCOMRAM,global,class=COMRAM,space=1,delta=1,lowdata,noexec
     9                           	psect	dataCOMRAM,global,class=COMRAM,space=1,delta=1,lowdata,noexec
    10                           	psect	cstackCOMRAM,global,class=COMRAM,space=1,delta=1,lowdata,noexec
    11                           	psect	text0,global,reloc=2,class=CODE,delta=1
    12                           	psect	text1,global,reloc=2,class=CODE,delta=1
    13                           	psect	text2,global,reloc=2,class=CODE,delta=1
    14                           	psect	text3,global,reloc=2,class=CODE,delta=1
    15                           	psect	text4,global,reloc=2,class=CODE,delta=1
    16                           	psect	text5,global,reloc=2,class=CODE,delta=1
    17                           	psect	text6,global,reloc=2,class=CODE,delta=1
    18                           	psect	text7,global,reloc=2,class=CODE,delta=1
    19                           	psect	text8,global,reloc=2,class=CODE,delta=1
    20                           	psect	text9,global,reloc=2,class=CODE,delta=1
    21                           	psect	text10,global,reloc=2,class=CODE,delta=1
    22                           	psect	text11,global,reloc=2,class=CODE,delta=1
    23                           	psect	text12,global,reloc=2,class=CODE,delta=1
    24                           	psect	text13,global,reloc=2,class=CODE,delta=1
    25                           	psect	text14,global,reloc=2,class=CODE,delta=1
    26                           	psect	text15,global,reloc=2,class=CODE,delta=1
    27                           	psect	intcodelo,global,reloc=2,class=CODE,delta=1
    28                           	psect	intcode,global,reloc=2,class=CODE,delta=1
    29                           	psect	intcode_body,global,reloc=2,class=CODE,delta=1
    30                           	psect	intsave_regs,global,class=BIGRAM,space=1,delta=1,noexec
    31                           	psect	rparam,global,class=COMRAM,space=1,delta=1,noexec
    32                           	psect	temp,global,ovrld,common,class=COMRAM,space=1,delta=1
    33                           	psect	idloc,global,abs,ovrld,class=IDLOC,space=5,delta=1,noexec
    34                           	psect	config,global,abs,ovrld,class=CONFIG,space=4,delta=1,noexec
    35  0000                     
    36                           ; Version 2.40
    37                           ; Generated 17/11/2021 GMT
    38                           ; 
    39                           ; Copyright © 2021, Microchip Technology Inc. and its subsidiaries ("Microchip")
    40                           ; All rights reserved.
    41                           ; 
    42                           ; This software is developed by Microchip Technology Inc. and its subsidiaries ("Microch
      +                          ip").
    43                           ; 
    44                           ; Redistribution and use in source and binary forms, with or without modification, are
    45                           ; permitted provided that the following conditions are met:
    46                           ; 
    47                           ;     1. Redistributions of source code must retain the above copyright notice, this lis
      +                          t of
    48                           ;        conditions and the following disclaimer.
    49                           ; 
    50                           ;     2. Redistributions in binary form must reproduce the above copyright notice, this 
      +                          list
    51                           ;        of conditions and the following disclaimer in the documentation and/or other
    52                           ;        materials provided with the distribution. Publication is not required when
    53                           ;        this file is used in an embedded application.
    54                           ; 
    55                           ;     3. Microchip's name may not be used to endorse or promote products derived from th
      +                          is
    56                           ;        software without specific prior written permission.
    57                           ; 
    58                           ; THIS SOFTWARE IS PROVIDED BY MICROCHIP "AS IS" AND ANY EXPRESS OR IMPLIED WARRANTIES,
    59                           ; INCLUDING, BUT NOT LIMITED TO, THE IMPLIED WARRANTIES OF MERCHANTABILITY AND FITNESS F
      +                          OR
    60                           ; PURPOSE ARE DISCLAIMED.  IN NO EVENT SHALL MICROCHIP BE LIABLE FOR ANY DIRECT, INDIREC
      +                          T,
    61                           ; INCIDENTAL, SPECIAL, EXEMPLARY, OR CONSEQUENTIAL DAMAGES (INCLUDING BUT NOT LIMITED TO
    62                           ; PROCUREMENT OF SUBSTITUTE GOODS OR SERVICES; LOSS OF USE, DATA OR PROFITS; OR BUSINESS
    63                           ; INTERRUPTION) HOWSOEVER CAUSED AND ON ANY THEORY OF LIABILITY, WHETHER IN CONTRACT, ST
      +                          RICT
    64                           ; LIABILITY, OR TORT (INCLUDING NEGLIGENCE OR OTHERWISE) ARISING IN ANY WAY OUT OF THE U
      +                          SE OF
    65                           ; THIS SOFTWARE, EVEN IF ADVISED OF THE POSSIBILITY OF SUCH DAMAGE.
    66                           ; 
    67                           ; 
    68                           ; Code-generator required, PIC18F4550 Definitions
    69                           ; 
    70                           ; SFR Addresses
    71  0000                     
    72                           	psect	idataCOMRAM
    73  000D82                     __pidataCOMRAM:
    74                           	callstack 0
    75                           
    76                           ;initializer for _mensajon
    77  000D82  55                 	db	85
    78  000D83  50                 	db	80
    79  000D84  43                 	db	67
    80  000D85  20                 	db	32
    81  000D86  70                 	db	112
    82  000D87  6F                 	db	111
    83  000D88  6E                 	db	110
    84  000D89  67                 	db	103
    85  000D8A  61                 	db	97
    86  000D8B  6E                 	db	110
    87  000D8C  20                 	db	32
    88  000D8D  6D                 	db	109
    89  000D8E  61                 	db	97
    90  000D8F  71                 	db	113
    91  000D90  75                 	db	117
    92  000D91  69                 	db	105
    93  000D92  6E                 	db	110
    94  000D93  61                 	db	97
    95  000D94  73                 	db	115
    96  000D95  00                 	db	0
    97                           
    98                           ;initializer for _visual
    99  000D96  01                 	db	1
   100  000D97  02                 	db	2
   101  000D98  04                 	db	4
   102  000D99  02                 	db	2
   103  000D9A  00                 	db	0
   104  000D9B  07                 	db	7
   105  000D9C  02                 	db	2
   106  000D9D  05                 	db	5
   107  000D9E  06                 	db	6
   108  000D9F  03                 	db	3
   109                           
   110                           ;initializer for _foco_prendido
   111  000DA0  0E                 	db	14
   112  000DA1  15                 	db	21
   113  000DA2  1F                 	db	31
   114  000DA3  1F                 	db	31
   115  000DA4  15                 	db	21
   116  000DA5  0E                 	db	14
   117  000DA6  0E                 	db	14
   118                           
   119                           ;initializer for _foco_apagado
   120  000DA7  0E                 	db	14
   121  000DA8  11                 	db	17
   122  000DA9  11                 	db	17
   123  000DAA  11                 	db	17
   124  000DAB  11                 	db	17
   125  000DAC  0A                 	db	10
   126  000DAD  0E                 	db	14
   127  0000                     _LATD	set	3980
   128  0000                     _PORTD	set	3971
   129  0000                     _LATDbits	set	3980
   130  0000                     _LATE	set	3981
   131  0000                     _TRISCbits	set	3988
   132  0000                     _TRISD	set	3989
   133  0000                     _RCSTAbits	set	4011
   134  0000                     _SPBRG	set	4015
   135  0000                     _TRISE	set	3990
   136  0000                     _ADCON1	set	4033
   137  0000                     _OSCCON	set	4051
   138  0000                     _PORTEbits	set	3972
   139  0000                     _INTCON3bits	set	4080
   140  0000                     _INTCON2bits	set	4081
   141  0000                     _RCONbits	set	4048
   142  0000                     _INTCONbits	set	4082
   143  0000                     _TXREG	set	4013
   144  0000                     _TXSTAbits	set	4012
   145                           
   146                           	psect	smallconst
   147  000800                     __psmallconst:
   148                           	callstack 0
   149  000800  00                 	db	0
   150  000801                     STR_2:
   151  000801  20                 	db	32
   152  000802  55                 	db	85	;'U'
   153  000803  50                 	db	80	;'P'
   154  000804  43                 	db	67	;'C'
   155  000805  20                 	db	32
   156  000806  49                 	db	73	;'I'
   157  000807  6E                 	db	110	;'n'
   158  000808  67                 	db	103	;'g'
   159  000809  20                 	db	32
   160  00080A  32                 	db	50	;'2'
   161  00080B  30                 	db	48	;'0'
   162  00080C  32                 	db	50	;'2'
   163  00080D  32                 	db	50	;'2'
   164  00080E  2D                 	db	45
   165  00080F  32                 	db	50	;'2'
   166  000810  00                 	db	0
   167  000811                     STR_1:
   168  000811  4C                 	db	76	;'L'
   169  000812  45                 	db	69	;'E'
   170  000813  44                 	db	68	;'D'
   171  000814  20                 	db	32
   172  000815  73                 	db	115	;'s'
   173  000816  74                 	db	116	;'t'
   174  000817  61                 	db	97	;'a'
   175  000818  74                 	db	116	;'t'
   176  000819  75                 	db	117	;'u'
   177  00081A  73                 	db	115	;'s'
   178  00081B  3A                 	db	58	;':'
   179  00081C  20                 	db	32
   180  00081D  00                 	db	0
   181  00081E  00                 	db	0	; dummy byte at the end
   182  0000                     
   183                           ; #config settings
   184                           
   185                           	psect	cinit
   186  000CF2                     __pcinit:
   187                           	callstack 0
   188  000CF2                     start_initialization:
   189                           	callstack 0
   190  000CF2                     __initialization:
   191                           	callstack 0
   192                           
   193                           ; Initialize objects allocated to COMRAM (44 bytes)
   194                           ; load TBLPTR registers with __pidataCOMRAM
   195  000CF2  0E82               	movlw	low __pidataCOMRAM
   196  000CF4  6EF6               	movwf	tblptrl,c
   197  000CF6  0E0D               	movlw	high __pidataCOMRAM
   198  000CF8  6EF7               	movwf	tblptrh,c
   199  000CFA  0E00               	movlw	low (__pidataCOMRAM shr (0+16))
   200  000CFC  6EF8               	movwf	tblptru,c
   201  000CFE  EE00  F001         	lfsr	0,__pdataCOMRAM
   202  000D02  EE10 F02C          	lfsr	1,44
   203  000D06                     copy_data0:
   204  000D06  0009               	tblrd		*+
   205  000D08  CFF5 FFEE          	movff	tablat,postinc0
   206  000D0C  50E5               	movf	postdec1,w,c
   207  000D0E  50E1               	movf	fsr1l,w,c
   208  000D10  E1FA               	bnz	copy_data0
   209                           
   210                           ; Clear objects allocated to COMRAM (2 bytes)
   211  000D12  6A40               	clrf	(__pbssCOMRAM+1)& (0+255),c
   212  000D14  6A3F               	clrf	__pbssCOMRAM& (0+255),c
   213  000D16                     end_of_initialization:
   214                           	callstack 0
   215  000D16                     __end_of__initialization:
   216                           	callstack 0
   217  000D16  9041               	bcf	int$flags,0,c	;clear compiler interrupt flag (level 1)
   218  000D18  9241               	bcf	int$flags,1,c	;clear compiler interrupt flag (level 2)
   219  000D1A  0E00               	movlw	low (__Lmediumconst shr (0+16))
   220  000D1C  6EF8               	movwf	tblptru,c
   221  000D1E  0100               	movlb	0
   222  000D20  EF10  F004         	goto	_main	;jump to C main() function
   223                           
   224                           	psect	bssCOMRAM
   225  00003F                     __pbssCOMRAM:
   226                           	callstack 0
   227  00003F                     _estado_s:
   228                           	callstack 0
   229  00003F                     	ds	1
   230  000040                     _estado_v:
   231                           	callstack 0
   232  000040                     	ds	1
   233                           
   234                           	psect	dataCOMRAM
   235  000001                     __pdataCOMRAM:
   236                           	callstack 0
   237  000001                     _mensajon:
   238                           	callstack 0
   239  000001                     	ds	20
   240  000015                     _visual:
   241                           	callstack 0
   242  000015                     	ds	10
   243  00001F                     _foco_prendido:
   244                           	callstack 0
   245  00001F                     	ds	7
   246  000026                     _foco_apagado:
   247                           	callstack 0
   248  000026                     	ds	7
   249                           
   250                           	psect	cstackCOMRAM
   251  00002D                     __pcstackCOMRAM:
   252                           	callstack 0
   253  00002D                     ??_INT2_ISR:
   254                           
   255                           ; 1 bytes @ 0x0
   256  00002D                     	ds	5
   257  000032                     INT2_ISR@z:
   258                           	callstack 0
   259                           
   260                           ; 1 bytes @ 0x5
   261  000032                     	ds	1
   262  000033                     ??_retardo:
   263  000033                     ENVIA_NIBBLE@dato:
   264                           	callstack 0
   265  000033                     LEER_LCD@aux:
   266                           	callstack 0
   267                           
   268                           ; 1 bytes @ 0x6
   269  000033                     	ds	1
   270  000034                     ENVIA_CHAR@dato:
   271                           	callstack 0
   272  000034                     ENVIA_LCD_CMD@dato:
   273                           	callstack 0
   274                           
   275                           ; 1 bytes @ 0x7
   276  000034                     	ds	1
   277  000035                     ENVIA_CHAR@aux:
   278                           	callstack 0
   279  000035                     ENVIA_LCD_CMD@aux:
   280                           	callstack 0
   281                           
   282                           ; 1 bytes @ 0x8
   283  000035                     	ds	1
   284  000036                     ??_LCD_CONFIG:
   285  000036                     POS_CURSOR@columna:
   286                           	callstack 0
   287  000036                     CURSOR_ONOFF@estado:
   288                           	callstack 0
   289  000036                     ESCRIBE_MENSAJE@cadena:
   290                           	callstack 0
   291  000036                     GENERACARACTER@vector:
   292                           	callstack 0
   293                           
   294                           ; 2 bytes @ 0x9
   295  000036                     	ds	1
   296  000037                     POS_CURSOR@fila:
   297                           	callstack 0
   298                           
   299                           ; 1 bytes @ 0xA
   300  000037                     	ds	1
   301  000038                     ESCRIBE_MENSAJE@tam:
   302                           	callstack 0
   303  000038                     GENERACARACTER@pos:
   304                           	callstack 0
   305                           
   306                           ; 1 bytes @ 0xB
   307  000038                     	ds	1
   308  000039                     ??_ESCRIBE_MENSAJE:
   309  000039                     GENERACARACTER@i:
   310                           	callstack 0
   311                           
   312                           ; 1 bytes @ 0xC
   313  000039                     	ds	1
   314  00003A                     ??_init_LCD:
   315                           
   316                           ; 1 bytes @ 0xD
   317  00003A                     	ds	1
   318  00003B                     ESCRIBE_MENSAJE@i:
   319                           	callstack 0
   320                           
   321                           ; 1 bytes @ 0xE
   322  00003B                     	ds	1
   323  00003C                     ??_main:
   324                           
   325                           ; 1 bytes @ 0xF
   326  00003C                     	ds	2
   327  00003E                     main@x:
   328                           	callstack 0
   329                           
   330                           ; 1 bytes @ 0x11
   331  00003E                     	ds	1
   332                           
   333 ;;
   334 ;;Main: autosize = 0, tempsize = 2, incstack = 0, save=0
   335 ;;
   336 ;; *************** function _main *****************
   337 ;; Defined at:
   338 ;;		line 82 in file "maincode7.c"
   339 ;; Parameters:    Size  Location     Type
   340 ;;		None
   341 ;; Auto vars:     Size  Location     Type
   342 ;;  x               1   17[COMRAM] unsigned char 
   343 ;; Return value:  Size  Location     Type
   344 ;;                  1    wreg      void 
   345 ;; Registers used:
   346 ;;		wreg, fsr2l, fsr2h, status,2, status,0, tblptrl, tblptrh, tblptru, prodl, prodh, cstack
   347 ;; Tracked objects:
   348 ;;		On entry : 0/0
   349 ;;		On exit  : 0/0
   350 ;;		Unchanged: 0/0
   351 ;; Data sizes:     COMRAM   BANK0   BANK1   BANK2   BANK3   BANK4   BANK5   BANK6   BANK7
   352 ;;      Params:         0       0       0       0       0       0       0       0       0
   353 ;;      Locals:         1       0       0       0       0       0       0       0       0
   354 ;;      Temps:          2       0       0       0       0       0       0       0       0
   355 ;;      Totals:         3       0       0       0       0       0       0       0       0
   356 ;;Total ram usage:        3 bytes
   357 ;; Hardware stack levels required when called: 6
   358 ;; This function calls:
   359 ;;		_ESCRIBE_MENSAJE
   360 ;;		_POS_CURSOR
   361 ;;		_configuro
   362 ;;		_init_LCD
   363 ;;		_retardo
   364 ;;		_vis_foquitos
   365 ;; This function is called by:
   366 ;;		Startup code after reset
   367 ;; This function uses a non-reentrant model
   368 ;;
   369                           
   370                           	psect	text0
   371  000820                     __ptext0:
   372                           	callstack 0
   373  000820                     _main:
   374                           	callstack 25
   375  000820                     
   376                           ;maincode7.c: 83:     configuro();
   377  000820  ECAA  F006         	call	_configuro	;wreg free
   378  000824                     
   379                           ;maincode7.c: 84:     init_LCD();
   380  000824  ECC7  F005         	call	_init_LCD	;wreg free
   381  000828                     
   382                           ;maincode7.c: 85:     POS_CURSOR(1,0);
   383  000828  0E00               	movlw	0
   384  00082A  6E36               	movwf	POS_CURSOR@columna^0,c
   385  00082C  0E01               	movlw	1
   386  00082E  EC28  F006         	call	_POS_CURSOR
   387  000832                     
   388                           ;maincode7.c: 86:     ESCRIBE_MENSAJE(" UPC Ing 2022-2",15);
   389  000832  0E01               	movlw	low STR_2
   390  000834  6E36               	movwf	ESCRIBE_MENSAJE@cadena^0,c
   391  000836  0E08               	movlw	high STR_2
   392  000838  6E37               	movwf	(ESCRIBE_MENSAJE@cadena+1)^0,c
   393  00083A  0E0F               	movlw	15
   394  00083C  6E38               	movwf	ESCRIBE_MENSAJE@tam^0,c
   395  00083E  ECEB  F005         	call	_ESCRIBE_MENSAJE	;wreg free
   396  000842  EF8B  F004         	goto	l1419
   397  000846                     l1349:
   398                           
   399                           ;maincode7.c: 91:                 LATE = 0x00;
   400  000846  0E00               	movlw	0
   401  000848  6E8D               	movwf	141,c	;volatile
   402  00084A                     
   403                           ;maincode7.c: 92:                 vis_foquitos();
   404  00084A  ECF4  F004         	call	_vis_foquitos	;wreg free
   405                           
   406                           ;maincode7.c: 93:                 break;
   407  00084E  EF8B  F004         	goto	l1419
   408  000852                     l1353:
   409                           
   410                           ;maincode7.c: 95:                 for(x=0;x<4;x++){
   411  000852  0E00               	movlw	0
   412  000854  6E3E               	movwf	main@x^0,c
   413  000856                     l1359:
   414                           
   415                           ;maincode7.c: 96:                     LATE = visual[x];
   416  000856  0E15               	movlw	low _visual
   417  000858  243E               	addwf	main@x^0,w,c
   418  00085A  6ED9               	movwf	fsr2l,c
   419  00085C  6ADA               	clrf	fsr2h,c
   420  00085E  0E00               	movlw	high _visual
   421  000860  22DA               	addwfc	fsr2h,f,c
   422  000862  50DF               	movf	indf2,w,c
   423  000864  6E8D               	movwf	141,c	;volatile
   424  000866                     
   425                           ;maincode7.c: 97:                     vis_foquitos();
   426  000866  ECF4  F004         	call	_vis_foquitos	;wreg free
   427  00086A                     
   428                           ;maincode7.c: 98:                     retardo();
   429  00086A  ECAE  F004         	call	_retardo	;wreg free
   430  00086E                     
   431                           ;maincode7.c: 99:                 }
   432  00086E  2A3E               	incf	main@x^0,f,c
   433  000870  0E03               	movlw	3
   434  000872  643E               	cpfsgt	main@x^0,c
   435  000874  EF3E  F004         	goto	u341
   436  000878  EF40  F004         	goto	u340
   437  00087C                     u341:
   438  00087C  EF2B  F004         	goto	l1359
   439  000880                     u340:
   440  000880  EF8B  F004         	goto	l1419
   441  000884                     l1369:
   442                           
   443                           ;maincode7.c: 102:                 for(x=4;x<6;x++){
   444  000884  0E04               	movlw	4
   445  000886  6E3E               	movwf	main@x^0,c
   446  000888                     l1375:
   447                           
   448                           ;maincode7.c: 103:                     LATE = visual[x];
   449  000888  0E15               	movlw	low _visual
   450  00088A  243E               	addwf	main@x^0,w,c
   451  00088C  6ED9               	movwf	fsr2l,c
   452  00088E  6ADA               	clrf	fsr2h,c
   453  000890  0E00               	movlw	high _visual
   454  000892  22DA               	addwfc	fsr2h,f,c
   455  000894  50DF               	movf	indf2,w,c
   456  000896  6E8D               	movwf	141,c	;volatile
   457  000898                     
   458                           ;maincode7.c: 104:                     vis_foquitos();
   459  000898  ECF4  F004         	call	_vis_foquitos	;wreg free
   460  00089C                     
   461                           ;maincode7.c: 105:                     retardo();
   462  00089C  ECAE  F004         	call	_retardo	;wreg free
   463  0008A0                     
   464                           ;maincode7.c: 106:                 }
   465  0008A0  2A3E               	incf	main@x^0,f,c
   466  0008A2  0E05               	movlw	5
   467  0008A4  643E               	cpfsgt	main@x^0,c
   468  0008A6  EF57  F004         	goto	u351
   469  0008AA  EF59  F004         	goto	u350
   470  0008AE                     u351:
   471  0008AE  EF44  F004         	goto	l1375
   472  0008B2                     u350:
   473  0008B2  EF8B  F004         	goto	l1419
   474  0008B6                     l1385:
   475                           
   476                           ;maincode7.c: 109:                 for(x=6;x<8;x++){
   477  0008B6  0E06               	movlw	6
   478  0008B8  6E3E               	movwf	main@x^0,c
   479  0008BA                     l1391:
   480                           
   481                           ;maincode7.c: 110:                     LATE = visual[x];
   482  0008BA  0E15               	movlw	low _visual
   483  0008BC  243E               	addwf	main@x^0,w,c
   484  0008BE  6ED9               	movwf	fsr2l,c
   485  0008C0  6ADA               	clrf	fsr2h,c
   486  0008C2  0E00               	movlw	high _visual
   487  0008C4  22DA               	addwfc	fsr2h,f,c
   488  0008C6  50DF               	movf	indf2,w,c
   489  0008C8  6E8D               	movwf	141,c	;volatile
   490  0008CA                     
   491                           ;maincode7.c: 111:                     vis_foquitos();
   492  0008CA  ECF4  F004         	call	_vis_foquitos	;wreg free
   493  0008CE                     
   494                           ;maincode7.c: 112:                     retardo();
   495  0008CE  ECAE  F004         	call	_retardo	;wreg free
   496  0008D2                     
   497                           ;maincode7.c: 113:                 }
   498  0008D2  2A3E               	incf	main@x^0,f,c
   499  0008D4  0E07               	movlw	7
   500  0008D6  643E               	cpfsgt	main@x^0,c
   501  0008D8  EF70  F004         	goto	u361
   502  0008DC  EF72  F004         	goto	u360
   503  0008E0                     u361:
   504  0008E0  EF5D  F004         	goto	l1391
   505  0008E4                     u360:
   506  0008E4  EF8B  F004         	goto	l1419
   507  0008E8                     l1401:
   508                           
   509                           ;maincode7.c: 116:                 for(x=8;x<10;x++){
   510  0008E8  0E08               	movlw	8
   511  0008EA  6E3E               	movwf	main@x^0,c
   512  0008EC                     l1407:
   513                           
   514                           ;maincode7.c: 117:                     LATE = visual[x];
   515  0008EC  0E15               	movlw	low _visual
   516  0008EE  243E               	addwf	main@x^0,w,c
   517  0008F0  6ED9               	movwf	fsr2l,c
   518  0008F2  6ADA               	clrf	fsr2h,c
   519  0008F4  0E00               	movlw	high _visual
   520  0008F6  22DA               	addwfc	fsr2h,f,c
   521  0008F8  50DF               	movf	indf2,w,c
   522  0008FA  6E8D               	movwf	141,c	;volatile
   523  0008FC                     
   524                           ;maincode7.c: 118:                     vis_foquitos();
   525  0008FC  ECF4  F004         	call	_vis_foquitos	;wreg free
   526  000900                     
   527                           ;maincode7.c: 119:                     retardo();
   528  000900  ECAE  F004         	call	_retardo	;wreg free
   529  000904                     
   530                           ;maincode7.c: 120:                 }
   531  000904  2A3E               	incf	main@x^0,f,c
   532  000906  0E09               	movlw	9
   533  000908  643E               	cpfsgt	main@x^0,c
   534  00090A  EF89  F004         	goto	u371
   535  00090E  EF8B  F004         	goto	u370
   536  000912                     u371:
   537  000912  EF76  F004         	goto	l1407
   538  000916                     u370:
   539  000916                     l1419:
   540  000916  5040               	movf	_estado_v^0,w,c
   541  000918  6E3C               	movwf	??_main^0,c
   542  00091A  6A3D               	clrf	(??_main+1)^0,c
   543                           
   544                           ; Switch on 2 bytes has been partitioned into a top level switch of size 1, and 1 sub-sw
      +                          itches
   545                           ; Switch size 1, requested type "simple"
   546                           ; Number of cases is 1, Range of values is 0 to 0
   547                           ; switch strategies available:
   548                           ; Name         Instructions Cycles
   549                           ; simple_byte            4     3 (average)
   550                           ;	Chosen strategy is simple_byte
   551  00091C  503D               	movf	(??_main+1)^0,w,c
   552  00091E  0A00               	xorlw	0	; case 0
   553  000920  B4D8               	btfsc	status,2,c
   554  000922  EF95  F004         	goto	l1433
   555  000926  EF8B  F004         	goto	l1419
   556  00092A                     l1433:
   557                           
   558                           ; Switch size 1, requested type "simple"
   559                           ; Number of cases is 5, Range of values is 0 to 4
   560                           ; switch strategies available:
   561                           ; Name         Instructions Cycles
   562                           ; simple_byte           16     9 (average)
   563                           ;	Chosen strategy is simple_byte
   564  00092A  503C               	movf	??_main^0,w,c
   565  00092C  0A00               	xorlw	0	; case 0
   566  00092E  B4D8               	btfsc	status,2,c
   567  000930  EF23  F004         	goto	l1349
   568  000934  0A01               	xorlw	1	; case 1
   569  000936  B4D8               	btfsc	status,2,c
   570  000938  EF29  F004         	goto	l1353
   571  00093C  0A03               	xorlw	3	; case 2
   572  00093E  B4D8               	btfsc	status,2,c
   573  000940  EF42  F004         	goto	l1369
   574  000944  0A01               	xorlw	1	; case 3
   575  000946  B4D8               	btfsc	status,2,c
   576  000948  EF5B  F004         	goto	l1385
   577  00094C  0A07               	xorlw	7	; case 4
   578  00094E  B4D8               	btfsc	status,2,c
   579  000950  EF74  F004         	goto	l1401
   580  000954  EF8B  F004         	goto	l1419
   581  000958  EF50  F000         	goto	start
   582  00095C                     __end_of_main:
   583                           	callstack 0
   584                           
   585 ;; *************** function _vis_foquitos *****************
   586 ;; Defined at:
   587 ;;		line 45 in file "maincode7.c"
   588 ;; Parameters:    Size  Location     Type
   589 ;;		None
   590 ;; Auto vars:     Size  Location     Type
   591 ;;		None
   592 ;; Return value:  Size  Location     Type
   593 ;;                  1    wreg      void 
   594 ;; Registers used:
   595 ;;		wreg, status,2, status,0, tblptrl, tblptrh, tblptru, cstack
   596 ;; Tracked objects:
   597 ;;		On entry : 0/0
   598 ;;		On exit  : 0/0
   599 ;;		Unchanged: 0/0
   600 ;; Data sizes:     COMRAM   BANK0   BANK1   BANK2   BANK3   BANK4   BANK5   BANK6   BANK7
   601 ;;      Params:         0       0       0       0       0       0       0       0       0
   602 ;;      Locals:         0       0       0       0       0       0       0       0       0
   603 ;;      Temps:          0       0       0       0       0       0       0       0       0
   604 ;;      Totals:         0       0       0       0       0       0       0       0       0
   605 ;;Total ram usage:        0 bytes
   606 ;; Hardware stack levels used: 1
   607 ;; Hardware stack levels required when called: 5
   608 ;; This function calls:
   609 ;;		_ENVIA_CHAR
   610 ;;		_ESCRIBE_MENSAJE
   611 ;;		_POS_CURSOR
   612 ;; This function is called by:
   613 ;;		_main
   614 ;; This function uses a non-reentrant model
   615 ;;
   616                           
   617                           	psect	text1
   618  0009E8                     __ptext1:
   619                           	callstack 0
   620  0009E8                     _vis_foquitos:
   621                           	callstack 25
   622  0009E8                     
   623                           ;maincode7.c: 46:     POS_CURSOR(2,0);
   624  0009E8  0E00               	movlw	0
   625  0009EA  6E36               	movwf	POS_CURSOR@columna^0,c
   626  0009EC  0E02               	movlw	2
   627  0009EE  EC28  F006         	call	_POS_CURSOR
   628  0009F2                     
   629                           ;maincode7.c: 47:     ESCRIBE_MENSAJE("LED status: ",12);
   630  0009F2  0E11               	movlw	low STR_1
   631  0009F4  6E36               	movwf	ESCRIBE_MENSAJE@cadena^0,c
   632  0009F6  0E08               	movlw	high STR_1
   633  0009F8  6E37               	movwf	(ESCRIBE_MENSAJE@cadena+1)^0,c
   634  0009FA  0E0C               	movlw	12
   635  0009FC  6E38               	movwf	ESCRIBE_MENSAJE@tam^0,c
   636  0009FE  ECEB  F005         	call	_ESCRIBE_MENSAJE	;wreg free
   637  000A02                     
   638                           ;maincode7.c: 48:     if(PORTEbits.RE2 == 0){
   639  000A02  B484               	btfsc	132,2,c	;volatile
   640  000A04  EF06  F005         	goto	u311
   641  000A08  EF08  F005         	goto	u310
   642  000A0C                     u311:
   643  000A0C  EF0D  F005         	goto	l1327
   644  000A10                     u310:
   645  000A10                     
   646                           ;maincode7.c: 49:         ENVIA_CHAR(0);
   647  000A10  0E00               	movlw	0
   648  000A12  EC45  F006         	call	_ENVIA_CHAR
   649                           
   650                           ;maincode7.c: 50:     }
   651  000A16  EF10  F005         	goto	l1329
   652  000A1A                     l1327:
   653                           
   654                           ;maincode7.c: 52:         ENVIA_CHAR(1);
   655  000A1A  0E01               	movlw	1
   656  000A1C  EC45  F006         	call	_ENVIA_CHAR
   657  000A20                     l1329:
   658                           
   659                           ;maincode7.c: 54:     if(PORTEbits.RE1 == 0){
   660  000A20  B284               	btfsc	132,1,c	;volatile
   661  000A22  EF15  F005         	goto	u321
   662  000A26  EF17  F005         	goto	u320
   663  000A2A                     u321:
   664  000A2A  EF1C  F005         	goto	l1333
   665  000A2E                     u320:
   666  000A2E                     
   667                           ;maincode7.c: 55:         ENVIA_CHAR(0);
   668  000A2E  0E00               	movlw	0
   669  000A30  EC45  F006         	call	_ENVIA_CHAR
   670                           
   671                           ;maincode7.c: 56:     }
   672  000A34  EF1F  F005         	goto	l1335
   673  000A38                     l1333:
   674                           
   675                           ;maincode7.c: 58:         ENVIA_CHAR(1);
   676  000A38  0E01               	movlw	1
   677  000A3A  EC45  F006         	call	_ENVIA_CHAR
   678  000A3E                     l1335:
   679                           
   680                           ;maincode7.c: 60:     if(PORTEbits.RE0 == 0){
   681  000A3E  B084               	btfsc	132,0,c	;volatile
   682  000A40  EF24  F005         	goto	u331
   683  000A44  EF26  F005         	goto	u330
   684  000A48                     u331:
   685  000A48  EF2B  F005         	goto	l1339
   686  000A4C                     u330:
   687  000A4C                     
   688                           ;maincode7.c: 61:         ENVIA_CHAR(0);
   689  000A4C  0E00               	movlw	0
   690  000A4E  EC45  F006         	call	_ENVIA_CHAR
   691                           
   692                           ;maincode7.c: 62:     }
   693  000A52  EF2E  F005         	goto	l149
   694  000A56                     l1339:
   695                           
   696                           ;maincode7.c: 64:         ENVIA_CHAR(1);
   697  000A56  0E01               	movlw	1
   698  000A58  EC45  F006         	call	_ENVIA_CHAR
   699  000A5C                     l149:
   700  000A5C  0012               	return		;funcret
   701  000A5E                     __end_of_vis_foquitos:
   702                           	callstack 0
   703                           
   704 ;; *************** function _POS_CURSOR *****************
   705 ;; Defined at:
   706 ;;		line 6 in file "../semana_13_el52_g1_varios.X/LCD.c"
   707 ;; Parameters:    Size  Location     Type
   708 ;;  fila            1    wreg     unsigned char 
   709 ;;  columna         1    9[COMRAM] unsigned char 
   710 ;; Auto vars:     Size  Location     Type
   711 ;;  fila            1   10[COMRAM] unsigned char 
   712 ;; Return value:  Size  Location     Type
   713 ;;                  1    wreg      void 
   714 ;; Registers used:
   715 ;;		wreg, status,2, status,0, cstack
   716 ;; Tracked objects:
   717 ;;		On entry : 0/0
   718 ;;		On exit  : 0/0
   719 ;;		Unchanged: 0/0
   720 ;; Data sizes:     COMRAM   BANK0   BANK1   BANK2   BANK3   BANK4   BANK5   BANK6   BANK7
   721 ;;      Params:         1       0       0       0       0       0       0       0       0
   722 ;;      Locals:         1       0       0       0       0       0       0       0       0
   723 ;;      Temps:          0       0       0       0       0       0       0       0       0
   724 ;;      Totals:         2       0       0       0       0       0       0       0       0
   725 ;;Total ram usage:        2 bytes
   726 ;; Hardware stack levels used: 1
   727 ;; Hardware stack levels required when called: 4
   728 ;; This function calls:
   729 ;;		_ENVIA_LCD_CMD
   730 ;; This function is called by:
   731 ;;		_vis_foquitos
   732 ;;		_main
   733 ;; This function uses a non-reentrant model
   734 ;;
   735                           
   736                           	psect	text2
   737  000C50                     __ptext2:
   738                           	callstack 0
   739  000C50                     _POS_CURSOR:
   740                           	callstack 25
   741                           
   742                           ;incstack = 0
   743                           ;POS_CURSOR@fila stored from wreg
   744  000C50  6E37               	movwf	POS_CURSOR@fila^0,c
   745  000C52                     
   746                           ;../semana_13_el52_g1_varios.X/LCD.c: 6: void POS_CURSOR(unsigned char fila,unsigned cha
      +                          r columna);../semana_13_el52_g1_varios.X/LCD.c: 7: {;../semana_13_el52_g1_varios.X/LCD.c
      +                          : 8:  if(fila == 1)
   747  000C52  0437               	decf	POS_CURSOR@fila^0,w,c
   748  000C54  A4D8               	btfss	status,2,c
   749  000C56  EF2F  F006         	goto	u271
   750  000C5A  EF31  F006         	goto	u270
   751  000C5E                     u271:
   752  000C5E  EF37  F006         	goto	l1275
   753  000C62                     u270:
   754  000C62                     
   755                           ;../semana_13_el52_g1_varios.X/LCD.c: 9:  {;../semana_13_el52_g1_varios.X/LCD.c: 10:   E
      +                          NVIA_LCD_CMD(0x80+columna);
   756  000C62  5036               	movf	POS_CURSOR@columna^0,w,c
   757  000C64  0F80               	addlw	128
   758  000C66  EC5F  F006         	call	_ENVIA_LCD_CMD
   759                           
   760                           ;../semana_13_el52_g1_varios.X/LCD.c: 11:  }
   761  000C6A  EF44  F006         	goto	l24
   762  000C6E                     l1275:
   763  000C6E  0E02               	movlw	2
   764  000C70  1837               	xorwf	POS_CURSOR@fila^0,w,c
   765  000C72  A4D8               	btfss	status,2,c
   766  000C74  EF3E  F006         	goto	u281
   767  000C78  EF40  F006         	goto	u280
   768  000C7C                     u281:
   769  000C7C  EF44  F006         	goto	l24
   770  000C80                     u280:
   771  000C80                     
   772                           ;../semana_13_el52_g1_varios.X/LCD.c: 13:  {;../semana_13_el52_g1_varios.X/LCD.c: 14:   
      +                          ENVIA_LCD_CMD(0xC0+columna);
   773  000C80  5036               	movf	POS_CURSOR@columna^0,w,c
   774  000C82  0FC0               	addlw	192
   775  000C84  EC5F  F006         	call	_ENVIA_LCD_CMD
   776  000C88                     l24:
   777  000C88  0012               	return		;funcret
   778  000C8A                     __end_of_POS_CURSOR:
   779                           	callstack 0
   780                           
   781 ;; *************** function _ESCRIBE_MENSAJE *****************
   782 ;; Defined at:
   783 ;;		line 41 in file "../semana_13_el52_g1_varios.X/LCD.c"
   784 ;; Parameters:    Size  Location     Type
   785 ;;  cadena          2    9[COMRAM] PTR const unsigned char 
   786 ;;		 -> STR_2(16), STR_1(13), 
   787 ;;  tam             1   11[COMRAM] unsigned char 
   788 ;; Auto vars:     Size  Location     Type
   789 ;;  i               1   14[COMRAM] unsigned char 
   790 ;; Return value:  Size  Location     Type
   791 ;;                  1    wreg      void 
   792 ;; Registers used:
   793 ;;		wreg, status,2, status,0, tblptrl, tblptrh, tblptru, cstack
   794 ;; Tracked objects:
   795 ;;		On entry : 0/0
   796 ;;		On exit  : 0/0
   797 ;;		Unchanged: 0/0
   798 ;; Data sizes:     COMRAM   BANK0   BANK1   BANK2   BANK3   BANK4   BANK5   BANK6   BANK7
   799 ;;      Params:         3       0       0       0       0       0       0       0       0
   800 ;;      Locals:         1       0       0       0       0       0       0       0       0
   801 ;;      Temps:          2       0       0       0       0       0       0       0       0
   802 ;;      Totals:         6       0       0       0       0       0       0       0       0
   803 ;;Total ram usage:        6 bytes
   804 ;; Hardware stack levels used: 1
   805 ;; Hardware stack levels required when called: 4
   806 ;; This function calls:
   807 ;;		_ENVIA_CHAR
   808 ;; This function is called by:
   809 ;;		_vis_foquitos
   810 ;;		_main
   811 ;; This function uses a non-reentrant model
   812 ;;
   813                           
   814                           	psect	text3
   815  000BD6                     __ptext3:
   816                           	callstack 0
   817  000BD6                     _ESCRIBE_MENSAJE:
   818                           	callstack 25
   819  000BD6                     
   820                           ;../semana_13_el52_g1_varios.X/LCD.c: 41: void ESCRIBE_MENSAJE(const char *cadena,unsign
      +                          ed char tam);../semana_13_el52_g1_varios.X/LCD.c: 42: {;../semana_13_el52_g1_varios.X/LC
      +                          D.c: 43:  unsigned char i = 0;
   821  000BD6  0E00               	movlw	0
   822  000BD8  6E3B               	movwf	ESCRIBE_MENSAJE@i^0,c
   823                           
   824                           ;../semana_13_el52_g1_varios.X/LCD.c: 44:  for(i = 0; i<tam; i++)
   825  000BDA  0E00               	movlw	0
   826  000BDC  6E3B               	movwf	ESCRIBE_MENSAJE@i^0,c
   827  000BDE  EF00  F006         	goto	l1285
   828  000BE2                     l1281:
   829                           
   830                           ;../semana_13_el52_g1_varios.X/LCD.c: 45:  {;../semana_13_el52_g1_varios.X/LCD.c: 46:   
      +                          ENVIA_CHAR(cadena[i]);
   831  000BE2  503B               	movf	ESCRIBE_MENSAJE@i^0,w,c
   832  000BE4  2436               	addwf	ESCRIBE_MENSAJE@cadena^0,w,c
   833  000BE6  6E39               	movwf	??_ESCRIBE_MENSAJE^0,c
   834  000BE8  0E00               	movlw	0
   835  000BEA  2037               	addwfc	(ESCRIBE_MENSAJE@cadena+1)^0,w,c
   836  000BEC  6E3A               	movwf	(??_ESCRIBE_MENSAJE+1)^0,c
   837  000BEE  C039  FFF6         	movff	??_ESCRIBE_MENSAJE,tblptrl
   838  000BF2  C03A  FFF7         	movff	??_ESCRIBE_MENSAJE+1,tblptrh
   839  000BF6                     	if	0	;tblptru may be non-zero
   840  000BF6                     	endif
   841  000BF6                     	if	0	;tblptru may be non-zero
   842  000BF6                     	endif
   843  000BF6  0008               	tblrd		*
   844  000BF8  50F5               	movf	tablat,w,c
   845  000BFA  EC45  F006         	call	_ENVIA_CHAR
   846  000BFE                     
   847                           ;../semana_13_el52_g1_varios.X/LCD.c: 47:  }
   848  000BFE  2A3B               	incf	ESCRIBE_MENSAJE@i^0,f,c
   849  000C00                     l1285:
   850  000C00  5038               	movf	ESCRIBE_MENSAJE@tam^0,w,c
   851  000C02  5C3B               	subwf	ESCRIBE_MENSAJE@i^0,w,c
   852  000C04  A0D8               	btfss	status,0,c
   853  000C06  EF07  F006         	goto	u291
   854  000C0A  EF09  F006         	goto	u290
   855  000C0E                     u291:
   856  000C0E  EFF1  F005         	goto	l1281
   857  000C12                     u290:
   858  000C12  0012               	return		;funcret
   859  000C14                     __end_of_ESCRIBE_MENSAJE:
   860                           	callstack 0
   861                           
   862 ;; *************** function _retardo *****************
   863 ;; Defined at:
   864 ;;		line 68 in file "maincode7.c"
   865 ;; Parameters:    Size  Location     Type
   866 ;;		None
   867 ;; Auto vars:     Size  Location     Type
   868 ;;		None
   869 ;; Return value:  Size  Location     Type
   870 ;;                  1    wreg      void 
   871 ;; Registers used:
   872 ;;		wreg, status,2, status,0
   873 ;; Tracked objects:
   874 ;;		On entry : 0/0
   875 ;;		On exit  : 0/0
   876 ;;		Unchanged: 0/0
   877 ;; Data sizes:     COMRAM   BANK0   BANK1   BANK2   BANK3   BANK4   BANK5   BANK6   BANK7
   878 ;;      Params:         0       0       0       0       0       0       0       0       0
   879 ;;      Locals:         0       0       0       0       0       0       0       0       0
   880 ;;      Temps:          2       0       0       0       0       0       0       0       0
   881 ;;      Totals:         2       0       0       0       0       0       0       0       0
   882 ;;Total ram usage:        2 bytes
   883 ;; Hardware stack levels used: 1
   884 ;; Hardware stack levels required when called: 2
   885 ;; This function calls:
   886 ;;		Nothing
   887 ;; This function is called by:
   888 ;;		_main
   889 ;; This function uses a non-reentrant model
   890 ;;
   891                           
   892                           	psect	text4
   893  00095C                     __ptext4:
   894                           	callstack 0
   895  00095C                     _retardo:
   896                           	callstack 28
   897  00095C                     
   898                           ;maincode7.c: 69:     switch(estado_s){
   899  00095C  EFDA  F004         	goto	l1119
   900  000960                     l1111:
   901                           
   902                           ;maincode7.c: 71:             _delay((unsigned long)((400)*(8000000UL/4000.0)));
   903  000960  0E05               	movlw	5
   904  000962  6E34               	movwf	(??_retardo+1)^0,c
   905  000964  0E0F               	movlw	15
   906  000966  6E33               	movwf	??_retardo^0,c
   907  000968  0EF1               	movlw	241
   908  00096A                     u387:
   909  00096A  2EE8               	decfsz	wreg,f,c
   910  00096C  D7FE               	bra	u387
   911  00096E  2E33               	decfsz	??_retardo^0,f,c
   912  000970  D7FC               	bra	u387
   913  000972  2E34               	decfsz	(??_retardo+1)^0,f,c
   914  000974  D7FA               	bra	u387
   915  000976  F000               	nop	
   916                           
   917                           ;maincode7.c: 72:             break;
   918  000978  EFF3  F004         	goto	l157
   919  00097C                     l1113:
   920                           
   921                           ;maincode7.c: 74:             _delay((unsigned long)((200)*(8000000UL/4000.0)));
   922  00097C  0E03               	movlw	3
   923  00097E  6E34               	movwf	(??_retardo+1)^0,c
   924  000980  0E08               	movlw	8
   925  000982  6E33               	movwf	??_retardo^0,c
   926  000984  0E77               	movlw	119
   927  000986                     u397:
   928  000986  2EE8               	decfsz	wreg,f,c
   929  000988  D7FE               	bra	u397
   930  00098A  2E33               	decfsz	??_retardo^0,f,c
   931  00098C  D7FC               	bra	u397
   932  00098E  2E34               	decfsz	(??_retardo+1)^0,f,c
   933  000990  D7FA               	bra	u397
   934  000992  F000               	nop	
   935                           
   936                           ;maincode7.c: 75:             break;
   937  000994  EFF3  F004         	goto	l157
   938  000998                     l1115:
   939                           
   940                           ;maincode7.c: 77:             _delay((unsigned long)((100)*(8000000UL/4000.0)));
   941  000998  0E02               	movlw	2
   942  00099A  6E34               	movwf	(??_retardo+1)^0,c
   943  00099C  0E04               	movlw	4
   944  00099E  6E33               	movwf	??_retardo^0,c
   945  0009A0  0EBA               	movlw	186
   946  0009A2                     u407:
   947  0009A2  2EE8               	decfsz	wreg,f,c
   948  0009A4  D7FE               	bra	u407
   949  0009A6  2E33               	decfsz	??_retardo^0,f,c
   950  0009A8  D7FC               	bra	u407
   951  0009AA  2E34               	decfsz	(??_retardo+1)^0,f,c
   952  0009AC  D7FA               	bra	u407
   953  0009AE  D000               	nop2	
   954                           
   955                           ;maincode7.c: 78:             break;
   956  0009B0  EFF3  F004         	goto	l157
   957  0009B4                     l1119:
   958  0009B4  503F               	movf	_estado_s^0,w,c
   959  0009B6  6E33               	movwf	??_retardo^0,c
   960  0009B8  6A34               	clrf	(??_retardo+1)^0,c
   961                           
   962                           ; Switch on 2 bytes has been partitioned into a top level switch of size 1, and 1 sub-sw
      +                          itches
   963                           ; Switch size 1, requested type "simple"
   964                           ; Number of cases is 1, Range of values is 0 to 0
   965                           ; switch strategies available:
   966                           ; Name         Instructions Cycles
   967                           ; simple_byte            4     3 (average)
   968                           ;	Chosen strategy is simple_byte
   969  0009BA  5034               	movf	(??_retardo+1)^0,w,c
   970  0009BC  0A00               	xorlw	0	; case 0
   971  0009BE  B4D8               	btfsc	status,2,c
   972  0009C0  EFE4  F004         	goto	l1435
   973  0009C4  EFF3  F004         	goto	l157
   974  0009C8                     l1435:
   975                           
   976                           ; Switch size 1, requested type "simple"
   977                           ; Number of cases is 3, Range of values is 0 to 2
   978                           ; switch strategies available:
   979                           ; Name         Instructions Cycles
   980                           ; simple_byte           10     6 (average)
   981                           ;	Chosen strategy is simple_byte
   982  0009C8  5033               	movf	??_retardo^0,w,c
   983  0009CA  0A00               	xorlw	0	; case 0
   984  0009CC  B4D8               	btfsc	status,2,c
   985  0009CE  EFB0  F004         	goto	l1111
   986  0009D2  0A01               	xorlw	1	; case 1
   987  0009D4  B4D8               	btfsc	status,2,c
   988  0009D6  EFBE  F004         	goto	l1113
   989  0009DA  0A03               	xorlw	3	; case 2
   990  0009DC  B4D8               	btfsc	status,2,c
   991  0009DE  EFCC  F004         	goto	l1115
   992  0009E2  EFF3  F004         	goto	l157
   993  0009E6                     l157:
   994  0009E6  0012               	return		;funcret
   995  0009E8                     __end_of_retardo:
   996                           	callstack 0
   997                           
   998 ;; *************** function _init_LCD *****************
   999 ;; Defined at:
  1000 ;;		line 34 in file "maincode7.c"
  1001 ;; Parameters:    Size  Location     Type
  1002 ;;		None
  1003 ;; Auto vars:     Size  Location     Type
  1004 ;;		None
  1005 ;; Return value:  Size  Location     Type
  1006 ;;                  1    wreg      void 
  1007 ;; Registers used:
  1008 ;;		wreg, fsr2l, fsr2h, status,2, status,0, prodl, prodh, cstack
  1009 ;; Tracked objects:
  1010 ;;		On entry : 0/0
  1011 ;;		On exit  : 0/0
  1012 ;;		Unchanged: 0/0
  1013 ;; Data sizes:     COMRAM   BANK0   BANK1   BANK2   BANK3   BANK4   BANK5   BANK6   BANK7
  1014 ;;      Params:         0       0       0       0       0       0       0       0       0
  1015 ;;      Locals:         0       0       0       0       0       0       0       0       0
  1016 ;;      Temps:          1       0       0       0       0       0       0       0       0
  1017 ;;      Totals:         1       0       0       0       0       0       0       0       0
  1018 ;;Total ram usage:        1 bytes
  1019 ;; Hardware stack levels used: 1
  1020 ;; Hardware stack levels required when called: 5
  1021 ;; This function calls:
  1022 ;;		_BORRAR_LCD
  1023 ;;		_CURSOR_HOME
  1024 ;;		_CURSOR_ONOFF
  1025 ;;		_GENERACARACTER
  1026 ;;		_LCD_CONFIG
  1027 ;; This function is called by:
  1028 ;;		_main
  1029 ;; This function uses a non-reentrant model
  1030 ;;
  1031                           
  1032                           	psect	text5
  1033  000B8E                     __ptext5:
  1034                           	callstack 0
  1035  000B8E                     _init_LCD:
  1036                           	callstack 25
  1037  000B8E                     
  1038                           ;maincode7.c: 35:     TRISD = 0x00;
  1039  000B8E  0E00               	movlw	0
  1040  000B90  6E95               	movwf	149,c	;volatile
  1041  000B92                     
  1042                           ;maincode7.c: 36:     LCD_CONFIG();
  1043  000B92  EC68  F005         	call	_LCD_CONFIG	;wreg free
  1044  000B96                     
  1045                           ;maincode7.c: 37:     _delay((unsigned long)((22)*(8000000UL/4000.0)));
  1046  000B96  0E3A               	movlw	58
  1047  000B98  6E3A               	movwf	??_init_LCD^0,c
  1048  000B9A  0E23               	movlw	35
  1049  000B9C                     u417:
  1050  000B9C  2EE8               	decfsz	wreg,f,c
  1051  000B9E  D7FE               	bra	u417
  1052  000BA0  2E3A               	decfsz	??_init_LCD^0,f,c
  1053  000BA2  D7FC               	bra	u417
  1054  000BA4  F000               	nop	
  1055  000BA6                     
  1056                           ;maincode7.c: 38:     BORRAR_LCD();
  1057  000BA6  ECE9  F006         	call	_BORRAR_LCD	;wreg free
  1058  000BAA                     
  1059                           ;maincode7.c: 39:     CURSOR_HOME();
  1060  000BAA  ECE5  F006         	call	_CURSOR_HOME	;wreg free
  1061  000BAE                     
  1062                           ;maincode7.c: 40:     CURSOR_ONOFF(1);
  1063  000BAE  0E01               	movlw	1
  1064  000BB0  EC92  F006         	call	_CURSOR_ONOFF
  1065  000BB4                     
  1066                           ;maincode7.c: 41:     GENERACARACTER(foco_apagado,0);
  1067  000BB4  0E26               	movlw	low _foco_apagado
  1068  000BB6  6E36               	movwf	GENERACARACTER@vector^0,c
  1069  000BB8  0E00               	movlw	high _foco_apagado
  1070  000BBA  6E37               	movwf	(GENERACARACTER@vector+1)^0,c
  1071  000BBC  0E00               	movlw	0
  1072  000BBE  6E38               	movwf	GENERACARACTER@pos^0,c
  1073  000BC0  EC0A  F006         	call	_GENERACARACTER	;wreg free
  1074  000BC4                     
  1075                           ;maincode7.c: 42:     GENERACARACTER(foco_prendido,1);
  1076  000BC4  0E1F               	movlw	low _foco_prendido
  1077  000BC6  6E36               	movwf	GENERACARACTER@vector^0,c
  1078  000BC8  0E00               	movlw	high _foco_prendido
  1079  000BCA  6E37               	movwf	(GENERACARACTER@vector+1)^0,c
  1080  000BCC  0E01               	movlw	1
  1081  000BCE  6E38               	movwf	GENERACARACTER@pos^0,c
  1082  000BD0  EC0A  F006         	call	_GENERACARACTER	;wreg free
  1083  000BD4  0012               	return		;funcret
  1084  000BD6                     __end_of_init_LCD:
  1085                           	callstack 0
  1086                           
  1087 ;; *************** function _LCD_CONFIG *****************
  1088 ;; Defined at:
  1089 ;;		line 72 in file "../semana_13_el52_g1_varios.X/LCD.c"
  1090 ;; Parameters:    Size  Location     Type
  1091 ;;		None
  1092 ;; Auto vars:     Size  Location     Type
  1093 ;;		None
  1094 ;; Return value:  Size  Location     Type
  1095 ;;                  1    wreg      void 
  1096 ;; Registers used:
  1097 ;;		wreg, status,2, status,0, cstack
  1098 ;; Tracked objects:
  1099 ;;		On entry : 0/0
  1100 ;;		On exit  : 0/0
  1101 ;;		Unchanged: 0/0
  1102 ;; Data sizes:     COMRAM   BANK0   BANK1   BANK2   BANK3   BANK4   BANK5   BANK6   BANK7
  1103 ;;      Params:         0       0       0       0       0       0       0       0       0
  1104 ;;      Locals:         0       0       0       0       0       0       0       0       0
  1105 ;;      Temps:          1       0       0       0       0       0       0       0       0
  1106 ;;      Totals:         1       0       0       0       0       0       0       0       0
  1107 ;;Total ram usage:        1 bytes
  1108 ;; Hardware stack levels used: 1
  1109 ;; Hardware stack levels required when called: 4
  1110 ;; This function calls:
  1111 ;;		_ENVIA_LCD_CMD
  1112 ;;		_ENVIA_NIBBLE
  1113 ;; This function is called by:
  1114 ;;		_init_LCD
  1115 ;; This function uses a non-reentrant model
  1116 ;;
  1117                           
  1118                           	psect	text6
  1119  000AD0                     __ptext6:
  1120                           	callstack 0
  1121  000AD0                     _LCD_CONFIG:
  1122                           	callstack 25
  1123  000AD0                     
  1124                           ;../semana_13_el52_g1_varios.X/LCD.c: 74:  LATDbits.LATD0 = 0;
  1125  000AD0  908C               	bcf	140,0,c	;volatile
  1126                           
  1127                           ;../semana_13_el52_g1_varios.X/LCD.c: 75:  LATDbits.LATD1 = 0;
  1128  000AD2  928C               	bcf	140,1,c	;volatile
  1129  000AD4                     
  1130                           ;../semana_13_el52_g1_varios.X/LCD.c: 76:  ENVIA_NIBBLE(0x30);
  1131  000AD4  0E30               	movlw	48
  1132  000AD6  ECD7  F006         	call	_ENVIA_NIBBLE
  1133  000ADA                     
  1134                           ;../semana_13_el52_g1_varios.X/LCD.c: 77:         _delay(24000);
  1135  000ADA  0E20               	movlw	32
  1136  000ADC  6E36               	movwf	??_LCD_CONFIG^0,c
  1137  000ADE  0E2A               	movlw	42
  1138  000AE0                     u427:
  1139  000AE0  2EE8               	decfsz	wreg,f,c
  1140  000AE2  D7FE               	bra	u427
  1141  000AE4  2E36               	decfsz	??_LCD_CONFIG^0,f,c
  1142  000AE6  D7FC               	bra	u427
  1143  000AE8                     
  1144                           ;../semana_13_el52_g1_varios.X/LCD.c: 78:         _delay(24000);
  1145  000AE8  0E20               	movlw	32
  1146  000AEA  6E36               	movwf	??_LCD_CONFIG^0,c
  1147  000AEC  0E2A               	movlw	42
  1148  000AEE                     u437:
  1149  000AEE  2EE8               	decfsz	wreg,f,c
  1150  000AF0  D7FE               	bra	u437
  1151  000AF2  2E36               	decfsz	??_LCD_CONFIG^0,f,c
  1152  000AF4  D7FC               	bra	u437
  1153                           
  1154                           ;../semana_13_el52_g1_varios.X/LCD.c: 81:  ENVIA_NIBBLE(0x30);
  1155  000AF6  0E30               	movlw	48
  1156  000AF8  ECD7  F006         	call	_ENVIA_NIBBLE
  1157  000AFC                     
  1158                           ;../semana_13_el52_g1_varios.X/LCD.c: 83:  _delay(1200);
  1159  000AFC  0EF0               	movlw	240
  1160  000AFE                     u447:
  1161  000AFE  D000               	nop2	
  1162  000B00  2EE8               	decfsz	wreg,f,c
  1163  000B02  D7FD               	bra	u447
  1164  000B04                     
  1165                           ;../semana_13_el52_g1_varios.X/LCD.c: 84:         ENVIA_NIBBLE(0x30);
  1166  000B04  0E30               	movlw	48
  1167  000B06  ECD7  F006         	call	_ENVIA_NIBBLE
  1168  000B0A                     
  1169                           ;../semana_13_el52_g1_varios.X/LCD.c: 85:  ENVIA_NIBBLE(0x20);
  1170  000B0A  0E20               	movlw	32
  1171  000B0C  ECD7  F006         	call	_ENVIA_NIBBLE
  1172  000B10                     
  1173                           ;../semana_13_el52_g1_varios.X/LCD.c: 86:  ENVIA_LCD_CMD(0x01);
  1174  000B10  0E01               	movlw	1
  1175  000B12  EC5F  F006         	call	_ENVIA_LCD_CMD
  1176  000B16                     
  1177                           ;../semana_13_el52_g1_varios.X/LCD.c: 87:  ENVIA_LCD_CMD(0x28);
  1178  000B16  0E28               	movlw	40
  1179  000B18  EC5F  F006         	call	_ENVIA_LCD_CMD
  1180  000B1C                     
  1181                           ;../semana_13_el52_g1_varios.X/LCD.c: 88:  ENVIA_LCD_CMD(0x0F);
  1182  000B1C  0E0F               	movlw	15
  1183  000B1E  EC5F  F006         	call	_ENVIA_LCD_CMD
  1184  000B22                     
  1185                           ;../semana_13_el52_g1_varios.X/LCD.c: 89:  ENVIA_LCD_CMD(0x06);
  1186  000B22  0E06               	movlw	6
  1187  000B24  EC5F  F006         	call	_ENVIA_LCD_CMD
  1188  000B28                     
  1189                           ;../semana_13_el52_g1_varios.X/LCD.c: 90:  ENVIA_LCD_CMD(0x01);
  1190  000B28  0E01               	movlw	1
  1191  000B2A  EC5F  F006         	call	_ENVIA_LCD_CMD
  1192  000B2E  0012               	return		;funcret
  1193  000B30                     __end_of_LCD_CONFIG:
  1194                           	callstack 0
  1195                           
  1196 ;; *************** function _GENERACARACTER *****************
  1197 ;; Defined at:
  1198 ;;		line 153 in file "../semana_13_el52_g1_varios.X/LCD.c"
  1199 ;; Parameters:    Size  Location     Type
  1200 ;;  vector          2    9[COMRAM] PTR const unsigned char 
  1201 ;;		 -> foco_prendido(7), foco_apagado(7), 
  1202 ;;  pos             1   11[COMRAM] unsigned char 
  1203 ;; Auto vars:     Size  Location     Type
  1204 ;;  i               1   12[COMRAM] unsigned char 
  1205 ;; Return value:  Size  Location     Type
  1206 ;;                  1    wreg      void 
  1207 ;; Registers used:
  1208 ;;		wreg, fsr2l, fsr2h, status,2, status,0, prodl, prodh, cstack
  1209 ;; Tracked objects:
  1210 ;;		On entry : 0/0
  1211 ;;		On exit  : 0/0
  1212 ;;		Unchanged: 0/0
  1213 ;; Data sizes:     COMRAM   BANK0   BANK1   BANK2   BANK3   BANK4   BANK5   BANK6   BANK7
  1214 ;;      Params:         3       0       0       0       0       0       0       0       0
  1215 ;;      Locals:         1       0       0       0       0       0       0       0       0
  1216 ;;      Temps:          0       0       0       0       0       0       0       0       0
  1217 ;;      Totals:         4       0       0       0       0       0       0       0       0
  1218 ;;Total ram usage:        4 bytes
  1219 ;; Hardware stack levels used: 1
  1220 ;; Hardware stack levels required when called: 4
  1221 ;; This function calls:
  1222 ;;		_ENVIA_CHAR
  1223 ;;		_ENVIA_LCD_CMD
  1224 ;; This function is called by:
  1225 ;;		_init_LCD
  1226 ;; This function uses a non-reentrant model
  1227 ;;
  1228                           
  1229                           	psect	text7
  1230  000C14                     __ptext7:
  1231                           	callstack 0
  1232  000C14                     _GENERACARACTER:
  1233                           	callstack 25
  1234  000C14                     
  1235                           ;../semana_13_el52_g1_varios.X/LCD.c: 153: void GENERACARACTER(const unsigned char *vect
      +                          or,unsigned char pos);../semana_13_el52_g1_varios.X/LCD.c: 154: {;../semana_13_el52_g1_v
      +                          arios.X/LCD.c: 155:  unsigned char i;;../semana_13_el52_g1_varios.X/LCD.c: 156:  ENVIA_L
      +                          CD_CMD(0x40+8*pos);
  1236  000C14  5038               	movf	GENERACARACTER@pos^0,w,c
  1237  000C16  0D08               	mullw	8
  1238  000C18  50F3               	movf	243,w,c
  1239  000C1A  0F40               	addlw	64
  1240  000C1C  EC5F  F006         	call	_ENVIA_LCD_CMD
  1241  000C20                     
  1242                           ;../semana_13_el52_g1_varios.X/LCD.c: 157:  for(i=0;i<8;i++)
  1243  000C20  0E00               	movlw	0
  1244  000C22  6E39               	movwf	GENERACARACTER@i^0,c
  1245  000C24                     l1295:
  1246                           
  1247                           ;../semana_13_el52_g1_varios.X/LCD.c: 158:  {;../semana_13_el52_g1_varios.X/LCD.c: 159: 
      +                            ENVIA_CHAR(vector[i]);
  1248  000C24  5039               	movf	GENERACARACTER@i^0,w,c
  1249  000C26  2436               	addwf	GENERACARACTER@vector^0,w,c
  1250  000C28  6ED9               	movwf	fsr2l,c
  1251  000C2A  0E00               	movlw	0
  1252  000C2C  2037               	addwfc	(GENERACARACTER@vector+1)^0,w,c
  1253  000C2E  6EDA               	movwf	fsr2h,c
  1254  000C30  50DF               	movf	indf2,w,c
  1255  000C32  EC45  F006         	call	_ENVIA_CHAR
  1256  000C36                     
  1257                           ;../semana_13_el52_g1_varios.X/LCD.c: 160:  }
  1258  000C36  2A39               	incf	GENERACARACTER@i^0,f,c
  1259  000C38  0E07               	movlw	7
  1260  000C3A  6439               	cpfsgt	GENERACARACTER@i^0,c
  1261  000C3C  EF22  F006         	goto	u301
  1262  000C40  EF24  F006         	goto	u300
  1263  000C44                     u301:
  1264  000C44  EF12  F006         	goto	l1295
  1265  000C48                     u300:
  1266  000C48                     
  1267                           ;../semana_13_el52_g1_varios.X/LCD.c: 161:  ENVIA_LCD_CMD(0x80);
  1268  000C48  0E80               	movlw	128
  1269  000C4A  EC5F  F006         	call	_ENVIA_LCD_CMD
  1270  000C4E  0012               	return		;funcret
  1271  000C50                     __end_of_GENERACARACTER:
  1272                           	callstack 0
  1273                           
  1274 ;; *************** function _ENVIA_CHAR *****************
  1275 ;; Defined at:
  1276 ;;		line 50 in file "../semana_13_el52_g1_varios.X/LCD.c"
  1277 ;; Parameters:    Size  Location     Type
  1278 ;;  dato            1    wreg     unsigned char 
  1279 ;; Auto vars:     Size  Location     Type
  1280 ;;  dato            1    7[COMRAM] unsigned char 
  1281 ;;  aux             1    8[COMRAM] unsigned char 
  1282 ;; Return value:  Size  Location     Type
  1283 ;;                  1    wreg      void 
  1284 ;; Registers used:
  1285 ;;		wreg, status,2, status,0, cstack
  1286 ;; Tracked objects:
  1287 ;;		On entry : 0/0
  1288 ;;		On exit  : 0/0
  1289 ;;		Unchanged: 0/0
  1290 ;; Data sizes:     COMRAM   BANK0   BANK1   BANK2   BANK3   BANK4   BANK5   BANK6   BANK7
  1291 ;;      Params:         0       0       0       0       0       0       0       0       0
  1292 ;;      Locals:         2       0       0       0       0       0       0       0       0
  1293 ;;      Temps:          0       0       0       0       0       0       0       0       0
  1294 ;;      Totals:         2       0       0       0       0       0       0       0       0
  1295 ;;Total ram usage:        2 bytes
  1296 ;; Hardware stack levels used: 1
  1297 ;; Hardware stack levels required when called: 3
  1298 ;; This function calls:
  1299 ;;		_ENVIA_NIBBLE
  1300 ;;		_LEER_LCD
  1301 ;; This function is called by:
  1302 ;;		_ESCRIBE_MENSAJE
  1303 ;;		_GENERACARACTER
  1304 ;;		_vis_foquitos
  1305 ;; This function uses a non-reentrant model
  1306 ;;
  1307                           
  1308                           	psect	text8
  1309  000C8A                     __ptext8:
  1310                           	callstack 0
  1311  000C8A                     _ENVIA_CHAR:
  1312                           	callstack 25
  1313                           
  1314                           ;incstack = 0
  1315                           ;ENVIA_CHAR@dato stored from wreg
  1316  000C8A  6E34               	movwf	ENVIA_CHAR@dato^0,c
  1317  000C8C                     
  1318                           ;../semana_13_el52_g1_varios.X/LCD.c: 50: void ENVIA_CHAR(unsigned char dato);../semana_
      +                          13_el52_g1_varios.X/LCD.c: 51: {;../semana_13_el52_g1_varios.X/LCD.c: 52:  unsigned char
      +                           aux;;../semana_13_el52_g1_varios.X/LCD.c: 53:  LATDbits.LATD0 = 1;
  1319  000C8C  808C               	bsf	140,0,c	;volatile
  1320  000C8E                     
  1321                           ;../semana_13_el52_g1_varios.X/LCD.c: 54:  LEER_LCD();
  1322  000C8E  EC2F  F005         	call	_LEER_LCD	;wreg free
  1323  000C92                     
  1324                           ;../semana_13_el52_g1_varios.X/LCD.c: 55:  TRISD = 0x00;
  1325  000C92  0E00               	movlw	0
  1326  000C94  6E95               	movwf	149,c	;volatile
  1327  000C96                     
  1328                           ;../semana_13_el52_g1_varios.X/LCD.c: 56:         _delay(1200);
  1329  000C96  0EF0               	movlw	240
  1330  000C98                     u457:
  1331  000C98  D000               	nop2	
  1332  000C9A  2EE8               	decfsz	wreg,f,c
  1333  000C9C  D7FD               	bra	u457
  1334  000C9E                     
  1335                           ;../semana_13_el52_g1_varios.X/LCD.c: 58:  LATDbits.LATD1 = 0;
  1336  000C9E  928C               	bcf	140,1,c	;volatile
  1337  000CA0                     
  1338                           ;../semana_13_el52_g1_varios.X/LCD.c: 59:  LATDbits.LATD2 = 0;
  1339  000CA0  948C               	bcf	140,2,c	;volatile
  1340  000CA2                     
  1341                           ;../semana_13_el52_g1_varios.X/LCD.c: 60:  LATDbits.LATD0 = 1;
  1342  000CA2  808C               	bsf	140,0,c	;volatile
  1343  000CA4                     
  1344                           ;../semana_13_el52_g1_varios.X/LCD.c: 61:  aux = dato & 0xF0;
  1345  000CA4  5034               	movf	ENVIA_CHAR@dato^0,w,c
  1346  000CA6  0BF0               	andlw	240
  1347  000CA8  6E35               	movwf	ENVIA_CHAR@aux^0,c
  1348  000CAA                     
  1349                           ;../semana_13_el52_g1_varios.X/LCD.c: 62:  ENVIA_NIBBLE(aux);
  1350  000CAA  5035               	movf	ENVIA_CHAR@aux^0,w,c
  1351  000CAC  ECD7  F006         	call	_ENVIA_NIBBLE
  1352  000CB0                     
  1353                           ;../semana_13_el52_g1_varios.X/LCD.c: 63:  aux = dato << 4;
  1354  000CB0  3834               	swapf	ENVIA_CHAR@dato^0,w,c
  1355  000CB2  0BF0               	andlw	240
  1356  000CB4  6E35               	movwf	ENVIA_CHAR@aux^0,c
  1357  000CB6                     
  1358                           ;../semana_13_el52_g1_varios.X/LCD.c: 64:  ENVIA_NIBBLE(aux);
  1359  000CB6  5035               	movf	ENVIA_CHAR@aux^0,w,c
  1360  000CB8  ECD7  F006         	call	_ENVIA_NIBBLE
  1361  000CBC  0012               	return		;funcret
  1362  000CBE                     __end_of_ENVIA_CHAR:
  1363                           	callstack 0
  1364                           
  1365 ;; *************** function _CURSOR_ONOFF *****************
  1366 ;; Defined at:
  1367 ;;		line 35 in file "../semana_13_el52_g1_varios.X/LCD.c"
  1368 ;; Parameters:    Size  Location     Type
  1369 ;;  estado          1    wreg     unsigned char 
  1370 ;; Auto vars:     Size  Location     Type
  1371 ;;  estado          1    9[COMRAM] unsigned char 
  1372 ;; Return value:  Size  Location     Type
  1373 ;;                  1    wreg      void 
  1374 ;; Registers used:
  1375 ;;		wreg, status,2, status,0, cstack
  1376 ;; Tracked objects:
  1377 ;;		On entry : 0/0
  1378 ;;		On exit  : 0/0
  1379 ;;		Unchanged: 0/0
  1380 ;; Data sizes:     COMRAM   BANK0   BANK1   BANK2   BANK3   BANK4   BANK5   BANK6   BANK7
  1381 ;;      Params:         0       0       0       0       0       0       0       0       0
  1382 ;;      Locals:         1       0       0       0       0       0       0       0       0
  1383 ;;      Temps:          0       0       0       0       0       0       0       0       0
  1384 ;;      Totals:         1       0       0       0       0       0       0       0       0
  1385 ;;Total ram usage:        1 bytes
  1386 ;; Hardware stack levels used: 1
  1387 ;; Hardware stack levels required when called: 4
  1388 ;; This function calls:
  1389 ;;		_ENVIA_LCD_CMD
  1390 ;; This function is called by:
  1391 ;;		_init_LCD
  1392 ;; This function uses a non-reentrant model
  1393 ;;
  1394                           
  1395                           	psect	text9
  1396  000D24                     __ptext9:
  1397                           	callstack 0
  1398  000D24                     _CURSOR_ONOFF:
  1399                           	callstack 25
  1400                           
  1401                           ;incstack = 0
  1402                           ;CURSOR_ONOFF@estado stored from wreg
  1403  000D24  6E36               	movwf	CURSOR_ONOFF@estado^0,c
  1404  000D26                     
  1405                           ;../semana_13_el52_g1_varios.X/LCD.c: 35: void CURSOR_ONOFF(unsigned char estado);../sem
      +                          ana_13_el52_g1_varios.X/LCD.c: 36: {;../semana_13_el52_g1_varios.X/LCD.c: 37:  if(estado
      +                           == 0) ENVIA_LCD_CMD(0x0E);
  1406  000D26  5036               	movf	CURSOR_ONOFF@estado^0,w,c
  1407  000D28  A4D8               	btfss	status,2,c
  1408  000D2A  EF99  F006         	goto	u41
  1409  000D2E  EF9B  F006         	goto	u40
  1410  000D32                     u41:
  1411  000D32  EF9E  F006         	goto	l987
  1412  000D36                     u40:
  1413  000D36  0E0E               	movlw	14
  1414  000D38  EC5F  F006         	call	_ENVIA_LCD_CMD
  1415  000D3C                     l987:
  1416                           
  1417                           ;../semana_13_el52_g1_varios.X/LCD.c: 38:  if(estado == 1) ENVIA_LCD_CMD(0x0C);
  1418  000D3C  0436               	decf	CURSOR_ONOFF@estado^0,w,c
  1419  000D3E  A4D8               	btfss	status,2,c
  1420  000D40  EFA4  F006         	goto	u51
  1421  000D44  EFA6  F006         	goto	u50
  1422  000D48                     u51:
  1423  000D48  EFA9  F006         	goto	l42
  1424  000D4C                     u50:
  1425  000D4C  0E0C               	movlw	12
  1426  000D4E  EC5F  F006         	call	_ENVIA_LCD_CMD
  1427  000D52                     l42:
  1428  000D52  0012               	return		;funcret
  1429  000D54                     __end_of_CURSOR_ONOFF:
  1430                           	callstack 0
  1431                           
  1432 ;; *************** function _CURSOR_HOME *****************
  1433 ;; Defined at:
  1434 ;;		line 30 in file "../semana_13_el52_g1_varios.X/LCD.c"
  1435 ;; Parameters:    Size  Location     Type
  1436 ;;		None
  1437 ;; Auto vars:     Size  Location     Type
  1438 ;;		None
  1439 ;; Return value:  Size  Location     Type
  1440 ;;                  1    wreg      void 
  1441 ;; Registers used:
  1442 ;;		wreg, status,2, status,0, cstack
  1443 ;; Tracked objects:
  1444 ;;		On entry : 0/0
  1445 ;;		On exit  : 0/0
  1446 ;;		Unchanged: 0/0
  1447 ;; Data sizes:     COMRAM   BANK0   BANK1   BANK2   BANK3   BANK4   BANK5   BANK6   BANK7
  1448 ;;      Params:         0       0       0       0       0       0       0       0       0
  1449 ;;      Locals:         0       0       0       0       0       0       0       0       0
  1450 ;;      Temps:          0       0       0       0       0       0       0       0       0
  1451 ;;      Totals:         0       0       0       0       0       0       0       0       0
  1452 ;;Total ram usage:        0 bytes
  1453 ;; Hardware stack levels used: 1
  1454 ;; Hardware stack levels required when called: 4
  1455 ;; This function calls:
  1456 ;;		_ENVIA_LCD_CMD
  1457 ;; This function is called by:
  1458 ;;		_init_LCD
  1459 ;; This function uses a non-reentrant model
  1460 ;;
  1461                           
  1462                           	psect	text10
  1463  000DCA                     __ptext10:
  1464                           	callstack 0
  1465  000DCA                     _CURSOR_HOME:
  1466                           	callstack 25
  1467  000DCA                     
  1468                           ;../semana_13_el52_g1_varios.X/LCD.c: 32:  ENVIA_LCD_CMD(0x02);
  1469  000DCA  0E02               	movlw	2
  1470  000DCC  EC5F  F006         	call	_ENVIA_LCD_CMD
  1471  000DD0  0012               	return		;funcret
  1472  000DD2                     __end_of_CURSOR_HOME:
  1473                           	callstack 0
  1474                           
  1475 ;; *************** function _BORRAR_LCD *****************
  1476 ;; Defined at:
  1477 ;;		line 67 in file "../semana_13_el52_g1_varios.X/LCD.c"
  1478 ;; Parameters:    Size  Location     Type
  1479 ;;		None
  1480 ;; Auto vars:     Size  Location     Type
  1481 ;;		None
  1482 ;; Return value:  Size  Location     Type
  1483 ;;                  1    wreg      void 
  1484 ;; Registers used:
  1485 ;;		wreg, status,2, status,0, cstack
  1486 ;; Tracked objects:
  1487 ;;		On entry : 0/0
  1488 ;;		On exit  : 0/0
  1489 ;;		Unchanged: 0/0
  1490 ;; Data sizes:     COMRAM   BANK0   BANK1   BANK2   BANK3   BANK4   BANK5   BANK6   BANK7
  1491 ;;      Params:         0       0       0       0       0       0       0       0       0
  1492 ;;      Locals:         0       0       0       0       0       0       0       0       0
  1493 ;;      Temps:          0       0       0       0       0       0       0       0       0
  1494 ;;      Totals:         0       0       0       0       0       0       0       0       0
  1495 ;;Total ram usage:        0 bytes
  1496 ;; Hardware stack levels used: 1
  1497 ;; Hardware stack levels required when called: 4
  1498 ;; This function calls:
  1499 ;;		_ENVIA_LCD_CMD
  1500 ;; This function is called by:
  1501 ;;		_init_LCD
  1502 ;; This function uses a non-reentrant model
  1503 ;;
  1504                           
  1505                           	psect	text11
  1506  000DD2                     __ptext11:
  1507                           	callstack 0
  1508  000DD2                     _BORRAR_LCD:
  1509                           	callstack 25
  1510  000DD2                     
  1511                           ;../semana_13_el52_g1_varios.X/LCD.c: 69:  ENVIA_LCD_CMD(0x01);
  1512  000DD2  0E01               	movlw	1
  1513  000DD4  EC5F  F006         	call	_ENVIA_LCD_CMD
  1514  000DD8  0012               	return		;funcret
  1515  000DDA                     __end_of_BORRAR_LCD:
  1516                           	callstack 0
  1517                           
  1518 ;; *************** function _ENVIA_LCD_CMD *****************
  1519 ;; Defined at:
  1520 ;;		line 104 in file "../semana_13_el52_g1_varios.X/LCD.c"
  1521 ;; Parameters:    Size  Location     Type
  1522 ;;  dato            1    wreg     unsigned char 
  1523 ;; Auto vars:     Size  Location     Type
  1524 ;;  dato            1    7[COMRAM] unsigned char 
  1525 ;;  aux             1    8[COMRAM] unsigned char 
  1526 ;; Return value:  Size  Location     Type
  1527 ;;                  1    wreg      void 
  1528 ;; Registers used:
  1529 ;;		wreg, status,2, status,0, cstack
  1530 ;; Tracked objects:
  1531 ;;		On entry : 0/0
  1532 ;;		On exit  : 0/0
  1533 ;;		Unchanged: 0/0
  1534 ;; Data sizes:     COMRAM   BANK0   BANK1   BANK2   BANK3   BANK4   BANK5   BANK6   BANK7
  1535 ;;      Params:         0       0       0       0       0       0       0       0       0
  1536 ;;      Locals:         2       0       0       0       0       0       0       0       0
  1537 ;;      Temps:          0       0       0       0       0       0       0       0       0
  1538 ;;      Totals:         2       0       0       0       0       0       0       0       0
  1539 ;;Total ram usage:        2 bytes
  1540 ;; Hardware stack levels used: 1
  1541 ;; Hardware stack levels required when called: 3
  1542 ;; This function calls:
  1543 ;;		_ENVIA_NIBBLE
  1544 ;;		_LEER_LCD
  1545 ;; This function is called by:
  1546 ;;		_POS_CURSOR
  1547 ;;		_CURSOR_HOME
  1548 ;;		_CURSOR_ONOFF
  1549 ;;		_BORRAR_LCD
  1550 ;;		_LCD_CONFIG
  1551 ;;		_GENERACARACTER
  1552 ;;		_BLINK_CURSOR
  1553 ;;		_DISPLAY_ONOFF
  1554 ;; This function uses a non-reentrant model
  1555 ;;
  1556                           
  1557                           	psect	text12
  1558  000CBE                     __ptext12:
  1559                           	callstack 0
  1560  000CBE                     _ENVIA_LCD_CMD:
  1561                           	callstack 25
  1562                           
  1563                           ;incstack = 0
  1564                           ;ENVIA_LCD_CMD@dato stored from wreg
  1565  000CBE  6E34               	movwf	ENVIA_LCD_CMD@dato^0,c
  1566  000CC0                     
  1567                           ;../semana_13_el52_g1_varios.X/LCD.c: 104: void ENVIA_LCD_CMD(unsigned char dato);../sem
      +                          ana_13_el52_g1_varios.X/LCD.c: 105: {;../semana_13_el52_g1_varios.X/LCD.c: 106:  unsigne
      +                          d char aux;;../semana_13_el52_g1_varios.X/LCD.c: 107:  LATDbits.LATD0 = 0;
  1568  000CC0  908C               	bcf	140,0,c	;volatile
  1569  000CC2                     
  1570                           ;../semana_13_el52_g1_varios.X/LCD.c: 108:  LEER_LCD();
  1571  000CC2  EC2F  F005         	call	_LEER_LCD	;wreg free
  1572  000CC6                     
  1573                           ;../semana_13_el52_g1_varios.X/LCD.c: 109:  TRISD = 0b00000000;
  1574  000CC6  0E00               	movlw	0
  1575  000CC8  6E95               	movwf	149,c	;volatile
  1576  000CCA                     
  1577                           ;../semana_13_el52_g1_varios.X/LCD.c: 111:         _delay(1200);
  1578  000CCA  0EF0               	movlw	240
  1579  000CCC                     u467:
  1580  000CCC  D000               	nop2	
  1581  000CCE  2EE8               	decfsz	wreg,f,c
  1582  000CD0  D7FD               	bra	u467
  1583  000CD2                     
  1584                           ;../semana_13_el52_g1_varios.X/LCD.c: 112:         LATDbits.LATD1 = 0;
  1585  000CD2  928C               	bcf	140,1,c	;volatile
  1586  000CD4                     
  1587                           ;../semana_13_el52_g1_varios.X/LCD.c: 113:  LATDbits.LATD2 = 0;
  1588  000CD4  948C               	bcf	140,2,c	;volatile
  1589  000CD6                     
  1590                           ;../semana_13_el52_g1_varios.X/LCD.c: 114:  LATDbits.LATD0 = 0;
  1591  000CD6  908C               	bcf	140,0,c	;volatile
  1592  000CD8                     
  1593                           ;../semana_13_el52_g1_varios.X/LCD.c: 115:  aux = dato & 0xF0;
  1594  000CD8  5034               	movf	ENVIA_LCD_CMD@dato^0,w,c
  1595  000CDA  0BF0               	andlw	240
  1596  000CDC  6E35               	movwf	ENVIA_LCD_CMD@aux^0,c
  1597  000CDE                     
  1598                           ;../semana_13_el52_g1_varios.X/LCD.c: 116:  ENVIA_NIBBLE(aux);
  1599  000CDE  5035               	movf	ENVIA_LCD_CMD@aux^0,w,c
  1600  000CE0  ECD7  F006         	call	_ENVIA_NIBBLE
  1601  000CE4                     
  1602                           ;../semana_13_el52_g1_varios.X/LCD.c: 117:  aux = dato<<4;
  1603  000CE4  3834               	swapf	ENVIA_LCD_CMD@dato^0,w,c
  1604  000CE6  0BF0               	andlw	240
  1605  000CE8  6E35               	movwf	ENVIA_LCD_CMD@aux^0,c
  1606  000CEA                     
  1607                           ;../semana_13_el52_g1_varios.X/LCD.c: 118:  ENVIA_NIBBLE(aux);
  1608  000CEA  5035               	movf	ENVIA_LCD_CMD@aux^0,w,c
  1609  000CEC  ECD7  F006         	call	_ENVIA_NIBBLE
  1610  000CF0  0012               	return		;funcret
  1611  000CF2                     __end_of_ENVIA_LCD_CMD:
  1612                           	callstack 0
  1613                           
  1614 ;; *************** function _LEER_LCD *****************
  1615 ;; Defined at:
  1616 ;;		line 121 in file "../semana_13_el52_g1_varios.X/LCD.c"
  1617 ;; Parameters:    Size  Location     Type
  1618 ;;		None
  1619 ;; Auto vars:     Size  Location     Type
  1620 ;;  aux             1    6[COMRAM] unsigned char 
  1621 ;; Return value:  Size  Location     Type
  1622 ;;                  1    wreg      void 
  1623 ;; Registers used:
  1624 ;;		wreg, status,2, status,0
  1625 ;; Tracked objects:
  1626 ;;		On entry : 0/0
  1627 ;;		On exit  : 0/0
  1628 ;;		Unchanged: 0/0
  1629 ;; Data sizes:     COMRAM   BANK0   BANK1   BANK2   BANK3   BANK4   BANK5   BANK6   BANK7
  1630 ;;      Params:         0       0       0       0       0       0       0       0       0
  1631 ;;      Locals:         1       0       0       0       0       0       0       0       0
  1632 ;;      Temps:          0       0       0       0       0       0       0       0       0
  1633 ;;      Totals:         1       0       0       0       0       0       0       0       0
  1634 ;;Total ram usage:        1 bytes
  1635 ;; Hardware stack levels used: 1
  1636 ;; Hardware stack levels required when called: 2
  1637 ;; This function calls:
  1638 ;;		Nothing
  1639 ;; This function is called by:
  1640 ;;		_ENVIA_CHAR
  1641 ;;		_ENVIA_LCD_CMD
  1642 ;; This function uses a non-reentrant model
  1643 ;;
  1644                           
  1645                           	psect	text13
  1646  000A5E                     __ptext13:
  1647                           	callstack 0
  1648  000A5E                     _LEER_LCD:
  1649                           	callstack 25
  1650  000A5E                     
  1651                           ;../semana_13_el52_g1_varios.X/LCD.c: 123:  unsigned char aux;;../semana_13_el52_g1_vari
      +                          os.X/LCD.c: 124:  TRISD = 0xF8;
  1652  000A5E  0EF8               	movlw	248
  1653  000A60  6E95               	movwf	149,c	;volatile
  1654  000A62                     
  1655                           ;../semana_13_el52_g1_varios.X/LCD.c: 125:  LATDbits.LATD0 = 0;
  1656  000A62  908C               	bcf	140,0,c	;volatile
  1657  000A64                     
  1658                           ;../semana_13_el52_g1_varios.X/LCD.c: 126:  LATDbits.LATD1 = 1;
  1659  000A64  828C               	bsf	140,1,c	;volatile
  1660  000A66                     
  1661                           ;../semana_13_el52_g1_varios.X/LCD.c: 127:  LATDbits.LATD2 = 1;
  1662  000A66  848C               	bsf	140,2,c	;volatile
  1663  000A68                     
  1664                           ;../semana_13_el52_g1_varios.X/LCD.c: 128:         _delay(1200);
  1665  000A68  0EF0               	movlw	240
  1666  000A6A                     u477:
  1667  000A6A  D000               	nop2	
  1668  000A6C  2EE8               	decfsz	wreg,f,c
  1669  000A6E  D7FD               	bra	u477
  1670  000A70                     
  1671                           ;../semana_13_el52_g1_varios.X/LCD.c: 130:  aux = PORTD;
  1672  000A70  CF83 F033          	movff	3971,LEER_LCD@aux	;volatile
  1673  000A74                     
  1674                           ;../semana_13_el52_g1_varios.X/LCD.c: 131:  LATDbits.LATD2 = 0;
  1675  000A74  948C               	bcf	140,2,c	;volatile
  1676  000A76                     
  1677                           ;../semana_13_el52_g1_varios.X/LCD.c: 132:         _delay(1200);
  1678  000A76  0EF0               	movlw	240
  1679  000A78                     u487:
  1680  000A78  D000               	nop2	
  1681  000A7A  2EE8               	decfsz	wreg,f,c
  1682  000A7C  D7FD               	bra	u487
  1683  000A7E                     
  1684                           ;../semana_13_el52_g1_varios.X/LCD.c: 134:  LATDbits.LATD2 = 1;
  1685  000A7E  848C               	bsf	140,2,c	;volatile
  1686  000A80                     
  1687                           ;../semana_13_el52_g1_varios.X/LCD.c: 135:         _delay(1200);
  1688  000A80  0EF0               	movlw	240
  1689  000A82                     u497:
  1690  000A82  D000               	nop2	
  1691  000A84  2EE8               	decfsz	wreg,f,c
  1692  000A86  D7FD               	bra	u497
  1693  000A88                     
  1694                           ;../semana_13_el52_g1_varios.X/LCD.c: 137:  LATDbits.LATD2 = 0;
  1695  000A88  948C               	bcf	140,2,c	;volatile
  1696  000A8A                     l905:
  1697                           
  1698                           ;../semana_13_el52_g1_varios.X/LCD.c: 138:  aux = aux & 0x80;
  1699  000A8A  5033               	movf	LEER_LCD@aux^0,w,c
  1700  000A8C  0B80               	andlw	128
  1701  000A8E  6E33               	movwf	LEER_LCD@aux^0,c
  1702                           
  1703                           ;../semana_13_el52_g1_varios.X/LCD.c: 139:  while(aux == 0x80)
  1704  000A90  EF5E  F005         	goto	l919
  1705  000A94                     l67:
  1706                           
  1707                           ;../semana_13_el52_g1_varios.X/LCD.c: 140:         {;../semana_13_el52_g1_varios.X/LCD.c
      +                          : 141:             LATDbits.LATD2 = 1;
  1708  000A94  848C               	bsf	140,2,c	;volatile
  1709  000A96                     
  1710                           ;../semana_13_el52_g1_varios.X/LCD.c: 142:             _delay(1200);
  1711  000A96  0EF0               	movlw	240
  1712  000A98                     u507:
  1713  000A98  D000               	nop2	
  1714  000A9A  2EE8               	decfsz	wreg,f,c
  1715  000A9C  D7FD               	bra	u507
  1716  000A9E                     
  1717                           ;../semana_13_el52_g1_varios.X/LCD.c: 143:             aux = PORTD;
  1718  000A9E  CF83 F033          	movff	3971,LEER_LCD@aux	;volatile
  1719  000AA2                     
  1720                           ;../semana_13_el52_g1_varios.X/LCD.c: 144:             LATDbits.LATD2 = 0;
  1721  000AA2  948C               	bcf	140,2,c	;volatile
  1722                           
  1723                           ;../semana_13_el52_g1_varios.X/LCD.c: 145:             _delay(1200);
  1724  000AA4  0EF0               	movlw	240
  1725  000AA6                     u517:
  1726  000AA6  D000               	nop2	
  1727  000AA8  2EE8               	decfsz	wreg,f,c
  1728  000AAA  D7FD               	bra	u517
  1729  000AAC                     
  1730                           ;../semana_13_el52_g1_varios.X/LCD.c: 146:             LATDbits.LATD2 = 1;
  1731  000AAC  848C               	bsf	140,2,c	;volatile
  1732                           
  1733                           ;../semana_13_el52_g1_varios.X/LCD.c: 147:             _delay(1200);
  1734  000AAE  0EF0               	movlw	240
  1735  000AB0                     u527:
  1736  000AB0  D000               	nop2	
  1737  000AB2  2EE8               	decfsz	wreg,f,c
  1738  000AB4  D7FD               	bra	u527
  1739  000AB6                     
  1740                           ;../semana_13_el52_g1_varios.X/LCD.c: 148:             LATDbits.LATD2 = 0;
  1741  000AB6  948C               	bcf	140,2,c	;volatile
  1742  000AB8  EF45  F005         	goto	l905
  1743  000ABC                     l919:
  1744                           
  1745                           ;../semana_13_el52_g1_varios.X/LCD.c: 139:  while(aux == 0x80)
  1746  000ABC  0E80               	movlw	128
  1747  000ABE  1833               	xorwf	LEER_LCD@aux^0,w,c
  1748  000AC0  B4D8               	btfsc	status,2,c
  1749  000AC2  EF65  F005         	goto	u11
  1750  000AC6  EF67  F005         	goto	u10
  1751  000ACA                     u11:
  1752  000ACA  EF4A  F005         	goto	l67
  1753  000ACE                     u10:
  1754  000ACE  0012               	return		;funcret
  1755  000AD0                     __end_of_LEER_LCD:
  1756                           	callstack 0
  1757                           
  1758 ;; *************** function _ENVIA_NIBBLE *****************
  1759 ;; Defined at:
  1760 ;;		line 93 in file "../semana_13_el52_g1_varios.X/LCD.c"
  1761 ;; Parameters:    Size  Location     Type
  1762 ;;  dato            1    wreg     unsigned char 
  1763 ;; Auto vars:     Size  Location     Type
  1764 ;;  dato            1    6[COMRAM] unsigned char 
  1765 ;; Return value:  Size  Location     Type
  1766 ;;                  1    wreg      void 
  1767 ;; Registers used:
  1768 ;;		wreg, status,2, status,0
  1769 ;; Tracked objects:
  1770 ;;		On entry : 0/0
  1771 ;;		On exit  : 0/0
  1772 ;;		Unchanged: 0/0
  1773 ;; Data sizes:     COMRAM   BANK0   BANK1   BANK2   BANK3   BANK4   BANK5   BANK6   BANK7
  1774 ;;      Params:         0       0       0       0       0       0       0       0       0
  1775 ;;      Locals:         1       0       0       0       0       0       0       0       0
  1776 ;;      Temps:          0       0       0       0       0       0       0       0       0
  1777 ;;      Totals:         1       0       0       0       0       0       0       0       0
  1778 ;;Total ram usage:        1 bytes
  1779 ;; Hardware stack levels used: 1
  1780 ;; Hardware stack levels required when called: 2
  1781 ;; This function calls:
  1782 ;;		Nothing
  1783 ;; This function is called by:
  1784 ;;		_ENVIA_CHAR
  1785 ;;		_LCD_CONFIG
  1786 ;;		_ENVIA_LCD_CMD
  1787 ;; This function uses a non-reentrant model
  1788 ;;
  1789                           
  1790                           	psect	text14
  1791  000DAE                     __ptext14:
  1792                           	callstack 0
  1793  000DAE                     _ENVIA_NIBBLE:
  1794                           	callstack 25
  1795                           
  1796                           ;incstack = 0
  1797                           ;ENVIA_NIBBLE@dato stored from wreg
  1798  000DAE  6E33               	movwf	ENVIA_NIBBLE@dato^0,c
  1799  000DB0                     
  1800                           ;../semana_13_el52_g1_varios.X/LCD.c: 93: void ENVIA_NIBBLE(unsigned char dato);../seman
      +                          a_13_el52_g1_varios.X/LCD.c: 94: {;../semana_13_el52_g1_varios.X/LCD.c: 95:  LATD &= 0x0
      +                          F;
  1801  000DB0  0E0F               	movlw	15
  1802  000DB2  168C               	andwf	140,f,c	;volatile
  1803                           
  1804                           ;../semana_13_el52_g1_varios.X/LCD.c: 96:  dato &= 0xF0;
  1805  000DB4  0EF0               	movlw	240
  1806  000DB6  1633               	andwf	ENVIA_NIBBLE@dato^0,f,c
  1807                           
  1808                           ;../semana_13_el52_g1_varios.X/LCD.c: 97:  LATD|= dato;
  1809  000DB8  5033               	movf	ENVIA_NIBBLE@dato^0,w,c	;volatile
  1810  000DBA  128C               	iorwf	140,f,c	;volatile
  1811  000DBC                     
  1812                           ;../semana_13_el52_g1_varios.X/LCD.c: 98:  LATDbits.LATD2 = 1;
  1813  000DBC  848C               	bsf	140,2,c	;volatile
  1814  000DBE                     
  1815                           ;../semana_13_el52_g1_varios.X/LCD.c: 100:         _delay(1200);
  1816  000DBE  0EF0               	movlw	240
  1817  000DC0                     u537:
  1818  000DC0  D000               	nop2	
  1819  000DC2  2EE8               	decfsz	wreg,f,c
  1820  000DC4  D7FD               	bra	u537
  1821  000DC6                     
  1822                           ;../semana_13_el52_g1_varios.X/LCD.c: 101:  LATDbits.LATD2 = 0;
  1823  000DC6  948C               	bcf	140,2,c	;volatile
  1824  000DC8  0012               	return		;funcret
  1825  000DCA                     __end_of_ENVIA_NIBBLE:
  1826                           	callstack 0
  1827                           
  1828 ;; *************** function _configuro *****************
  1829 ;; Defined at:
  1830 ;;		line 13 in file "maincode7.c"
  1831 ;; Parameters:    Size  Location     Type
  1832 ;;		None
  1833 ;; Auto vars:     Size  Location     Type
  1834 ;;		None
  1835 ;; Return value:  Size  Location     Type
  1836 ;;                  1    wreg      void 
  1837 ;; Registers used:
  1838 ;;		wreg, status,2
  1839 ;; Tracked objects:
  1840 ;;		On entry : 0/0
  1841 ;;		On exit  : 0/0
  1842 ;;		Unchanged: 0/0
  1843 ;; Data sizes:     COMRAM   BANK0   BANK1   BANK2   BANK3   BANK4   BANK5   BANK6   BANK7
  1844 ;;      Params:         0       0       0       0       0       0       0       0       0
  1845 ;;      Locals:         0       0       0       0       0       0       0       0       0
  1846 ;;      Temps:          0       0       0       0       0       0       0       0       0
  1847 ;;      Totals:         0       0       0       0       0       0       0       0       0
  1848 ;;Total ram usage:        0 bytes
  1849 ;; Hardware stack levels used: 1
  1850 ;; Hardware stack levels required when called: 2
  1851 ;; This function calls:
  1852 ;;		Nothing
  1853 ;; This function is called by:
  1854 ;;		_main
  1855 ;; This function uses a non-reentrant model
  1856 ;;
  1857                           
  1858                           	psect	text15
  1859  000D54                     __ptext15:
  1860                           	callstack 0
  1861  000D54                     _configuro:
  1862                           	callstack 28
  1863  000D54                     
  1864                           ;maincode7.c: 14:     OSCCON = 0x70;
  1865  000D54  0E70               	movlw	112
  1866  000D56  6ED3               	movwf	211,c	;volatile
  1867                           
  1868                           ;maincode7.c: 15:     ADCON1 = 0x0F;
  1869  000D58  0E0F               	movlw	15
  1870  000D5A  6EC1               	movwf	193,c	;volatile
  1871                           
  1872                           ;maincode7.c: 16:     TRISE = 0xF8;
  1873  000D5C  0EF8               	movlw	248
  1874  000D5E  6E96               	movwf	150,c	;volatile
  1875  000D60                     
  1876                           ;maincode7.c: 17:     RCONbits.IPEN = 1;
  1877  000D60  8ED0               	bsf	208,7,c	;volatile
  1878  000D62                     
  1879                           ;maincode7.c: 18:     INTCON2bits.RBPU = 0;
  1880  000D62  9EF1               	bcf	241,7,c	;volatile
  1881  000D64                     
  1882                           ;maincode7.c: 19:     INTCONbits.GIEH = 1;
  1883  000D64  8EF2               	bsf	242,7,c	;volatile
  1884  000D66                     
  1885                           ;maincode7.c: 20:     INTCONbits.GIEL = 1;
  1886  000D66  8CF2               	bsf	242,6,c	;volatile
  1887  000D68                     
  1888                           ;maincode7.c: 21:     INTCONbits.INT0IE = 1;
  1889  000D68  88F2               	bsf	242,4,c	;volatile
  1890  000D6A                     
  1891                           ;maincode7.c: 22:     INTCON2bits.INTEDG0 = 0;
  1892  000D6A  9CF1               	bcf	241,6,c	;volatile
  1893  000D6C                     
  1894                           ;maincode7.c: 23:     INTCON3bits.INT1IE = 1;
  1895  000D6C  86F0               	bsf	240,3,c	;volatile
  1896  000D6E                     
  1897                           ;maincode7.c: 24:     INTCON2bits.INTEDG1 = 0;
  1898  000D6E  9AF1               	bcf	241,5,c	;volatile
  1899  000D70                     
  1900                           ;maincode7.c: 25:     INTCON3bits.INT2IE = 1;
  1901  000D70  88F0               	bsf	240,4,c	;volatile
  1902  000D72                     
  1903                           ;maincode7.c: 26:     INTCON2bits.INTEDG2 = 0;
  1904  000D72  98F1               	bcf	241,4,c	;volatile
  1905  000D74                     
  1906                           ;maincode7.c: 27:     INTCON3bits.INT2IP = 0;
  1907  000D74  9EF0               	bcf	240,7,c	;volatile
  1908                           
  1909                           ;maincode7.c: 28:     SPBRG = 12;
  1910  000D76  0E0C               	movlw	12
  1911  000D78  6EAF               	movwf	175,c	;volatile
  1912  000D7A                     
  1913                           ;maincode7.c: 29:     RCSTAbits.SPEN = 1;
  1914  000D7A  8EAB               	bsf	171,7,c	;volatile
  1915  000D7C                     
  1916                           ;maincode7.c: 30:     TXSTAbits.TXEN = 1;
  1917  000D7C  8AAC               	bsf	172,5,c	;volatile
  1918  000D7E                     
  1919                           ;maincode7.c: 31:     TRISCbits.RC6 = 0;
  1920  000D7E  9C94               	bcf	148,6,c	;volatile
  1921  000D80  0012               	return		;funcret
  1922  000D82                     __end_of_configuro:
  1923                           	callstack 0
  1924                           
  1925 ;; *************** function _INT2_ISR *****************
  1926 ;; Defined at:
  1927 ;;		line 148 in file "maincode7.c"
  1928 ;; Parameters:    Size  Location     Type
  1929 ;;		None
  1930 ;; Auto vars:     Size  Location     Type
  1931 ;;  z               1    5[COMRAM] unsigned char 
  1932 ;; Return value:  Size  Location     Type
  1933 ;;                  1    wreg      void 
  1934 ;; Registers used:
  1935 ;;		wreg, fsr2l, fsr2h, status,2, status,0
  1936 ;; Tracked objects:
  1937 ;;		On entry : 0/0
  1938 ;;		On exit  : 0/0
  1939 ;;		Unchanged: 0/0
  1940 ;; Data sizes:     COMRAM   BANK0   BANK1   BANK2   BANK3   BANK4   BANK5   BANK6   BANK7
  1941 ;;      Params:         0       0       0       0       0       0       0       0       0
  1942 ;;      Locals:         1       0       0       0       0       0       0       0       0
  1943 ;;      Temps:          5       0       0       0       0       0       0       0       0
  1944 ;;      Totals:         6       0       0       0       0       0       0       0       0
  1945 ;;Total ram usage:        6 bytes
  1946 ;; Hardware stack levels used: 1
  1947 ;; Hardware stack levels required when called: 1
  1948 ;; This function calls:
  1949 ;;		Nothing
  1950 ;; This function is called by:
  1951 ;;		Interrupt level 1
  1952 ;; This function uses a non-reentrant model
  1953 ;;
  1954                           
  1955                           	psect	intcodelo
  1956  000018                     __pintcodelo:
  1957                           	callstack 0
  1958  000018                     _INT2_ISR:
  1959                           	callstack 25
  1960                           
  1961                           ;incstack = 0
  1962  000018  8041               	bsf	int$flags,0,c	;set compiler interrupt flag (level 1)
  1963  00001A  CFD8 F02D          	movff	status,??_INT2_ISR
  1964  00001E  CFE8 F02E          	movff	wreg,??_INT2_ISR+1
  1965  000022  CFE0 F02F          	movff	bsr,??_INT2_ISR+2
  1966  000026  CFD9 F030          	movff	fsr2l,??_INT2_ISR+3
  1967  00002A  CFDA F031          	movff	fsr2h,??_INT2_ISR+4
  1968  00002E                     
  1969                           ;maincode7.c: 149:     INTCON3bits.INT2IF = 0;
  1970  00002E  92F0               	bcf	240,1,c	;volatile
  1971  000030                     
  1972                           ;maincode7.c: 150:     unsigned char z;;maincode7.c: 151:     for(z=0;z<19;z++){
  1973  000030  0E00               	movlw	0
  1974  000032  6E32               	movwf	INT2_ISR@z^0,c
  1975  000034                     i1l1253:
  1976                           
  1977                           ;maincode7.c: 152:         TXREG = mensajon[z];
  1978  000034  0E01               	movlw	low _mensajon
  1979  000036  2432               	addwf	INT2_ISR@z^0,w,c
  1980  000038  6ED9               	movwf	fsr2l,c
  1981  00003A  6ADA               	clrf	fsr2h,c
  1982  00003C  0E00               	movlw	high _mensajon
  1983  00003E  22DA               	addwfc	fsr2h,f,c
  1984  000040  50DF               	movf	indf2,w,c
  1985  000042  6EAD               	movwf	173,c	;volatile
  1986  000044                     i1l198:
  1987  000044  A2AC               	btfss	172,1,c	;volatile
  1988  000046  EF27  F000         	goto	i1u23_21
  1989  00004A  EF29  F000         	goto	i1u23_20
  1990  00004E                     i1u23_21:
  1991  00004E  EF22  F000         	goto	i1l198
  1992  000052                     i1u23_20:
  1993  000052                     
  1994                           ;maincode7.c: 154:     }
  1995  000052  2A32               	incf	INT2_ISR@z^0,f,c
  1996  000054  0E12               	movlw	18
  1997  000056  6432               	cpfsgt	INT2_ISR@z^0,c
  1998  000058  EF30  F000         	goto	i1u24_21
  1999  00005C  EF32  F000         	goto	i1u24_20
  2000  000060                     i1u24_21:
  2001  000060  EF1A  F000         	goto	i1l1253
  2002  000064                     i1u24_20:
  2003  000064                     
  2004                           ;maincode7.c: 155:     TXREG = 0x0A;
  2005  000064  0E0A               	movlw	10
  2006  000066  6EAD               	movwf	173,c	;volatile
  2007  000068                     i1l201:
  2008  000068  A2AC               	btfss	172,1,c	;volatile
  2009  00006A  EF39  F000         	goto	i1u25_21
  2010  00006E  EF3B  F000         	goto	i1u25_20
  2011  000072                     i1u25_21:
  2012  000072  EF34  F000         	goto	i1l201
  2013  000076                     i1u25_20:
  2014  000076                     
  2015                           ;maincode7.c: 157:     TXREG = 0x0D;
  2016  000076  0E0D               	movlw	13
  2017  000078  6EAD               	movwf	173,c	;volatile
  2018  00007A                     i1l204:
  2019  00007A  A2AC               	btfss	172,1,c	;volatile
  2020  00007C  EF42  F000         	goto	i1u26_21
  2021  000080  EF44  F000         	goto	i1u26_20
  2022  000084                     i1u26_21:
  2023  000084  EF3D  F000         	goto	i1l204
  2024  000088                     i1u26_20:
  2025  000088  C031  FFDA         	movff	??_INT2_ISR+4,fsr2h
  2026  00008C  C030  FFD9         	movff	??_INT2_ISR+3,fsr2l
  2027  000090  C02F  FFE0         	movff	??_INT2_ISR+2,bsr
  2028  000094  C02E  FFE8         	movff	??_INT2_ISR+1,wreg
  2029  000098  C02D  FFD8         	movff	??_INT2_ISR,status
  2030  00009C  9041               	bcf	int$flags,0,c	;clear compiler interrupt flag (level 1)
  2031  00009E  0010               	retfie	
  2032  0000A0                     __end_of_INT2_ISR:
  2033                           	callstack 0
  2034                           
  2035 ;; *************** function _INT0INT1_ISR *****************
  2036 ;; Defined at:
  2037 ;;		line 126 in file "maincode7.c"
  2038 ;; Parameters:    Size  Location     Type
  2039 ;;		None
  2040 ;; Auto vars:     Size  Location     Type
  2041 ;;		None
  2042 ;; Return value:  Size  Location     Type
  2043 ;;                  1    wreg      void 
  2044 ;; Registers used:
  2045 ;;		wreg, status,2, status,0
  2046 ;; Tracked objects:
  2047 ;;		On entry : 0/0
  2048 ;;		On exit  : 0/0
  2049 ;;		Unchanged: 0/0
  2050 ;; Data sizes:     COMRAM   BANK0   BANK1   BANK2   BANK3   BANK4   BANK5   BANK6   BANK7
  2051 ;;      Params:         0       0       0       0       0       0       0       0       0
  2052 ;;      Locals:         0       0       0       0       0       0       0       0       0
  2053 ;;      Temps:          0       0       0       0       0       0       0       0       0
  2054 ;;      Totals:         0       0       0       0       0       0       0       0       0
  2055 ;;Total ram usage:        0 bytes
  2056 ;; Hardware stack levels used: 1
  2057 ;; This function calls:
  2058 ;;		Nothing
  2059 ;; This function is called by:
  2060 ;;		Interrupt level 2
  2061 ;; This function uses a non-reentrant model
  2062 ;;
  2063                           
  2064                           	psect	intcode
  2065  000008                     __pintcode:
  2066                           	callstack 0
  2067  000008                     _INT0INT1_ISR:
  2068                           	callstack 25
  2069                           
  2070                           ;incstack = 0
  2071  000008  8241               	bsf	int$flags,1,c	;set compiler interrupt flag (level 2)
  2072  00000A  ED98  F005         	call	int_func,f	;refresh shadow registers
  2073                           
  2074                           	psect	intcode_body
  2075  000B30                     __pintcode_body:
  2076                           	callstack 25
  2077  000B30                     int_func:
  2078                           	callstack 25
  2079  000B30  0006               	pop		; remove dummy address from shadow register refresh
  2080  000B32                     
  2081                           ;maincode7.c: 127:     if(INTCONbits.INT0IF == 1){
  2082  000B32  A2F2               	btfss	242,1,c	;volatile
  2083  000B34  EF9E  F005         	goto	i2u19_41
  2084  000B38  EFA0  F005         	goto	i2u19_40
  2085  000B3C                     i2u19_41:
  2086  000B3C  EFAF  F005         	goto	i2l1235
  2087  000B40                     i2u19_40:
  2088  000B40                     
  2089                           ;maincode7.c: 128:         INTCONbits.INT0IF = 0;
  2090  000B40  92F2               	bcf	242,1,c	;volatile
  2091  000B42                     
  2092                           ;maincode7.c: 129:         if(estado_v == 4){
  2093  000B42  0E04               	movlw	4
  2094  000B44  1840               	xorwf	_estado_v^0,w,c
  2095  000B46  A4D8               	btfss	status,2,c
  2096  000B48  EFA8  F005         	goto	i2u20_41
  2097  000B4C  EFAA  F005         	goto	i2u20_40
  2098  000B50                     i2u20_41:
  2099  000B50  EFAE  F005         	goto	i2l1233
  2100  000B54                     i2u20_40:
  2101  000B54                     
  2102                           ;maincode7.c: 130:             estado_v = 0;
  2103  000B54  0E00               	movlw	0
  2104  000B56  6E40               	movwf	_estado_v^0,c
  2105                           
  2106                           ;maincode7.c: 131:         }
  2107  000B58  EFAF  F005         	goto	i2l1235
  2108  000B5C                     i2l1233:
  2109                           
  2110                           ;maincode7.c: 133:             estado_v++;
  2111  000B5C  2A40               	incf	_estado_v^0,f,c
  2112  000B5E                     i2l1235:
  2113                           
  2114                           ;maincode7.c: 136:     if(INTCON3bits.INT1IF == 1){
  2115  000B5E  A0F0               	btfss	240,0,c	;volatile
  2116  000B60  EFB4  F005         	goto	i2u21_41
  2117  000B64  EFB6  F005         	goto	i2u21_40
  2118  000B68                     i2u21_41:
  2119  000B68  EFC5  F005         	goto	i2l191
  2120  000B6C                     i2u21_40:
  2121  000B6C                     
  2122                           ;maincode7.c: 137:         INTCON3bits.INT1IF = 0;
  2123  000B6C  90F0               	bcf	240,0,c	;volatile
  2124  000B6E                     
  2125                           ;maincode7.c: 138:         if(estado_s == 2){
  2126  000B6E  0E02               	movlw	2
  2127  000B70  183F               	xorwf	_estado_s^0,w,c
  2128  000B72  A4D8               	btfss	status,2,c
  2129  000B74  EFBE  F005         	goto	i2u22_41
  2130  000B78  EFC0  F005         	goto	i2u22_40
  2131  000B7C                     i2u22_41:
  2132  000B7C  EFC4  F005         	goto	i2l1243
  2133  000B80                     i2u22_40:
  2134  000B80                     
  2135                           ;maincode7.c: 139:             estado_s = 0;
  2136  000B80  0E00               	movlw	0
  2137  000B82  6E3F               	movwf	_estado_s^0,c
  2138                           
  2139                           ;maincode7.c: 140:         }
  2140  000B84  EFC5  F005         	goto	i2l191
  2141  000B88                     i2l1243:
  2142                           
  2143                           ;maincode7.c: 142:             estado_s++;
  2144  000B88  2A3F               	incf	_estado_s^0,f,c
  2145  000B8A                     i2l191:
  2146  000B8A  9241               	bcf	int$flags,1,c	;clear compiler interrupt flag (level 2)
  2147  000B8C  0011               	retfie		f
  2148  000B8E                     __end_of_INT0INT1_ISR:
  2149                           	callstack 0
  2150                           
  2151                           	psect	rparam
  2152  0000                     
  2153                           	psect	temp
  2154  000041                     btemp:
  2155                           	callstack 0
  2156  000041                     	ds	1
  2157  0000                     int$flags	set	btemp
  2158  0000                     wtemp8	set	btemp+1
  2159  0000                     ttemp5	set	btemp+1
  2160  0000                     ttemp6	set	btemp+4
  2161  0000                     ttemp7	set	btemp+8
  2162                           
  2163                           	psect	idloc
  2164                           
  2165                           ;Config register IDLOC0 @ 0x200000
  2166                           ;	unspecified, using default values
  2167  200000                     	org	2097152
  2168  200000  FF                 	db	255
  2169                           
  2170                           ;Config register IDLOC1 @ 0x200001
  2171                           ;	unspecified, using default values
  2172  200001                     	org	2097153
  2173  200001  FF                 	db	255
  2174                           
  2175                           ;Config register IDLOC2 @ 0x200002
  2176                           ;	unspecified, using default values
  2177  200002                     	org	2097154
  2178  200002  FF                 	db	255
  2179                           
  2180                           ;Config register IDLOC3 @ 0x200003
  2181                           ;	unspecified, using default values
  2182  200003                     	org	2097155
  2183  200003  FF                 	db	255
  2184                           
  2185                           ;Config register IDLOC4 @ 0x200004
  2186                           ;	unspecified, using default values
  2187  200004                     	org	2097156
  2188  200004  FF                 	db	255
  2189                           
  2190                           ;Config register IDLOC5 @ 0x200005
  2191                           ;	unspecified, using default values
  2192  200005                     	org	2097157
  2193  200005  FF                 	db	255
  2194                           
  2195                           ;Config register IDLOC6 @ 0x200006
  2196                           ;	unspecified, using default values
  2197  200006                     	org	2097158
  2198  200006  FF                 	db	255
  2199                           
  2200                           ;Config register IDLOC7 @ 0x200007
  2201                           ;	unspecified, using default values
  2202  200007                     	org	2097159
  2203  200007  FF                 	db	255
  2204                           
  2205                           	psect	config
  2206                           
  2207                           ;Config register CONFIG1L @ 0x300000
  2208                           ;	PLL Prescaler Selection bits
  2209                           ;	PLLDIV = 1, No prescale (4 MHz oscillator input drives PLL directly)
  2210                           ;	System Clock Postscaler Selection bits
  2211                           ;	CPUDIV = OSC1_PLL2, [Primary Oscillator Src: /1][96 MHz PLL Src: /2]
  2212                           ;	USB Clock Selection bit (used in Full-Speed USB mode only; UCFG:FSEN = 1)
  2213                           ;	USBDIV = 1, USB clock source comes directly from the primary oscillator block with no 
      +                          postscale
  2214  300000                     	org	3145728
  2215  300000  00                 	db	0
  2216                           
  2217                           ;Config register CONFIG1H @ 0x300001
  2218                           ;	Oscillator Selection bits
  2219                           ;	FOSC = INTOSCIO_EC, Internal oscillator, port function on RA6, EC used by USB (INTIO)
  2220                           ;	Fail-Safe Clock Monitor Enable bit
  2221                           ;	FCMEN = OFF, Fail-Safe Clock Monitor disabled
  2222                           ;	Internal/External Oscillator Switchover bit
  2223                           ;	IESO = OFF, Oscillator Switchover mode disabled
  2224  300001                     	org	3145729
  2225  300001  08                 	db	8
  2226                           
  2227                           ;Config register CONFIG2L @ 0x300002
  2228                           ;	Power-up Timer Enable bit
  2229                           ;	PWRT = ON, PWRT enabled
  2230                           ;	Brown-out Reset Enable bits
  2231                           ;	BOR = OFF, Brown-out Reset disabled in hardware and software
  2232                           ;	Brown-out Reset Voltage bits
  2233                           ;	BORV = 3, Minimum setting 2.05V
  2234                           ;	USB Voltage Regulator Enable bit
  2235                           ;	VREGEN = OFF, USB voltage regulator disabled
  2236  300002                     	org	3145730
  2237  300002  18                 	db	24
  2238                           
  2239                           ;Config register CONFIG2H @ 0x300003
  2240                           ;	Watchdog Timer Enable bit
  2241                           ;	WDT = OFF, WDT disabled (control is placed on the SWDTEN bit)
  2242                           ;	Watchdog Timer Postscale Select bits
  2243                           ;	WDTPS = 32768, 1:32768
  2244  300003                     	org	3145731
  2245  300003  1E                 	db	30
  2246                           
  2247                           ; Padding undefined space
  2248  300004                     	org	3145732
  2249  300004  FF                 	db	255
  2250                           
  2251                           ;Config register CONFIG3H @ 0x300005
  2252                           ;	CCP2 MUX bit
  2253                           ;	CCP2MX = ON, CCP2 input/output is multiplexed with RC1
  2254                           ;	PORTB A/D Enable bit
  2255                           ;	PBADEN = OFF, PORTB<4:0> pins are configured as digital I/O on Reset
  2256                           ;	Low-Power Timer 1 Oscillator Enable bit
  2257                           ;	LPT1OSC = OFF, Timer1 configured for higher power operation
  2258                           ;	MCLR Pin Enable bit
  2259                           ;	MCLRE = ON, MCLR pin enabled; RE3 input pin disabled
  2260  300005                     	org	3145733
  2261  300005  81                 	db	129
  2262                           
  2263                           ;Config register CONFIG4L @ 0x300006
  2264                           ;	Stack Full/Underflow Reset Enable bit
  2265                           ;	STVREN = ON, Stack full/underflow will cause Reset
  2266                           ;	Single-Supply ICSP Enable bit
  2267                           ;	LVP = OFF, Single-Supply ICSP disabled
  2268                           ;	Dedicated In-Circuit Debug/Programming Port (ICPORT) Enable bit
  2269                           ;	ICPRT = OFF, ICPORT disabled
  2270                           ;	Extended Instruction Set Enable bit
  2271                           ;	XINST = OFF, Instruction set extension and Indexed Addressing mode disabled (Legacy mo
      +                          de)
  2272                           ;	Background Debugger Enable bit
  2273                           ;	DEBUG = 0x1, unprogrammed default
  2274  300006                     	org	3145734
  2275  300006  81                 	db	129
  2276                           
  2277                           ; Padding undefined space
  2278  300007                     	org	3145735
  2279  300007  FF                 	db	255
  2280                           
  2281                           ;Config register CONFIG5L @ 0x300008
  2282                           ;	Code Protection bit
  2283                           ;	CP0 = OFF, Block 0 (000800-001FFFh) is not code-protected
  2284                           ;	Code Protection bit
  2285                           ;	CP1 = OFF, Block 1 (002000-003FFFh) is not code-protected
  2286                           ;	Code Protection bit
  2287                           ;	CP2 = OFF, Block 2 (004000-005FFFh) is not code-protected
  2288                           ;	Code Protection bit
  2289                           ;	CP3 = OFF, Block 3 (006000-007FFFh) is not code-protected
  2290  300008                     	org	3145736
  2291  300008  0F                 	db	15
  2292                           
  2293                           ;Config register CONFIG5H @ 0x300009
  2294                           ;	Boot Block Code Protection bit
  2295                           ;	CPB = OFF, Boot block (000000-0007FFh) is not code-protected
  2296                           ;	Data EEPROM Code Protection bit
  2297                           ;	CPD = OFF, Data EEPROM is not code-protected
  2298  300009                     	org	3145737
  2299  300009  C0                 	db	192
  2300                           
  2301                           ;Config register CONFIG6L @ 0x30000A
  2302                           ;	Write Protection bit
  2303                           ;	WRT0 = OFF, Block 0 (000800-001FFFh) is not write-protected
  2304                           ;	Write Protection bit
  2305                           ;	WRT1 = OFF, Block 1 (002000-003FFFh) is not write-protected
  2306                           ;	Write Protection bit
  2307                           ;	WRT2 = OFF, Block 2 (004000-005FFFh) is not write-protected
  2308                           ;	Write Protection bit
  2309                           ;	WRT3 = OFF, Block 3 (006000-007FFFh) is not write-protected
  2310  30000A                     	org	3145738
  2311  30000A  0F                 	db	15
  2312                           
  2313                           ;Config register CONFIG6H @ 0x30000B
  2314                           ;	Configuration Register Write Protection bit
  2315                           ;	WRTC = OFF, Configuration registers (300000-3000FFh) are not write-protected
  2316                           ;	Boot Block Write Protection bit
  2317                           ;	WRTB = OFF, Boot block (000000-0007FFh) is not write-protected
  2318                           ;	Data EEPROM Write Protection bit
  2319                           ;	WRTD = OFF, Data EEPROM is not write-protected
  2320  30000B                     	org	3145739
  2321  30000B  E0                 	db	224
  2322                           
  2323                           ;Config register CONFIG7L @ 0x30000C
  2324                           ;	Table Read Protection bit
  2325                           ;	EBTR0 = OFF, Block 0 (000800-001FFFh) is not protected from table reads executed in ot
      +                          her blocks
  2326                           ;	Table Read Protection bit
  2327                           ;	EBTR1 = OFF, Block 1 (002000-003FFFh) is not protected from table reads executed in ot
      +                          her blocks
  2328                           ;	Table Read Protection bit
  2329                           ;	EBTR2 = OFF, Block 2 (004000-005FFFh) is not protected from table reads executed in ot
      +                          her blocks
  2330                           ;	Table Read Protection bit
  2331                           ;	EBTR3 = OFF, Block 3 (006000-007FFFh) is not protected from table reads executed in ot
      +                          her blocks
  2332  30000C                     	org	3145740
  2333  30000C  0F                 	db	15
  2334                           
  2335                           ;Config register CONFIG7H @ 0x30000D
  2336                           ;	Boot Block Table Read Protection bit
  2337                           ;	EBTRB = OFF, Boot block (000000-0007FFh) is not protected from table reads executed in
      +                           other blocks
  2338  30000D                     	org	3145741
  2339  30000D  40                 	db	64
  2340                           tosu	equ	0xFFF
  2341                           tosh	equ	0xFFE
  2342                           tosl	equ	0xFFD
  2343                           stkptr	equ	0xFFC
  2344                           pclatu	equ	0xFFB
  2345                           pclath	equ	0xFFA
  2346                           pcl	equ	0xFF9
  2347                           tblptru	equ	0xFF8
  2348                           tblptrh	equ	0xFF7
  2349                           tblptrl	equ	0xFF6
  2350                           tablat	equ	0xFF5
  2351                           prodh	equ	0xFF4
  2352                           prodl	equ	0xFF3
  2353                           indf0	equ	0xFEF
  2354                           postinc0	equ	0xFEE
  2355                           postdec0	equ	0xFED
  2356                           preinc0	equ	0xFEC
  2357                           plusw0	equ	0xFEB
  2358                           fsr0h	equ	0xFEA
  2359                           fsr0l	equ	0xFE9
  2360                           wreg	equ	0xFE8
  2361                           indf1	equ	0xFE7
  2362                           postinc1	equ	0xFE6
  2363                           postdec1	equ	0xFE5
  2364                           preinc1	equ	0xFE4
  2365                           plusw1	equ	0xFE3
  2366                           fsr1h	equ	0xFE2
  2367                           fsr1l	equ	0xFE1
  2368                           bsr	equ	0xFE0
  2369                           indf2	equ	0xFDF
  2370                           postinc2	equ	0xFDE
  2371                           postdec2	equ	0xFDD
  2372                           preinc2	equ	0xFDC
  2373                           plusw2	equ	0xFDB
  2374                           fsr2h	equ	0xFDA
  2375                           fsr2l	equ	0xFD9
  2376                           status	equ	0xFD8

Data Sizes:
    Strings     29
    Constant    0
    Data        44
    BSS         2
    Persistent  0
    Stack       0

Auto Spaces:
    Space          Size  Autos    Used
    COMRAM           94     18      64
    BANK0           160      0       0
    BANK1           256      0       0
    BANK2           256      0       0
    BANK3           256      0       0
    BANK4           256      0       0
    BANK5           256      0       0
    BANK6           256      0       0
    BANK7           256      0       0

Pointer List with Targets:

    GENERACARACTER@vector	PTR const unsigned char  size(2) Largest target is 7
		 -> foco_prendido(COMRAM[7]), foco_apagado(COMRAM[7]), 

    ESCRIBE_MENSAJE@cadena	PTR const unsigned char  size(2) Largest target is 16
		 -> STR_2(CODE[16]), STR_1(CODE[13]), 


Critical Paths under _main in COMRAM

    _main->_ESCRIBE_MENSAJE
    _vis_foquitos->_ESCRIBE_MENSAJE
    _POS_CURSOR->_ENVIA_LCD_CMD
    _ESCRIBE_MENSAJE->_ENVIA_CHAR
    _init_LCD->_GENERACARACTER
    _LCD_CONFIG->_ENVIA_LCD_CMD
    _GENERACARACTER->_ENVIA_CHAR
    _GENERACARACTER->_ENVIA_LCD_CMD
    _ENVIA_CHAR->_ENVIA_NIBBLE
    _ENVIA_CHAR->_LEER_LCD
    _CURSOR_ONOFF->_ENVIA_LCD_CMD
    _CURSOR_HOME->_ENVIA_LCD_CMD
    _BORRAR_LCD->_ENVIA_LCD_CMD
    _ENVIA_LCD_CMD->_ENVIA_NIBBLE
    _ENVIA_LCD_CMD->_LEER_LCD

Critical Paths under _INT2_ISR in COMRAM

    None.

Critical Paths under _INT0INT1_ISR in COMRAM

    None.

Critical Paths under _main in BANK0

    None.

Critical Paths under _INT2_ISR in BANK0

    None.

Critical Paths under _INT0INT1_ISR in BANK0

    None.

Critical Paths under _main in BANK1

    None.

Critical Paths under _INT2_ISR in BANK1

    None.

Critical Paths under _INT0INT1_ISR in BANK1

    None.

Critical Paths under _main in BANK2

    None.

Critical Paths under _INT2_ISR in BANK2

    None.

Critical Paths under _INT0INT1_ISR in BANK2

    None.

Critical Paths under _main in BANK3

    None.

Critical Paths under _INT2_ISR in BANK3

    None.

Critical Paths under _INT0INT1_ISR in BANK3

    None.

Critical Paths under _main in BANK4

    None.

Critical Paths under _INT2_ISR in BANK4

    None.

Critical Paths under _INT0INT1_ISR in BANK4

    None.

Critical Paths under _main in BANK5

    None.

Critical Paths under _INT2_ISR in BANK5

    None.

Critical Paths under _INT0INT1_ISR in BANK5

    None.

Critical Paths under _main in BANK6

    None.

Critical Paths under _INT2_ISR in BANK6

    None.

Critical Paths under _INT0INT1_ISR in BANK6

    None.

Critical Paths under _main in BANK7

    None.

Critical Paths under _INT2_ISR in BANK7

    None.

Critical Paths under _INT0INT1_ISR in BANK7

    None.

Call Graph Tables:

 ---------------------------------------------------------------------------------
 (Depth) Function   	        Calls       Base Space   Used Autos Params    Refs
 ---------------------------------------------------------------------------------
 (0) _main                                                 3     3      0    3323
                                             15 COMRAM     3     3      0
                    _ESCRIBE_MENSAJE
                         _POS_CURSOR
                          _configuro
                           _init_LCD
                            _retardo
                       _vis_foquitos
 ---------------------------------------------------------------------------------
 (1) _vis_foquitos                                         0     0      0     995
                         _ENVIA_CHAR
                    _ESCRIBE_MENSAJE
                         _POS_CURSOR
 ---------------------------------------------------------------------------------
 (2) _POS_CURSOR                                           2     1      1     360
                                              9 COMRAM     2     1      1
                      _ENVIA_LCD_CMD
 ---------------------------------------------------------------------------------
 (2) _ESCRIBE_MENSAJE                                      6     3      3     515
                                              9 COMRAM     6     3      3
                         _ENVIA_CHAR
 ---------------------------------------------------------------------------------
 (1) _retardo                                              2     2      0       0
                                              6 COMRAM     2     2      0
 ---------------------------------------------------------------------------------
 (1) _init_LCD                                             1     1      0    1181
                                             13 COMRAM     1     1      0
                         _BORRAR_LCD
                        _CURSOR_HOME
                       _CURSOR_ONOFF
                     _GENERACARACTER
                         _LCD_CONFIG
 ---------------------------------------------------------------------------------
 (2) _LCD_CONFIG                                           1     1      0     135
                                              9 COMRAM     1     1      0
                      _ENVIA_LCD_CMD
                       _ENVIA_NIBBLE
 ---------------------------------------------------------------------------------
 (2) _GENERACARACTER                                       4     1      3     656
                                              9 COMRAM     4     1      3
                         _ENVIA_CHAR
                      _ENVIA_LCD_CMD
 ---------------------------------------------------------------------------------
 (3) _ENVIA_CHAR                                           2     2      0     120
                                              7 COMRAM     2     2      0
                       _ENVIA_NIBBLE
                           _LEER_LCD
 ---------------------------------------------------------------------------------
 (2) _CURSOR_ONOFF                                         1     1      0     150
                                              9 COMRAM     1     1      0
                      _ENVIA_LCD_CMD
 ---------------------------------------------------------------------------------
 (2) _CURSOR_HOME                                          0     0      0     120
                      _ENVIA_LCD_CMD
 ---------------------------------------------------------------------------------
 (2) _BORRAR_LCD                                           0     0      0     120
                      _ENVIA_LCD_CMD
 ---------------------------------------------------------------------------------
 (3) _ENVIA_LCD_CMD                                        2     2      0     120
                                              7 COMRAM     2     2      0
                       _ENVIA_NIBBLE
                           _LEER_LCD
 ---------------------------------------------------------------------------------
 (4) _LEER_LCD                                             1     1      0      45
                                              6 COMRAM     1     1      0
 ---------------------------------------------------------------------------------
 (4) _ENVIA_NIBBLE                                         1     1      0      15
                                              6 COMRAM     1     1      0
 ---------------------------------------------------------------------------------
 (1) _configuro                                            0     0      0       0
 ---------------------------------------------------------------------------------
 Estimated maximum stack depth 4
 ---------------------------------------------------------------------------------
 (Depth) Function   	        Calls       Base Space   Used Autos Params    Refs
 ---------------------------------------------------------------------------------
 (5) _INT2_ISR                                             6     6      0      45
                                              0 COMRAM     6     6      0
 ---------------------------------------------------------------------------------
 Estimated maximum stack depth 5
 ---------------------------------------------------------------------------------
 (Depth) Function   	        Calls       Base Space   Used Autos Params    Refs
 ---------------------------------------------------------------------------------
 (6) _INT0INT1_ISR                                         0     0      0       0
 ---------------------------------------------------------------------------------
 Estimated maximum stack depth 6
 ---------------------------------------------------------------------------------

 Call Graph Graphs:

 _main (ROOT)
   _ESCRIBE_MENSAJE
     _ENVIA_CHAR
       _ENVIA_NIBBLE
       _LEER_LCD
   _POS_CURSOR
     _ENVIA_LCD_CMD
       _ENVIA_NIBBLE
       _LEER_LCD
   _configuro
   _init_LCD
     _BORRAR_LCD
       _ENVIA_LCD_CMD
     _CURSOR_HOME
       _ENVIA_LCD_CMD
     _CURSOR_ONOFF
       _ENVIA_LCD_CMD
     _GENERACARACTER
       _ENVIA_CHAR
       _ENVIA_LCD_CMD
     _LCD_CONFIG
       _ENVIA_LCD_CMD
       _ENVIA_NIBBLE
   _retardo
   _vis_foquitos
     _ENVIA_CHAR
     _ESCRIBE_MENSAJE
     _POS_CURSOR

 _INT2_ISR (ROOT)

 _INT0INT1_ISR (ROOT)

 Address spaces:
Name               Size   Autos  Total    Cost      Usage
BIGRAM             7FF      0       0      31        0.0%
EEDATA             100      0       0       0        0.0%
BITBANK7           100      0       0      18        0.0%
BANK7              100      0       0      19        0.0%
BITBANK6           100      0       0      16        0.0%
BANK6              100      0       0      17        0.0%
BITBANK5           100      0       0      14        0.0%
BANK5              100      0       0      15        0.0%
BITBANK4           100      0       0      12        0.0%
BANK4              100      0       0      13        0.0%
BITBANK3           100      0       0      10        0.0%
BANK3              100      0       0      11        0.0%
BITBANK2           100      0       0       8        0.0%
BANK2              100      0       0       9        0.0%
BITBANK1           100      0       0       6        0.0%
BANK1              100      0       0       7        0.0%
BITBANK0            A0      0       0       4        0.0%
BANK0               A0      0       0       5        0.0%
BITCOMRAM           5E      0       0       0        0.0%
COMRAM              5E     12      40       1       68.1%
BITBIGSFRll         23      0       0      29        0.0%
BITBIGSFRhhhl       1C      0       0      21        0.0%
BITBIGSFRhhllll     14      0       0      26        0.0%
BITBIGSFRhhllh      11      0       0      24        0.0%
BITBIGSFRhhlhl       E      0       0      23        0.0%
BITBIGSFRhhhh        D      0       0      20        0.0%
BITBIGSFRlh          7      0       0      28        0.0%
BITBIGSFRhl          6      0       0      27        0.0%
BITBIGSFRhhlhh       2      0       0      22        0.0%
BITBIGSFRhhlllh      1      0       0      25        0.0%
BIGSFR               0      0       0     200        0.0%
BITSFR               0      0       0     200        0.0%
SFR                  0      0       0     200        0.0%
STACK                0      0       0       2        0.0%
NULL                 0      0       0       0        0.0%
ABS                  0      0      40      30        0.0%
DATA                 0      0      40       3        0.0%
CODE                 0      0       0       0        0.0%


Microchip Technology PIC18 Macro Assembler V2.36 build 20220127204148 
Symbol Table                                                                                   Thu Nov 10 21:35:11 2022

                     l24 0C88                       l42 0D52                       l51 0CBC  
                     l60 0DC8                       l37 0DD0                       l54 0DD8  
                     l63 0CF0                       l48 0C12                       l57 0B2E  
                     l74 0C4E                       l67 0A94                       l69 0ACE  
                     u10 0ACE                       u11 0ACA                       u40 0D36  
                     u41 0D32                       u50 0D4C                       u51 0D48  
          _foco_prendido 001F                       bsr 000FE0            ENVIA_CHAR@aux 0035  
                    l140 0BD4                      l137 0D80                      l157 09E6  
                    l149 0A5C                      l901 0A80                      l911 0AA2  
                    l903 0A88                      l921 0DB0                      l913 0AAC  
                    l905 0A8A                      l923 0DBC                      l915 0AB6  
                    l907 0A96                      l931 0CC2                      l925 0DBE  
                    l909 0A9E                      l941 0CD6                      l933 0CC6  
                    l927 0DC6                      l919 0ABC                      l943 0CD8  
                    l935 0CCA                      l951 0C8C                      l945 0CDE  
                    l937 0CD2                      l929 0CC0                      l961 0CA0  
                    l953 0C8E                      l891 0A68                      l883 0A5E  
                    l947 0CE4                      l939 0CD4                      l971 0CB6  
                    l963 0CA2                      l955 0C92                      l893 0A70  
                    l885 0A62                      l949 0CEA                      l981 0DCA  
                    l965 0CA4                      l957 0C96                      l895 0A74  
                    l887 0A64                      l983 0D26                      l967 0CAA  
                    l959 0C9E                      l897 0A76                      l889 0A66  
                    l985 0D36                      l969 0CB0                      l899 0A7E  
                    l987 0D3C                      l989 0D4C                      l999 0DD2  
                    u300 0C48                      u301 0C44                      u310 0A10  
                    u311 0A0C                      u320 0A2E                      u321 0A2A  
                    u330 0A4C                      u331 0A48                      u340 0880  
                    u341 087C                      u270 0C62                      u350 08B2  
                    u407 09A2                      u271 0C5E                      u351 08AE  
                    u280 0C80                      u360 08E4                      u417 0B9C  
                    u281 0C7C                      u361 08E0                      u290 0C12  
                    u370 0916                      u507 0A98                      u427 0AE0  
                    u291 0C0E                      u371 0912                      u517 0AA6  
                    u437 0AEE                      u527 0AB0                      u447 0AFE  
                    u537 0DC0                      u457 0C98                      u467 0CCC  
                    u387 096A                      u477 0A6A                      u397 0986  
                    u487 0A78                      u497 0A82              LEER_LCD@aux 0033  
                    wreg 000FE8             ?_CURSOR_HOME 002D             _vis_foquitos 09E8  
         ??_ENVIA_NIBBLE 0033           ENVIA_CHAR@dato 0034                     l1001 0AD0  
                   l1011 0B04                     l1003 0AD4                     l1021 0B22  
                   l1013 0B0A                     l1005 0ADA                     l1023 0B28  
                   l1015 0B10                     l1007 0AE8                     l1111 0960  
                   l1041 0D54                     l1017 0B16                     l1009 0AFC  
                   l1113 097C                     l1051 0D68                     l1043 0D60  
                   l1019 0B1C                     l1115 0998                     l1061 0D72  
                   l1053 0D6A                     l1045 0D62                     l1301 0C48  
                   l1109 095C                     l1063 0D74                     l1055 0D6C  
                   l1047 0D64                     l1311 0BAA                     l1303 0B8E  
                   l1119 09B4                     l1065 0D7A                     l1057 0D6E  
                   l1049 0D66                     l1313 0BAE                     l1305 0B92  
                   l1321 09F2                     l1401 08E8                     l1067 0D7C  
                   l1059 0D70                     l1315 0BB4                     l1307 0B96  
                   l1331 0A2E                     l1323 0A02                     l1411 0900  
                   l1069 0D7E                     l1317 0BC4                     l1309 0BA6  
                   l1333 0A38                     l1325 0A10                     l1413 0904  
                   l1341 0820                     l1271 0C52                     l1335 0A3E  
                   l1327 0A1A                     l1319 09E8                     l1415 0906  
                   l1407 08EC                     l1351 084A                     l1343 0824  
                   l1281 0BE2                     l1273 0C62                     l1337 0A4C  
                   l1329 0A20                     l1433 092A                     l1409 08FC  
                   l1361 0866                     l1353 0852                     l1345 0828  
                   l1435 09C8                     l1283 0BFE                     l1275 0C6E  
                   l1339 0A56                     l1363 086A                     l1419 0916  
                   l1347 0832                     l1285 0C00                     l1277 0C80  
                   l1381 08A0                     l1365 086E                     l1349 0846  
                   l1295 0C24                     l1287 0C14                     l1279 0BD6  
                   l1391 08BA                     l1383 08A2                     l1375 0888  
                   l1367 0870                     l1359 0856                     l1297 0C36  
                   l1289 0C20                     l1393 08CA                     l1385 08B6  
                   l1377 0898                     l1369 0884                     l1299 0C38  
                   l1395 08CE                     l1379 089C                     l1397 08D2  
                   l1399 08D4                     STR_1 0811                     STR_2 0801  
                   _LATD 000F8C                     _LATE 000F8D           ??_INT0INT1_ISR 002D  
                   _main 0820                     fsr2h 000FDA                     indf2 000FDF  
                   fsr1l 000FE1                     fsr2l 000FD9                     btemp 0041  
                   prodl 000FF3                     start 00A0            ?_CURSOR_ONOFF 002D  
           ___param_bank 000000          ??_ENVIA_LCD_CMD 0034         __end_of_LEER_LCD 0AD0  
       __end_of_INT2_ISR 00A0           _GENERACARACTER 0C14                    ?_main 002D  
                  i1l201 0068                    i1l204 007A                    i1l207 0088  
                  i1l198 0044                    i2l191 0B8A                    _SPBRG 000FAF  
                  _PORTD 000F83                    _TRISD 000F95                    _TRISE 000F96  
                  _TXREG 000FAD              ?_POS_CURSOR 0036                    main@x 003E  
        __end_of_retardo 09E8                    tablat 000FF5                    ttemp5 0042  
                  ttemp6 0045                    ttemp7 0049                    status 000FD8  
                  wtemp8 0042           ??_CURSOR_ONOFF 0036          __initialization 0CF2  
           __end_of_main 095C   __end_of_GENERACARACTER 0C50          _ESCRIBE_MENSAJE 0BD6  
                 ??_main 003C            __activetblptr 000002                   _ADCON1 000FC1  
                 i1l1261 0076                   i1l1253 0034                   i1l1245 002E  
                 i1l1255 0052                   i1l1247 0030                   i1l1257 0054  
                 i1l1259 0064                   i2l1231 0B54                   i2l1241 0B80  
                 i2l1233 0B5C                   i2l1225 0B32                   i2l1243 0B88  
                 i2l1227 0B40                   i2l1235 0B5E                   i2l1237 0B6C  
                 i2l1229 0B42                   i2l1239 0B6E                   _OSCCON 000FD3  
   __end_of_ENVIA_NIBBLE 0DCA         __end_of_init_LCD 0BD6          ?_GENERACARACTER 0036  
                 isa$std 000001                   _visual 0015     __end_of_INT0INT1_ISR 0B8E  
           __pdataCOMRAM 0001             __mediumconst 0000                ??_retardo 0033  
                 tblptrh 000FF7                   tblptrl 000FF6                   tblptru 000FF8  
           ??_BORRAR_LCD 0036                ?_LEER_LCD 002D               __accesstop 0060  
__end_of__initialization 0D16                ?_INT2_ISR 002D             ??_LCD_CONFIG 0036  
          ___rparam_used 000001             ??_ENVIA_CHAR 0034  __end_of_ESCRIBE_MENSAJE 0C14  
         __pcstackCOMRAM 002D                INT2_ISR@z 0032       __end_of_BORRAR_LCD 0DDA  
       ENVIA_LCD_CMD@aux 0035     __end_of_CURSOR_ONOFF 0D54       __end_of_LCD_CONFIG 0B30  
     __end_of_ENVIA_CHAR 0CBE               ??_LEER_LCD 0033         ENVIA_NIBBLE@dato 0033  
             ??_INT2_ISR 002D                  i1u23_20 0052                  i1u23_21 004E  
                i1u24_20 0064                  i1u24_21 0060                  i1u25_20 0076  
                i1u25_21 0072                  i1u26_20 0088                  i1u26_21 0084  
                i2u20_40 0B54                  i2u20_41 0B50                  i2u21_40 0B6C  
                i2u21_41 0B68                  i2u22_40 0B80                  i2u22_41 0B7C  
                i2u19_40 0B40                  i2u19_41 0B3C             ??_POS_CURSOR 0037  
              ?_init_LCD 002D                  __Hparam 0000                  __Lparam 0000  
       ?_ESCRIBE_MENSAJE 0036        __end_of_configuro 0D82             __psmallconst 0800  
  __end_of_ENVIA_LCD_CMD 0CF2                  __pcinit 0CF2       __end_of_POS_CURSOR 0C8A  
                __ramtop 0800                  __ptext0 0820                  __ptext1 09E8  
                __ptext2 0C50                  __ptext3 0BD6                  __ptext4 095C  
                __ptext5 0B8E                  __ptext6 0AD0                  __ptext7 0C14  
                __ptext8 0C8A                  __ptext9 0D24          GENERACARACTER@i 0039  
                _retardo 095C           __pintcode_body 0B30             _ENVIA_NIBBLE 0DAE  
   end_of_initialization 0D16               ??_init_LCD 003A            __Lmediumconst 0000  
                int_func 0B30             _INT0INT1_ISR 0008         ??_GENERACARACTER 0039  
              _RCSTAbits 000FAB                  postdec1 000FE5                  postinc0 000FEE  
   GENERACARACTER@vector 0036                _PORTEbits 000F84             _foco_apagado 0026  
              _TRISCbits 000F94                _TXSTAbits 000FAC             _CURSOR_ONOFF 0D24  
     CURSOR_ONOFF@estado 0036            __pidataCOMRAM 0D82            ??_CURSOR_HOME 0036  
    start_initialization 0CF2            ?_vis_foquitos 002D        ENVIA_LCD_CMD@dato 0034  
         ??_vis_foquitos 003C              __pbssCOMRAM 003F      __end_of_CURSOR_HOME 0DD2  
              __pintcode 0008              __pintcodelo 0018        GENERACARACTER@pos 0038  
              _configuro 0D54              __smallconst 0800                 ?_retardo 002D  
               _LEER_LCD 0A5E                 _INT2_ISR 0018                 _LATDbits 000F8C  
               _RCONbits 000FD0         ESCRIBE_MENSAJE@i 003B           POS_CURSOR@fila 0037  
             ?_configuro 002D              _CURSOR_HOME 0DCA              _INTCON2bits 000FF1  
            _INTCON3bits 000FF0                copy_data0 0D06                 __Hrparam 0000  
   __end_of_vis_foquitos 0A5E                 __Lrparam 0000                 __ptext10 0DCA  
               __ptext11 0DD2                 __ptext12 0CBE                 __ptext13 0A5E  
               __ptext14 0DAE                 __ptext15 0D54               _BORRAR_LCD 0DD2  
               _init_LCD 0B8E                 _estado_s 003F                 _estado_v 0040  
               _mensajon 0001               _LCD_CONFIG 0AD0               _ENVIA_CHAR 0C8A  
               isa$xinst 000000                 int$flags 0041            _ENVIA_LCD_CMD 0CBE  
            ??_configuro 0033               _INTCONbits 000FF2        ??_ESCRIBE_MENSAJE 0039  
               intlevel1 0000                 intlevel2 0000    ESCRIBE_MENSAJE@cadena 0036  
         ?_ENVIA_LCD_CMD 002D              ?_BORRAR_LCD 002D            ?_ENVIA_NIBBLE 002D  
             _POS_CURSOR 0C50            ?_INT0INT1_ISR 002D              ?_LCD_CONFIG 002D  
     ESCRIBE_MENSAJE@tam 0038              ?_ENVIA_CHAR 002D        POS_CURSOR@columna 0036  
